(dp1
S'src'
p2
(dp3
S'type'
p4
S'list:string'
p5
sS'sortable'
p6
I3
sS'sql'
p7
S'TEXT'
p8
ssS'atracao'
p9
(dp10
g4
S'reference atracao'
p11
sg6
I2
sg7
S'INTEGER REFERENCES atracao(id) ON DELETE CASCADE'
p12
ssS'id'
p13
(dp14
g4
g13
sg6
I1
sg7
S'INTEGER PRIMARY KEY AUTOINCREMENT'
p15
ss.