(dp1
S'output'
p2
S"<class 'sqlite3.OperationalError'> table auth_user already exists"
p3
sS'layer'
p4
S'C:\\Users\\ceasbpi\\Dropbox\\web2py\\applications\\IguassuPass\\models\\db.py'
p5
sS'code'
p6
S"# -*- coding: utf-8 -*-\n\n#########################################################################\n## This scaffolding model makes your app work on Google App Engine too\n## File is released under public domain and you can use without limitations\n#########################################################################\n\n## if SSL/HTTPS is properly configured and you want all HTTP requests to\n## be redirected to HTTPS, uncomment the line below:\n# request.requires_https()\n\nif not request.env.web2py_runtime_gae:\n    ## if NOT running on Google App Engine use SQLite or other DB\n    db = DAL('sqlite://storage.sqlite')\nelse:\n    ## connect to Google BigTable (optional 'google:datastore://namespace')\n    db = DAL('google:datastore')\n    ## store sessions and tickets there\n    session.connect(request, response, db = db)\n    ## or store session in Memcache, Redis, etc.\n    ## from gluon.contrib.memdb import MEMDB\n    ## from google.appengine.api.memcache import Client\n    ## session.connect(request, response, db = MEMDB(Client()))\n\n## by default give a view/generic.extension to all actions from localhost\n## none otherwise. a pattern can be 'controller/function.extension'\nresponse.generic_patterns = ['*'] if request.is_local else []\n## (optional) optimize handling of static files\n# response.optimize_css = 'concat,minify,inline'\n# response.optimize_js = 'concat,minify,inline'\n\n#########################################################################\n## Here is sample code if you need for\n## - email capabilities\n## - authentication (registration, login, logout, ... )\n## - authorization (role based authorization)\n## - services (xml, csv, json, xmlrpc, jsonrpc, amf, rss)\n## - old style crud actions\n## (more options discussed in gluon/tools.py)\n#########################################################################\n\nfrom gluon.tools import Auth, Crud, Service, PluginManager, prettydate\nauth = Auth(db, hmac_key=Auth.get_or_create_key())\ncrud, service, plugins = Crud(db), Service(), PluginManager()\n\n## create all tables needed by auth if not custom tables\nauth.define_tables()\n\n## configure email\nmail=auth.settings.mailer\nmail.settings.server = 'logging' or 'smtp.gmail.com:587'\nmail.settings.sender = 'you@gmail.com'\nmail.settings.login = 'username:password'\n\n## configure auth policy\nauth.settings.registration_requires_verification = False\nauth.settings.registration_requires_approval = False\nauth.settings.reset_password_requires_verification = True\n\n## if you need to use OpenID, Facebook, MySpace, Twitter, Linkedin, etc.\n## register with janrain.com, write your domain:api_key in private/janrain.key\nfrom gluon.contrib.login_methods.rpx_account import use_janrain\nuse_janrain(auth,filename='private/janrain.key')\n\n#########################################################################\n## Define your tables below (or better in another model file) for example\n##\n## >>> db.define_table('mytable',Field('myfield','string'))\n##\n## Fields can be 'string','text','password','integer','double','boolean'\n##       'date','time','datetime','blob','upload', 'reference TABLENAME'\n## There is an implicit 'id integer autoincrement' field\n## Consult manual for more options, validators, etc.\n##\n## More API examples for controllers:\n##\n## >>> db.mytable.insert(myfield='value')\n## >>> rows=db(db.mytable.myfield=='value').select(db.mytable.ALL)\n## >>> for row in rows: print row.id, row.myfield\n#########################################################################\n"
p7
sS'snapshot'
p8
(dp9
S'exception'
p10
(dp11
S'__hash__'
p12
S"<method-wrapper '__hash__' of OperationalError object at 0x07707D78>"
p13
sS'__module__'
p14
S"'sqlite3'"
p15
sS'__reduce_ex__'
p16
S'<built-in method __reduce_ex__ of OperationalError object at 0x07707D78>'
p17
sS'__getslice__'
p18
S"<method-wrapper '__getslice__' of OperationalError object at 0x07707D78>"
p19
sS'__getitem__'
p20
S"<method-wrapper '__getitem__' of OperationalError object at 0x07707D78>"
p21
sS'__setstate__'
p22
S'<built-in method __setstate__ of OperationalError object at 0x07707D78>'
p23
sS'__reduce__'
p24
S'<built-in method __reduce__ of OperationalError object at 0x07707D78>'
p25
sS'__str__'
p26
S"<method-wrapper '__str__' of OperationalError object at 0x07707D78>"
p27
sS'args'
p28
S"('table auth_user already exists',)"
p29
sS'__getattribute__'
p30
S"<method-wrapper '__getattribute__' of OperationalError object at 0x07707D78>"
p31
sS'__class__'
p32
S"<class 'sqlite3.OperationalError'>"
p33
sS'__delattr__'
p34
S"<method-wrapper '__delattr__' of OperationalError object at 0x07707D78>"
p35
sS'__repr__'
p36
S"<method-wrapper '__repr__' of OperationalError object at 0x07707D78>"
p37
sS'__setattr__'
p38
S"<method-wrapper '__setattr__' of OperationalError object at 0x07707D78>"
p39
sS'__dict__'
p40
S'{}'
p41
sS'__weakref__'
p42
S'None'
p43
sS'__doc__'
p44
S'None'
p45
sS'__init__'
p46
S"<method-wrapper '__init__' of OperationalError object at 0x07707D78>"
p47
sS'__new__'
p48
S'<built-in method __new__ of type object at 0x1E1CCCB0>'
p49
ssS'evalue'
p50
S'table auth_user already exists'
p51
sS'request'
p52
ccopy_reg
_reconstructor
p53
(cgluon.html
BEAUTIFY
p54
c__builtin__
object
p55
NtRp56
(dp57
S'attributes'
p58
(dp59
sS'components'
p60
(lp61
g53
(cgluon.html
TABLE
p62
g55
NtRp63
(dp64
g58
(dp65
S'level'
p66
I5
ssS'parent'
p67
Nsg60
(lp68
g53
(cgluon.html
TR
p69
g55
NtRp70
(dp71
g58
(dp72
sg67
g63
sg60
(lp73
g53
(cgluon.html
TD
p74
g55
NtRp75
(dp76
g58
(dp77
S'_style'
p78
S'font-weight:bold;vertical-align:top'
p79
ssg67
g70
sg60
(lp80
S'ajax'
p81
asbag53
(g74
g55
NtRp82
(dp83
g58
(dp84
S'_valign'
p85
S'top'
p86
ssg67
g70
sg60
(lp87
S':'
asbag53
(g74
g55
NtRp88
(dp89
g58
(dp90
sg67
g70
sg60
(lp91
g53
(g54
g55
NtRp92
(dp93
g58
(dp94
g66
I5
ssg67
g88
sg60
(lp95
S'False'
p96
asbasbasbag53
(g69
g55
NtRp97
(dp98
g58
(dp99
sg67
g63
sg60
(lp100
g53
(g74
g55
NtRp101
(dp102
g58
(dp103
g78
g79
ssg67
g97
sg60
(lp104
S'application'
p105
asbag53
(g74
g55
NtRp106
(dp107
g58
(dp108
g85
g86
ssg67
g97
sg60
(lp109
S':'
asbag53
(g74
g55
NtRp110
(dp111
g58
(dp112
sg67
g97
sg60
(lp113
g53
(g54
g55
NtRp114
(dp115
g58
(dp116
g66
I5
ssg67
g110
sg60
(lp117
S'IguassuPass'
p118
asbasbasbag53
(g69
g55
NtRp119
(dp120
g58
(dp121
sg67
g63
sg60
(lp122
g53
(g74
g55
NtRp123
(dp124
g58
(dp125
g78
g79
ssg67
g119
sg60
(lp126
g28
asbag53
(g74
g55
NtRp127
(dp128
g58
(dp129
g85
g86
ssg67
g119
sg60
(lp130
S':'
asbag53
(g74
g55
NtRp131
(dp132
g58
(dp133
sg67
g119
sg60
(lp134
g53
(g54
g55
NtRp135
(dp136
g58
(dp137
g66
I5
ssg67
g131
sg60
(lp138
g53
(g62
g55
NtRp139
(dp140
g58
(dp141
g66
I4
ssg67
Nsg60
(lp142
sbasbasbasbag53
(g69
g55
NtRp143
(dp144
g58
(dp145
sg67
g63
sg60
(lp146
g53
(g74
g55
NtRp147
(dp148
g58
(dp149
g78
g79
ssg67
g143
sg60
(lp150
S'body'
p151
asbag53
(g74
g55
NtRp152
(dp153
g58
(dp154
g85
g86
ssg67
g143
sg60
(lp155
S':'
asbag53
(g74
g55
NtRp156
(dp157
g58
(dp158
sg67
g143
sg60
(lp159
g53
(g54
g55
NtRp160
(dp161
g58
(dp162
g66
I5
ssg67
g156
sg60
(lp163
S'<cStringIO.StringO object at 0x07DB3520>'
p164
asbasbasbag53
(g69
g55
NtRp165
(dp166
g58
(dp167
sg67
g63
sg60
(lp168
g53
(g74
g55
NtRp169
(dp170
g58
(dp171
g78
g79
ssg67
g165
sg60
(lp172
S'client'
p173
asbag53
(g74
g55
NtRp174
(dp175
g58
(dp176
g85
g86
ssg67
g165
sg60
(lp177
S':'
asbag53
(g74
g55
NtRp178
(dp179
g58
(dp180
sg67
g165
sg60
(lp181
g53
(g54
g55
NtRp182
(dp183
g58
(dp184
g66
I5
ssg67
g178
sg60
(lp185
S'127.0.0.1'
p186
asbasbasbag53
(g69
g55
NtRp187
(dp188
g58
(dp189
sg67
g63
sg60
(lp190
g53
(g74
g55
NtRp191
(dp192
g58
(dp193
g78
g79
ssg67
g187
sg60
(lp194
S'controller'
p195
asbag53
(g74
g55
NtRp196
(dp197
g58
(dp198
g85
g86
ssg67
g187
sg60
(lp199
S':'
asbag53
(g74
g55
NtRp200
(dp201
g58
(dp202
sg67
g187
sg60
(lp203
g53
(g54
g55
NtRp204
(dp205
g58
(dp206
g66
I5
ssg67
g200
sg60
(lp207
S'appadmin'
p208
asbasbasbag53
(g69
g55
NtRp209
(dp210
g58
(dp211
sg67
g63
sg60
(lp212
g53
(g74
g55
NtRp213
(dp214
g58
(dp215
g78
g79
ssg67
g209
sg60
(lp216
S'cookies'
p217
asbag53
(g74
g55
NtRp218
(dp219
g58
(dp220
g85
g86
ssg67
g209
sg60
(lp221
S':'
asbag53
(g74
g55
NtRp222
(dp223
g58
(dp224
sg67
g209
sg60
(lp225
g53
(g54
g55
NtRp226
(dp227
g58
(dp228
g66
I5
ssg67
g222
sg60
(lp229
g53
(g62
g55
NtRp230
(dp231
g58
(dp232
g66
I4
ssg67
Nsg60
(lp233
g53
(g69
g55
NtRp234
(dp235
g58
(dp236
sg67
g230
sg60
(lp237
g53
(g74
g55
NtRp238
(dp239
g58
(dp240
g78
g79
ssg67
g234
sg60
(lp241
S'session_id_admin'
p242
asbag53
(g74
g55
NtRp243
(dp244
g58
(dp245
g85
g86
ssg67
g234
sg60
(lp246
S':'
asbag53
(g74
g55
NtRp247
(dp248
g58
(dp249
sg67
g234
sg60
(lp250
g53
(g54
g55
NtRp251
(dp252
g58
(dp253
g66
I4
ssg67
g247
sg60
(lp254
g53
(g62
g55
NtRp255
(dp256
g58
(dp257
g66
I3
ssg67
Nsg60
(lp258
g53
(g69
g55
NtRp259
(dp260
g58
(dp261
sg67
g255
sg60
(lp262
g53
(g74
g55
NtRp263
(dp264
g58
(dp265
g78
g79
ssg67
g259
sg60
(lp266
S'comment'
p267
asbag53
(g74
g55
NtRp268
(dp269
g58
(dp270
g85
g86
ssg67
g259
sg60
(lp271
S':'
asbag53
(g74
g55
NtRp272
(dp273
g58
(dp274
sg67
g259
sg60
(lp275
g53
(g54
g55
NtRp276
(dp277
g58
(dp278
g66
I3
ssg67
g272
sg60
(lp279
S''
asbasbasbag53
(g69
g55
NtRp280
(dp281
g58
(dp282
sg67
g255
sg60
(lp283
g53
(g74
g55
NtRp284
(dp285
g58
(dp286
g78
g79
ssg67
g280
sg60
(lp287
S'domain'
p288
asbag53
(g74
g55
NtRp289
(dp290
g58
(dp291
g85
g86
ssg67
g280
sg60
(lp292
S':'
asbag53
(g74
g55
NtRp293
(dp294
g58
(dp295
sg67
g280
sg60
(lp296
g53
(g54
g55
NtRp297
(dp298
g58
(dp299
g66
I3
ssg67
g293
sg60
(lp300
S''
asbasbasbag53
(g69
g55
NtRp301
(dp302
g58
(dp303
sg67
g255
sg60
(lp304
g53
(g74
g55
NtRp305
(dp306
g58
(dp307
g78
g79
ssg67
g301
sg60
(lp308
S'expires'
p309
asbag53
(g74
g55
NtRp310
(dp311
g58
(dp312
g85
g86
ssg67
g301
sg60
(lp313
S':'
asbag53
(g74
g55
NtRp314
(dp315
g58
(dp316
sg67
g301
sg60
(lp317
g53
(g54
g55
NtRp318
(dp319
g58
(dp320
g66
I3
ssg67
g314
sg60
(lp321
S''
asbasbasbag53
(g69
g55
NtRp322
(dp323
g58
(dp324
sg67
g255
sg60
(lp325
g53
(g74
g55
NtRp326
(dp327
g58
(dp328
g78
g79
ssg67
g322
sg60
(lp329
S'max-age'
p330
asbag53
(g74
g55
NtRp331
(dp332
g58
(dp333
g85
g86
ssg67
g322
sg60
(lp334
S':'
asbag53
(g74
g55
NtRp335
(dp336
g58
(dp337
sg67
g322
sg60
(lp338
g53
(g54
g55
NtRp339
(dp340
g58
(dp341
g66
I3
ssg67
g335
sg60
(lp342
S''
asbasbasbag53
(g69
g55
NtRp343
(dp344
g58
(dp345
sg67
g255
sg60
(lp346
g53
(g74
g55
NtRp347
(dp348
g58
(dp349
g78
g79
ssg67
g343
sg60
(lp350
S'path'
p351
asbag53
(g74
g55
NtRp352
(dp353
g58
(dp354
g85
g86
ssg67
g343
sg60
(lp355
S':'
asbag53
(g74
g55
NtRp356
(dp357
g58
(dp358
sg67
g343
sg60
(lp359
g53
(g54
g55
NtRp360
(dp361
g58
(dp362
g66
I3
ssg67
g356
sg60
(lp363
S''
asbasbasbag53
(g69
g55
NtRp364
(dp365
g58
(dp366
sg67
g255
sg60
(lp367
g53
(g74
g55
NtRp368
(dp369
g58
(dp370
g78
g79
ssg67
g364
sg60
(lp371
S'secure'
p372
asbag53
(g74
g55
NtRp373
(dp374
g58
(dp375
g85
g86
ssg67
g364
sg60
(lp376
S':'
asbag53
(g74
g55
NtRp377
(dp378
g58
(dp379
sg67
g364
sg60
(lp380
g53
(g54
g55
NtRp381
(dp382
g58
(dp383
g66
I3
ssg67
g377
sg60
(lp384
S''
asbasbasbag53
(g69
g55
NtRp385
(dp386
g58
(dp387
sg67
g255
sg60
(lp388
g53
(g74
g55
NtRp389
(dp390
g58
(dp391
g78
g79
ssg67
g385
sg60
(lp392
S'version'
p393
asbag53
(g74
g55
NtRp394
(dp395
g58
(dp396
g85
g86
ssg67
g385
sg60
(lp397
S':'
asbag53
(g74
g55
NtRp398
(dp399
g58
(dp400
sg67
g385
sg60
(lp401
g53
(g54
g55
NtRp402
(dp403
g58
(dp404
g66
I3
ssg67
g398
sg60
(lp405
S''
asbasbasbasbasbasbasbag53
(g69
g55
NtRp406
(dp407
g58
(dp408
sg67
g230
sg60
(lp409
g53
(g74
g55
NtRp410
(dp411
g58
(dp412
g78
g79
ssg67
g406
sg60
(lp413
S'session_id_iguassupass'
p414
asbag53
(g74
g55
NtRp415
(dp416
g58
(dp417
g85
g86
ssg67
g406
sg60
(lp418
S':'
asbag53
(g74
g55
NtRp419
(dp420
g58
(dp421
sg67
g406
sg60
(lp422
g53
(g54
g55
NtRp423
(dp424
g58
(dp425
g66
I4
ssg67
g419
sg60
(lp426
g53
(g62
g55
NtRp427
(dp428
g58
(dp429
g66
I3
ssg67
Nsg60
(lp430
g53
(g69
g55
NtRp431
(dp432
g58
(dp433
sg67
g427
sg60
(lp434
g53
(g74
g55
NtRp435
(dp436
g58
(dp437
g78
g79
ssg67
g431
sg60
(lp438
g267
asbag53
(g74
g55
NtRp439
(dp440
g58
(dp441
g85
g86
ssg67
g431
sg60
(lp442
S':'
asbag53
(g74
g55
NtRp443
(dp444
g58
(dp445
sg67
g431
sg60
(lp446
g53
(g54
g55
NtRp447
(dp448
g58
(dp449
g66
I3
ssg67
g443
sg60
(lp450
S''
asbasbasbag53
(g69
g55
NtRp451
(dp452
g58
(dp453
sg67
g427
sg60
(lp454
g53
(g74
g55
NtRp455
(dp456
g58
(dp457
g78
g79
ssg67
g451
sg60
(lp458
g288
asbag53
(g74
g55
NtRp459
(dp460
g58
(dp461
g85
g86
ssg67
g451
sg60
(lp462
S':'
asbag53
(g74
g55
NtRp463
(dp464
g58
(dp465
sg67
g451
sg60
(lp466
g53
(g54
g55
NtRp467
(dp468
g58
(dp469
g66
I3
ssg67
g463
sg60
(lp470
S''
asbasbasbag53
(g69
g55
NtRp471
(dp472
g58
(dp473
sg67
g427
sg60
(lp474
g53
(g74
g55
NtRp475
(dp476
g58
(dp477
g78
g79
ssg67
g471
sg60
(lp478
g309
asbag53
(g74
g55
NtRp479
(dp480
g58
(dp481
g85
g86
ssg67
g471
sg60
(lp482
S':'
asbag53
(g74
g55
NtRp483
(dp484
g58
(dp485
sg67
g471
sg60
(lp486
g53
(g54
g55
NtRp487
(dp488
g58
(dp489
g66
I3
ssg67
g483
sg60
(lp490
S''
asbasbasbag53
(g69
g55
NtRp491
(dp492
g58
(dp493
sg67
g427
sg60
(lp494
g53
(g74
g55
NtRp495
(dp496
g58
(dp497
g78
g79
ssg67
g491
sg60
(lp498
g330
asbag53
(g74
g55
NtRp499
(dp500
g58
(dp501
g85
g86
ssg67
g491
sg60
(lp502
S':'
asbag53
(g74
g55
NtRp503
(dp504
g58
(dp505
sg67
g491
sg60
(lp506
g53
(g54
g55
NtRp507
(dp508
g58
(dp509
g66
I3
ssg67
g503
sg60
(lp510
S''
asbasbasbag53
(g69
g55
NtRp511
(dp512
g58
(dp513
sg67
g427
sg60
(lp514
g53
(g74
g55
NtRp515
(dp516
g58
(dp517
g78
g79
ssg67
g511
sg60
(lp518
g351
asbag53
(g74
g55
NtRp519
(dp520
g58
(dp521
g85
g86
ssg67
g511
sg60
(lp522
S':'
asbag53
(g74
g55
NtRp523
(dp524
g58
(dp525
sg67
g511
sg60
(lp526
g53
(g54
g55
NtRp527
(dp528
g58
(dp529
g66
I3
ssg67
g523
sg60
(lp530
S''
asbasbasbag53
(g69
g55
NtRp531
(dp532
g58
(dp533
sg67
g427
sg60
(lp534
g53
(g74
g55
NtRp535
(dp536
g58
(dp537
g78
g79
ssg67
g531
sg60
(lp538
g372
asbag53
(g74
g55
NtRp539
(dp540
g58
(dp541
g85
g86
ssg67
g531
sg60
(lp542
S':'
asbag53
(g74
g55
NtRp543
(dp544
g58
(dp545
sg67
g531
sg60
(lp546
g53
(g54
g55
NtRp547
(dp548
g58
(dp549
g66
I3
ssg67
g543
sg60
(lp550
S''
asbasbasbag53
(g69
g55
NtRp551
(dp552
g58
(dp553
sg67
g427
sg60
(lp554
g53
(g74
g55
NtRp555
(dp556
g58
(dp557
g78
g79
ssg67
g551
sg60
(lp558
g393
asbag53
(g74
g55
NtRp559
(dp560
g58
(dp561
g85
g86
ssg67
g551
sg60
(lp562
S':'
asbag53
(g74
g55
NtRp563
(dp564
g58
(dp565
sg67
g551
sg60
(lp566
g53
(g54
g55
NtRp567
(dp568
g58
(dp569
g66
I3
ssg67
g563
sg60
(lp570
S''
asbasbasbasbasbasbasbag53
(g69
g55
NtRp571
(dp572
g58
(dp573
sg67
g230
sg60
(lp574
g53
(g74
g55
NtRp575
(dp576
g58
(dp577
g78
g79
ssg67
g571
sg60
(lp578
S'session_id_welcome'
p579
asbag53
(g74
g55
NtRp580
(dp581
g58
(dp582
g85
g86
ssg67
g571
sg60
(lp583
S':'
asbag53
(g74
g55
NtRp584
(dp585
g58
(dp586
sg67
g571
sg60
(lp587
g53
(g54
g55
NtRp588
(dp589
g58
(dp590
g66
I4
ssg67
g584
sg60
(lp591
g53
(g62
g55
NtRp592
(dp593
g58
(dp594
g66
I3
ssg67
Nsg60
(lp595
g53
(g69
g55
NtRp596
(dp597
g58
(dp598
sg67
g592
sg60
(lp599
g53
(g74
g55
NtRp600
(dp601
g58
(dp602
g78
g79
ssg67
g596
sg60
(lp603
g267
asbag53
(g74
g55
NtRp604
(dp605
g58
(dp606
g85
g86
ssg67
g596
sg60
(lp607
S':'
asbag53
(g74
g55
NtRp608
(dp609
g58
(dp610
sg67
g596
sg60
(lp611
g53
(g54
g55
NtRp612
(dp613
g58
(dp614
g66
I3
ssg67
g608
sg60
(lp615
S''
asbasbasbag53
(g69
g55
NtRp616
(dp617
g58
(dp618
sg67
g592
sg60
(lp619
g53
(g74
g55
NtRp620
(dp621
g58
(dp622
g78
g79
ssg67
g616
sg60
(lp623
g288
asbag53
(g74
g55
NtRp624
(dp625
g58
(dp626
g85
g86
ssg67
g616
sg60
(lp627
S':'
asbag53
(g74
g55
NtRp628
(dp629
g58
(dp630
sg67
g616
sg60
(lp631
g53
(g54
g55
NtRp632
(dp633
g58
(dp634
g66
I3
ssg67
g628
sg60
(lp635
S''
asbasbasbag53
(g69
g55
NtRp636
(dp637
g58
(dp638
sg67
g592
sg60
(lp639
g53
(g74
g55
NtRp640
(dp641
g58
(dp642
g78
g79
ssg67
g636
sg60
(lp643
g309
asbag53
(g74
g55
NtRp644
(dp645
g58
(dp646
g85
g86
ssg67
g636
sg60
(lp647
S':'
asbag53
(g74
g55
NtRp648
(dp649
g58
(dp650
sg67
g636
sg60
(lp651
g53
(g54
g55
NtRp652
(dp653
g58
(dp654
g66
I3
ssg67
g648
sg60
(lp655
S''
asbasbasbag53
(g69
g55
NtRp656
(dp657
g58
(dp658
sg67
g592
sg60
(lp659
g53
(g74
g55
NtRp660
(dp661
g58
(dp662
g78
g79
ssg67
g656
sg60
(lp663
g330
asbag53
(g74
g55
NtRp664
(dp665
g58
(dp666
g85
g86
ssg67
g656
sg60
(lp667
S':'
asbag53
(g74
g55
NtRp668
(dp669
g58
(dp670
sg67
g656
sg60
(lp671
g53
(g54
g55
NtRp672
(dp673
g58
(dp674
g66
I3
ssg67
g668
sg60
(lp675
S''
asbasbasbag53
(g69
g55
NtRp676
(dp677
g58
(dp678
sg67
g592
sg60
(lp679
g53
(g74
g55
NtRp680
(dp681
g58
(dp682
g78
g79
ssg67
g676
sg60
(lp683
g351
asbag53
(g74
g55
NtRp684
(dp685
g58
(dp686
g85
g86
ssg67
g676
sg60
(lp687
S':'
asbag53
(g74
g55
NtRp688
(dp689
g58
(dp690
sg67
g676
sg60
(lp691
g53
(g54
g55
NtRp692
(dp693
g58
(dp694
g66
I3
ssg67
g688
sg60
(lp695
S''
asbasbasbag53
(g69
g55
NtRp696
(dp697
g58
(dp698
sg67
g592
sg60
(lp699
g53
(g74
g55
NtRp700
(dp701
g58
(dp702
g78
g79
ssg67
g696
sg60
(lp703
g372
asbag53
(g74
g55
NtRp704
(dp705
g58
(dp706
g85
g86
ssg67
g696
sg60
(lp707
S':'
asbag53
(g74
g55
NtRp708
(dp709
g58
(dp710
sg67
g696
sg60
(lp711
g53
(g54
g55
NtRp712
(dp713
g58
(dp714
g66
I3
ssg67
g708
sg60
(lp715
S''
asbasbasbag53
(g69
g55
NtRp716
(dp717
g58
(dp718
sg67
g592
sg60
(lp719
g53
(g74
g55
NtRp720
(dp721
g58
(dp722
g78
g79
ssg67
g716
sg60
(lp723
g393
asbag53
(g74
g55
NtRp724
(dp725
g58
(dp726
g85
g86
ssg67
g716
sg60
(lp727
S':'
asbag53
(g74
g55
NtRp728
(dp729
g58
(dp730
sg67
g716
sg60
(lp731
g53
(g54
g55
NtRp732
(dp733
g58
(dp734
g66
I3
ssg67
g728
sg60
(lp735
S''
asbasbasbasbasbasbasbasbasbasbasbag53
(g69
g55
NtRp736
(dp737
g58
(dp738
sg67
g63
sg60
(lp739
g53
(g74
g55
NtRp740
(dp741
g58
(dp742
g78
g79
ssg67
g736
sg60
(lp743
S'env'
p744
asbag53
(g74
g55
NtRp745
(dp746
g58
(dp747
g85
g86
ssg67
g736
sg60
(lp748
S':'
asbag53
(g74
g55
NtRp749
(dp750
g58
(dp751
sg67
g736
sg60
(lp752
g53
(g54
g55
NtRp753
(dp754
g58
(dp755
g66
I5
ssg67
g749
sg60
(lp756
g53
(g62
g55
NtRp757
(dp758
g58
(dp759
g66
I4
ssg67
Nsg60
(lp760
g53
(g69
g55
NtRp761
(dp762
g58
(dp763
sg67
g757
sg60
(lp764
g53
(g74
g55
NtRp765
(dp766
g58
(dp767
g78
g79
ssg67
g761
sg60
(lp768
S'app_folders'
p769
asbag53
(g74
g55
NtRp770
(dp771
g58
(dp772
g85
g86
ssg67
g761
sg60
(lp773
S':'
asbag53
(g74
g55
NtRp774
(dp775
g58
(dp776
sg67
g761
sg60
(lp777
g53
(g54
g55
NtRp778
(dp779
g58
(dp780
g66
I4
ssg67
g774
sg60
(lp781
S"set(['C:\\\\Users\\\\ceasbpi\\\\Dropbox\\\\web2py\\\\applications\\\\admin\\\\', 'C:\\\\Users\\\\ceasbpi\\\\Dropbox\\\\web2py\\\\applications\\\\IguassuPass\\\\', 'C:\\\\Users\\\\ceasbpi\\\\Dropbox\\\\web2py\\\\applications\\\\iguassupass\\\\', 'C:\\\\Users\\\\ceasbpi\\\\Dropbox\\\\web2py\\\\applications\\\\welcome\\\\'])"
p782
asbasbasbag53
(g69
g55
NtRp783
(dp784
g58
(dp785
sg67
g757
sg60
(lp786
g53
(g74
g55
NtRp787
(dp788
g58
(dp789
g78
g79
ssg67
g783
sg60
(lp790
S'applications_parent'
p791
asbag53
(g74
g55
NtRp792
(dp793
g58
(dp794
g85
g86
ssg67
g783
sg60
(lp795
S':'
asbag53
(g74
g55
NtRp796
(dp797
g58
(dp798
sg67
g783
sg60
(lp799
g53
(g54
g55
NtRp800
(dp801
g58
(dp802
g66
I4
ssg67
g796
sg60
(lp803
S'C:\\Users\\ceasbpi\\Dropbox\\web2py'
p804
asbasbasbag53
(g69
g55
NtRp805
(dp806
g58
(dp807
sg67
g757
sg60
(lp808
g53
(g74
g55
NtRp809
(dp810
g58
(dp811
g78
g79
ssg67
g805
sg60
(lp812
S'cmd_args'
p813
asbag53
(g74
g55
NtRp814
(dp815
g58
(dp816
g85
g86
ssg67
g805
sg60
(lp817
S':'
asbag53
(g74
g55
NtRp818
(dp819
g58
(dp820
sg67
g805
sg60
(lp821
g53
(g54
g55
NtRp822
(dp823
g58
(dp824
g66
I4
ssg67
g818
sg60
(lp825
g53
(g62
g55
NtRp826
(dp827
g58
(dp828
g66
I3
ssg67
Nsg60
(lp829
sbasbasbasbag53
(g69
g55
NtRp830
(dp831
g58
(dp832
sg67
g757
sg60
(lp833
g53
(g74
g55
NtRp834
(dp835
g58
(dp836
g78
g79
ssg67
g830
sg60
(lp837
S'cmd_options'
p838
asbag53
(g74
g55
NtRp839
(dp840
g58
(dp841
g85
g86
ssg67
g830
sg60
(lp842
S':'
asbag53
(g74
g55
NtRp843
(dp844
g58
(dp845
sg67
g830
sg60
(lp846
g53
(g54
g55
NtRp847
(dp848
g58
(dp849
g66
I4
ssg67
g843
sg60
(lp850
S"<Values at 0x30fdfd0: {'verbose': False, 'ip': '127.0.0.1', 'shutdown_timeout': 5, 'taskbar': False, 'nocron': False, 'pid_filename': 'httpserver.pid', 'maxthreads': None, 'softcron': False, 'server_name': 'W15869', 'bpython': False, 'nogui': False, 'port': 8000, 'extcron': False, 'debuglevel': 30, 'test': None, 'folder': 'C:\\\\Users\\\\ceasbpi\\\\Dropbox\\\\web2py', 'config': '', 'import_models': False, 'winservice': '', 'shell': None, 'run': '', 'log_filename': 'httpserver.log', 'args': [''], 'socket_timeout': 5, 'ssl_ca_certificate': None, 'scheduler': None, 'profiler_filename': None, 'ssl_private_key': '', 'password': '<ask>', 'request_queue_size': 5, 'ssl_certificate': '', 'cronjob': False, 'numthreads': None, 'quiet': False, 'interfaces': None, 'minthreads': None, 'timeout': 10, 'plain': False, 'nobanner': False}>"
p851
asbasbasbag53
(g69
g55
NtRp852
(dp853
g58
(dp854
sg67
g757
sg60
(lp855
g53
(g74
g55
NtRp856
(dp857
g58
(dp858
g78
g79
ssg67
g852
sg60
(lp859
S'db_sessions'
p860
asbag53
(g74
g55
NtRp861
(dp862
g58
(dp863
g85
g86
ssg67
g852
sg60
(lp864
S':'
asbag53
(g74
g55
NtRp865
(dp866
g58
(dp867
sg67
g852
sg60
(lp868
g53
(g54
g55
NtRp869
(dp870
g58
(dp871
g66
I4
ssg67
g865
sg60
(lp872
S'set([])'
p873
asbasbasbag53
(g69
g55
NtRp874
(dp875
g58
(dp876
sg67
g757
sg60
(lp877
g53
(g74
g55
NtRp878
(dp879
g58
(dp880
g78
g79
ssg67
g874
sg60
(lp881
S'debugging'
p882
asbag53
(g74
g55
NtRp883
(dp884
g58
(dp885
g85
g86
ssg67
g874
sg60
(lp886
S':'
asbag53
(g74
g55
NtRp887
(dp888
g58
(dp889
sg67
g874
sg60
(lp890
g53
(g54
g55
NtRp891
(dp892
g58
(dp893
g66
I4
ssg67
g887
sg60
(lp894
g96
asbasbasbag53
(g69
g55
NtRp895
(dp896
g58
(dp897
sg67
g757
sg60
(lp898
g53
(g74
g55
NtRp899
(dp900
g58
(dp901
g78
g79
ssg67
g895
sg60
(lp902
S'gluon_parent'
p903
asbag53
(g74
g55
NtRp904
(dp905
g58
(dp906
g85
g86
ssg67
g895
sg60
(lp907
S':'
asbag53
(g74
g55
NtRp908
(dp909
g58
(dp910
sg67
g895
sg60
(lp911
g53
(g54
g55
NtRp912
(dp913
g58
(dp914
g66
I4
ssg67
g908
sg60
(lp915
S'C:\\Users\\ceasbpi\\Dropbox\\web2py'
p916
asbasbasbag53
(g69
g55
NtRp917
(dp918
g58
(dp919
sg67
g757
sg60
(lp920
g53
(g74
g55
NtRp921
(dp922
g58
(dp923
g78
g79
ssg67
g917
sg60
(lp924
S'http_accept'
p925
asbag53
(g74
g55
NtRp926
(dp927
g58
(dp928
g85
g86
ssg67
g917
sg60
(lp929
S':'
asbag53
(g74
g55
NtRp930
(dp931
g58
(dp932
sg67
g917
sg60
(lp933
g53
(g54
g55
NtRp934
(dp935
g58
(dp936
g66
I4
ssg67
g930
sg60
(lp937
S'text/html,application/xhtml+xml,application/xml;q=0.9,*/*;q=0.8'
p938
asbasbasbag53
(g69
g55
NtRp939
(dp940
g58
(dp941
sg67
g757
sg60
(lp942
g53
(g74
g55
NtRp943
(dp944
g58
(dp945
g78
g79
ssg67
g939
sg60
(lp946
S'http_accept_charset'
p947
asbag53
(g74
g55
NtRp948
(dp949
g58
(dp950
g85
g86
ssg67
g939
sg60
(lp951
S':'
asbag53
(g74
g55
NtRp952
(dp953
g58
(dp954
sg67
g939
sg60
(lp955
g53
(g54
g55
NtRp956
(dp957
g58
(dp958
g66
I4
ssg67
g952
sg60
(lp959
S'ISO-8859-1,utf-8;q=0.7,*;q=0.3'
p960
asbasbasbag53
(g69
g55
NtRp961
(dp962
g58
(dp963
sg67
g757
sg60
(lp964
g53
(g74
g55
NtRp965
(dp966
g58
(dp967
g78
g79
ssg67
g961
sg60
(lp968
S'http_accept_encoding'
p969
asbag53
(g74
g55
NtRp970
(dp971
g58
(dp972
g85
g86
ssg67
g961
sg60
(lp973
S':'
asbag53
(g74
g55
NtRp974
(dp975
g58
(dp976
sg67
g961
sg60
(lp977
g53
(g54
g55
NtRp978
(dp979
g58
(dp980
g66
I4
ssg67
g974
sg60
(lp981
S'gzip,deflate,sdch'
p982
asbasbasbag53
(g69
g55
NtRp983
(dp984
g58
(dp985
sg67
g757
sg60
(lp986
g53
(g74
g55
NtRp987
(dp988
g58
(dp989
g78
g79
ssg67
g983
sg60
(lp990
S'http_accept_language'
p991
asbag53
(g74
g55
NtRp992
(dp993
g58
(dp994
g85
g86
ssg67
g983
sg60
(lp995
S':'
asbag53
(g74
g55
NtRp996
(dp997
g58
(dp998
sg67
g983
sg60
(lp999
g53
(g54
g55
NtRp1000
(dp1001
g58
(dp1002
g66
I4
ssg67
g996
sg60
(lp1003
S'pt-BR,pt;q=0.8,en-US;q=0.6,en;q=0.4'
p1004
asbasbasbag53
(g69
g55
NtRp1005
(dp1006
g58
(dp1007
sg67
g757
sg60
(lp1008
g53
(g74
g55
NtRp1009
(dp1010
g58
(dp1011
g78
g79
ssg67
g1005
sg60
(lp1012
S'http_connection'
p1013
asbag53
(g74
g55
NtRp1014
(dp1015
g58
(dp1016
g85
g86
ssg67
g1005
sg60
(lp1017
S':'
asbag53
(g74
g55
NtRp1018
(dp1019
g58
(dp1020
sg67
g1005
sg60
(lp1021
g53
(g54
g55
NtRp1022
(dp1023
g58
(dp1024
g66
I4
ssg67
g1018
sg60
(lp1025
S'keep-alive'
p1026
asbasbasbag53
(g69
g55
NtRp1027
(dp1028
g58
(dp1029
sg67
g757
sg60
(lp1030
g53
(g74
g55
NtRp1031
(dp1032
g58
(dp1033
g78
g79
ssg67
g1027
sg60
(lp1034
S'http_cookie'
p1035
asbag53
(g74
g55
NtRp1036
(dp1037
g58
(dp1038
g85
g86
ssg67
g1027
sg60
(lp1039
S':'
asbag53
(g74
g55
NtRp1040
(dp1041
g58
(dp1042
sg67
g1027
sg60
(lp1043
g53
(g54
g55
NtRp1044
(dp1045
g58
(dp1046
g66
I4
ssg67
g1040
sg60
(lp1047
S'session_id_welcome=127.0.0.1-841022b0-55e3-4081-b637-d1f9630f75df; session_id_iguassupass=127.0.0.1-0ebf5fce-933e-4652-8d87-32a636575dba; session_id_admin=127.0.0.1-e8923c4c-4d6b-4628-962e-b272279de14c'
p1048
asbasbasbag53
(g69
g55
NtRp1049
(dp1050
g58
(dp1051
sg67
g757
sg60
(lp1052
g53
(g74
g55
NtRp1053
(dp1054
g58
(dp1055
g78
g79
ssg67
g1049
sg60
(lp1056
S'http_host'
p1057
asbag53
(g74
g55
NtRp1058
(dp1059
g58
(dp1060
g85
g86
ssg67
g1049
sg60
(lp1061
S':'
asbag53
(g74
g55
NtRp1062
(dp1063
g58
(dp1064
sg67
g1049
sg60
(lp1065
g53
(g54
g55
NtRp1066
(dp1067
g58
(dp1068
g66
I4
ssg67
g1062
sg60
(lp1069
S'localhost:8000'
p1070
asbasbasbag53
(g69
g55
NtRp1071
(dp1072
g58
(dp1073
sg67
g757
sg60
(lp1074
g53
(g74
g55
NtRp1075
(dp1076
g58
(dp1077
g78
g79
ssg67
g1071
sg60
(lp1078
S'http_referer'
p1079
asbag53
(g74
g55
NtRp1080
(dp1081
g58
(dp1082
g85
g86
ssg67
g1071
sg60
(lp1083
S':'
asbag53
(g74
g55
NtRp1084
(dp1085
g58
(dp1086
sg67
g1071
sg60
(lp1087
g53
(g54
g55
NtRp1088
(dp1089
g58
(dp1090
g66
I4
ssg67
g1084
sg60
(lp1091
S'http://localhost:8000/admin/default/design/IguassuPass'
p1092
asbasbasbag53
(g69
g55
NtRp1093
(dp1094
g58
(dp1095
sg67
g757
sg60
(lp1096
g53
(g74
g55
NtRp1097
(dp1098
g58
(dp1099
g78
g79
ssg67
g1093
sg60
(lp1100
S'http_user_agent'
p1101
asbag53
(g74
g55
NtRp1102
(dp1103
g58
(dp1104
g85
g86
ssg67
g1093
sg60
(lp1105
S':'
asbag53
(g74
g55
NtRp1106
(dp1107
g58
(dp1108
sg67
g1093
sg60
(lp1109
g53
(g54
g55
NtRp1110
(dp1111
g58
(dp1112
g66
I4
ssg67
g1106
sg60
(lp1113
S'Mozilla/5.0 (Windows NT 6.1; WOW64) AppleWebKit/537.1 (KHTML, like Gecko) Chrome/21.0.1180.83 Safari/537.1'
p1114
asbasbasbag53
(g69
g55
NtRp1115
(dp1116
g58
(dp1117
sg67
g757
sg60
(lp1118
g53
(g74
g55
NtRp1119
(dp1120
g58
(dp1121
g78
g79
ssg67
g1115
sg60
(lp1122
S'is_jython'
p1123
asbag53
(g74
g55
NtRp1124
(dp1125
g58
(dp1126
g85
g86
ssg67
g1115
sg60
(lp1127
S':'
asbag53
(g74
g55
NtRp1128
(dp1129
g58
(dp1130
sg67
g1115
sg60
(lp1131
g53
(g54
g55
NtRp1132
(dp1133
g58
(dp1134
g66
I4
ssg67
g1128
sg60
(lp1135
g96
asbasbasbag53
(g69
g55
NtRp1136
(dp1137
g58
(dp1138
sg67
g757
sg60
(lp1139
g53
(g74
g55
NtRp1140
(dp1141
g58
(dp1142
g78
g79
ssg67
g1136
sg60
(lp1143
S'is_pypy'
p1144
asbag53
(g74
g55
NtRp1145
(dp1146
g58
(dp1147
g85
g86
ssg67
g1136
sg60
(lp1148
S':'
asbag53
(g74
g55
NtRp1149
(dp1150
g58
(dp1151
sg67
g1136
sg60
(lp1152
g53
(g54
g55
NtRp1153
(dp1154
g58
(dp1155
g66
I4
ssg67
g1149
sg60
(lp1156
g96
asbasbasbag53
(g69
g55
NtRp1157
(dp1158
g58
(dp1159
sg67
g757
sg60
(lp1160
g53
(g74
g55
NtRp1161
(dp1162
g58
(dp1163
g78
g79
ssg67
g1157
sg60
(lp1164
S'path_info'
p1165
asbag53
(g74
g55
NtRp1166
(dp1167
g58
(dp1168
g85
g86
ssg67
g1157
sg60
(lp1169
S':'
asbag53
(g74
g55
NtRp1170
(dp1171
g58
(dp1172
sg67
g1157
sg60
(lp1173
g53
(g54
g55
NtRp1174
(dp1175
g58
(dp1176
g66
I4
ssg67
g1170
sg60
(lp1177
S'/IguassuPass/appadmin/index'
p1178
asbasbasbag53
(g69
g55
NtRp1179
(dp1180
g58
(dp1181
sg67
g757
sg60
(lp1182
g53
(g74
g55
NtRp1183
(dp1184
g58
(dp1185
g78
g79
ssg67
g1179
sg60
(lp1186
S'query_string'
p1187
asbag53
(g74
g55
NtRp1188
(dp1189
g58
(dp1190
g85
g86
ssg67
g1179
sg60
(lp1191
S':'
asbag53
(g74
g55
NtRp1192
(dp1193
g58
(dp1194
sg67
g1179
sg60
(lp1195
g53
(g54
g55
NtRp1196
(dp1197
g58
(dp1198
g66
I4
ssg67
g1192
sg60
(lp1199
S''
asbasbasbag53
(g69
g55
NtRp1200
(dp1201
g58
(dp1202
sg67
g757
sg60
(lp1203
g53
(g74
g55
NtRp1204
(dp1205
g58
(dp1206
g78
g79
ssg67
g1200
sg60
(lp1207
S'remote_addr'
p1208
asbag53
(g74
g55
NtRp1209
(dp1210
g58
(dp1211
g85
g86
ssg67
g1200
sg60
(lp1212
S':'
asbag53
(g74
g55
NtRp1213
(dp1214
g58
(dp1215
sg67
g1200
sg60
(lp1216
g53
(g54
g55
NtRp1217
(dp1218
g58
(dp1219
g66
I4
ssg67
g1213
sg60
(lp1220
g186
asbasbasbag53
(g69
g55
NtRp1221
(dp1222
g58
(dp1223
sg67
g757
sg60
(lp1224
g53
(g74
g55
NtRp1225
(dp1226
g58
(dp1227
g78
g79
ssg67
g1221
sg60
(lp1228
S'remote_port'
p1229
asbag53
(g74
g55
NtRp1230
(dp1231
g58
(dp1232
g85
g86
ssg67
g1221
sg60
(lp1233
S':'
asbag53
(g74
g55
NtRp1234
(dp1235
g58
(dp1236
sg67
g1221
sg60
(lp1237
g53
(g54
g55
NtRp1238
(dp1239
g58
(dp1240
g66
I4
ssg67
g1234
sg60
(lp1241
S'51197'
p1242
asbasbasbag53
(g69
g55
NtRp1243
(dp1244
g58
(dp1245
sg67
g757
sg60
(lp1246
g53
(g74
g55
NtRp1247
(dp1248
g58
(dp1249
g78
g79
ssg67
g1243
sg60
(lp1250
S'request_method'
p1251
asbag53
(g74
g55
NtRp1252
(dp1253
g58
(dp1254
g85
g86
ssg67
g1243
sg60
(lp1255
S':'
asbag53
(g74
g55
NtRp1256
(dp1257
g58
(dp1258
sg67
g1243
sg60
(lp1259
g53
(g54
g55
NtRp1260
(dp1261
g58
(dp1262
g66
I4
ssg67
g1256
sg60
(lp1263
S'GET'
p1264
asbasbasbag53
(g69
g55
NtRp1265
(dp1266
g58
(dp1267
sg67
g757
sg60
(lp1268
g53
(g74
g55
NtRp1269
(dp1270
g58
(dp1271
g78
g79
ssg67
g1265
sg60
(lp1272
S'script_name'
p1273
asbag53
(g74
g55
NtRp1274
(dp1275
g58
(dp1276
g85
g86
ssg67
g1265
sg60
(lp1277
S':'
asbag53
(g74
g55
NtRp1278
(dp1279
g58
(dp1280
sg67
g1265
sg60
(lp1281
g53
(g54
g55
NtRp1282
(dp1283
g58
(dp1284
g66
I4
ssg67
g1278
sg60
(lp1285
S''
asbasbasbag53
(g69
g55
NtRp1286
(dp1287
g58
(dp1288
sg67
g757
sg60
(lp1289
g53
(g74
g55
NtRp1290
(dp1291
g58
(dp1292
g78
g79
ssg67
g1286
sg60
(lp1293
S'server_name'
p1294
asbag53
(g74
g55
NtRp1295
(dp1296
g58
(dp1297
g85
g86
ssg67
g1286
sg60
(lp1298
S':'
asbag53
(g74
g55
NtRp1299
(dp1300
g58
(dp1301
sg67
g1286
sg60
(lp1302
g53
(g54
g55
NtRp1303
(dp1304
g58
(dp1305
g66
I4
ssg67
g1299
sg60
(lp1306
S'W15869'
p1307
asbasbasbag53
(g69
g55
NtRp1308
(dp1309
g58
(dp1310
sg67
g757
sg60
(lp1311
g53
(g74
g55
NtRp1312
(dp1313
g58
(dp1314
g78
g79
ssg67
g1308
sg60
(lp1315
S'server_port'
p1316
asbag53
(g74
g55
NtRp1317
(dp1318
g58
(dp1319
g85
g86
ssg67
g1308
sg60
(lp1320
S':'
asbag53
(g74
g55
NtRp1321
(dp1322
g58
(dp1323
sg67
g1308
sg60
(lp1324
g53
(g54
g55
NtRp1325
(dp1326
g58
(dp1327
g66
I4
ssg67
g1321
sg60
(lp1328
S'8000'
p1329
asbasbasbag53
(g69
g55
NtRp1330
(dp1331
g58
(dp1332
sg67
g757
sg60
(lp1333
g53
(g74
g55
NtRp1334
(dp1335
g58
(dp1336
g78
g79
ssg67
g1330
sg60
(lp1337
S'server_protocol'
p1338
asbag53
(g74
g55
NtRp1339
(dp1340
g58
(dp1341
g85
g86
ssg67
g1330
sg60
(lp1342
S':'
asbag53
(g74
g55
NtRp1343
(dp1344
g58
(dp1345
sg67
g1330
sg60
(lp1346
g53
(g54
g55
NtRp1347
(dp1348
g58
(dp1349
g66
I4
ssg67
g1343
sg60
(lp1350
S'HTTP/1.1'
p1351
asbasbasbag53
(g69
g55
NtRp1352
(dp1353
g58
(dp1354
sg67
g757
sg60
(lp1355
g53
(g74
g55
NtRp1356
(dp1357
g58
(dp1358
g78
g79
ssg67
g1352
sg60
(lp1359
S'server_software'
p1360
asbag53
(g74
g55
NtRp1361
(dp1362
g58
(dp1363
g85
g86
ssg67
g1352
sg60
(lp1364
S':'
asbag53
(g74
g55
NtRp1365
(dp1366
g58
(dp1367
sg67
g1352
sg60
(lp1368
g53
(g54
g55
NtRp1369
(dp1370
g58
(dp1371
g66
I4
ssg67
g1365
sg60
(lp1372
S'Rocket 1.2.4'
p1373
asbasbasbag53
(g69
g55
NtRp1374
(dp1375
g58
(dp1376
sg67
g757
sg60
(lp1377
g53
(g74
g55
NtRp1378
(dp1379
g58
(dp1380
g78
g79
ssg67
g1374
sg60
(lp1381
S'web2py_crontype'
p1382
asbag53
(g74
g55
NtRp1383
(dp1384
g58
(dp1385
g85
g86
ssg67
g1374
sg60
(lp1386
S':'
asbag53
(g74
g55
NtRp1387
(dp1388
g58
(dp1389
sg67
g1374
sg60
(lp1390
g53
(g54
g55
NtRp1391
(dp1392
g58
(dp1393
g66
I4
ssg67
g1387
sg60
(lp1394
S'hard'
p1395
asbasbasbag53
(g69
g55
NtRp1396
(dp1397
g58
(dp1398
sg67
g757
sg60
(lp1399
g53
(g74
g55
NtRp1400
(dp1401
g58
(dp1402
g78
g79
ssg67
g1396
sg60
(lp1403
S'web2py_path'
p1404
asbag53
(g74
g55
NtRp1405
(dp1406
g58
(dp1407
g85
g86
ssg67
g1396
sg60
(lp1408
S':'
asbag53
(g74
g55
NtRp1409
(dp1410
g58
(dp1411
sg67
g1396
sg60
(lp1412
g53
(g54
g55
NtRp1413
(dp1414
g58
(dp1415
g66
I4
ssg67
g1409
sg60
(lp1416
g804
asbasbasbag53
(g69
g55
NtRp1417
(dp1418
g58
(dp1419
sg67
g757
sg60
(lp1420
g53
(g74
g55
NtRp1421
(dp1422
g58
(dp1423
g78
g79
ssg67
g1417
sg60
(lp1424
S'web2py_version'
p1425
asbag53
(g74
g55
NtRp1426
(dp1427
g58
(dp1428
g85
g86
ssg67
g1417
sg60
(lp1429
S':'
asbag53
(g74
g55
NtRp1430
(dp1431
g58
(dp1432
sg67
g1417
sg60
(lp1433
g53
(g54
g55
NtRp1434
(dp1435
g58
(dp1436
g66
I4
ssg67
g1430
sg60
(lp1437
g53
(g62
g55
NtRp1438
(dp1439
g58
(dp1440
g66
I3
ssg67
Nsg60
(lp1441
g53
(g69
g55
NtRp1442
(dp1443
g58
(dp1444
sg67
g1438
sg60
(lp1445
g53
(g74
g55
NtRp1446
(dp1447
g58
(dp1448
sg67
g1442
sg60
(lp1449
g53
(g54
g55
NtRp1450
(dp1451
g58
(dp1452
g66
I3
ssg67
g1446
sg60
(lp1453
S'1'
asbasbasbag53
(g69
g55
NtRp1454
(dp1455
g58
(dp1456
sg67
g1438
sg60
(lp1457
g53
(g74
g55
NtRp1458
(dp1459
g58
(dp1460
sg67
g1454
sg60
(lp1461
g53
(g54
g55
NtRp1462
(dp1463
g58
(dp1464
g66
I3
ssg67
g1458
sg60
(lp1465
S'99'
p1466
asbasbasbag53
(g69
g55
NtRp1467
(dp1468
g58
(dp1469
sg67
g1438
sg60
(lp1470
g53
(g74
g55
NtRp1471
(dp1472
g58
(dp1473
sg67
g1467
sg60
(lp1474
g53
(g54
g55
NtRp1475
(dp1476
g58
(dp1477
g66
I3
ssg67
g1471
sg60
(lp1478
S'7'
asbasbasbag53
(g69
g55
NtRp1479
(dp1480
g58
(dp1481
sg67
g1438
sg60
(lp1482
g53
(g74
g55
NtRp1483
(dp1484
g58
(dp1485
sg67
g1479
sg60
(lp1486
g53
(g54
g55
NtRp1487
(dp1488
g58
(dp1489
g66
I3
ssg67
g1483
sg60
(lp1490
S'datetime.datetime(2012, 3, 4, 22, 12, 8)'
p1491
asbasbasbag53
(g69
g55
NtRp1492
(dp1493
g58
(dp1494
sg67
g1438
sg60
(lp1495
g53
(g74
g55
NtRp1496
(dp1497
g58
(dp1498
sg67
g1492
sg60
(lp1499
g53
(g54
g55
NtRp1500
(dp1501
g58
(dp1502
g66
I3
ssg67
g1496
sg60
(lp1503
S'stable'
p1504
asbasbasbasbasbasbasbag53
(g69
g55
NtRp1505
(dp1506
g58
(dp1507
sg67
g757
sg60
(lp1508
g53
(g74
g55
NtRp1509
(dp1510
g58
(dp1511
g78
g79
ssg67
g1505
sg60
(lp1512
S'wsgi_errors'
p1513
asbag53
(g74
g55
NtRp1514
(dp1515
g58
(dp1516
g85
g86
ssg67
g1505
sg60
(lp1517
S':'
asbag53
(g74
g55
NtRp1518
(dp1519
g58
(dp1520
sg67
g1505
sg60
(lp1521
g53
(g54
g55
NtRp1522
(dp1523
g58
(dp1524
g66
I4
ssg67
g1518
sg60
(lp1525
S"<open file '<stderr>', mode 'w' at 0x004200B0>"
p1526
asbasbasbag53
(g69
g55
NtRp1527
(dp1528
g58
(dp1529
sg67
g757
sg60
(lp1530
g53
(g74
g55
NtRp1531
(dp1532
g58
(dp1533
g78
g79
ssg67
g1527
sg60
(lp1534
S'wsgi_file_wrapper'
p1535
asbag53
(g74
g55
NtRp1536
(dp1537
g58
(dp1538
g85
g86
ssg67
g1527
sg60
(lp1539
S':'
asbag53
(g74
g55
NtRp1540
(dp1541
g58
(dp1542
sg67
g1527
sg60
(lp1543
g53
(g54
g55
NtRp1544
(dp1545
g58
(dp1546
g66
I4
ssg67
g1540
sg60
(lp1547
S'<class wsgiref.util.FileWrapper at 0x02E6D360>'
p1548
asbasbasbag53
(g69
g55
NtRp1549
(dp1550
g58
(dp1551
sg67
g757
sg60
(lp1552
g53
(g74
g55
NtRp1553
(dp1554
g58
(dp1555
g78
g79
ssg67
g1549
sg60
(lp1556
S'wsgi_input'
p1557
asbag53
(g74
g55
NtRp1558
(dp1559
g58
(dp1560
g85
g86
ssg67
g1549
sg60
(lp1561
S':'
asbag53
(g74
g55
NtRp1562
(dp1563
g58
(dp1564
sg67
g1549
sg60
(lp1565
g53
(g54
g55
NtRp1566
(dp1567
g58
(dp1568
g66
I4
ssg67
g1562
sg60
(lp1569
S'<socket._fileobject object at 0x07213BF0>'
p1570
asbasbasbag53
(g69
g55
NtRp1571
(dp1572
g58
(dp1573
sg67
g757
sg60
(lp1574
g53
(g74
g55
NtRp1575
(dp1576
g58
(dp1577
g78
g79
ssg67
g1571
sg60
(lp1578
S'wsgi_multiprocess'
p1579
asbag53
(g74
g55
NtRp1580
(dp1581
g58
(dp1582
g85
g86
ssg67
g1571
sg60
(lp1583
S':'
asbag53
(g74
g55
NtRp1584
(dp1585
g58
(dp1586
sg67
g1571
sg60
(lp1587
g53
(g54
g55
NtRp1588
(dp1589
g58
(dp1590
g66
I4
ssg67
g1584
sg60
(lp1591
g96
asbasbasbag53
(g69
g55
NtRp1592
(dp1593
g58
(dp1594
sg67
g757
sg60
(lp1595
g53
(g74
g55
NtRp1596
(dp1597
g58
(dp1598
g78
g79
ssg67
g1592
sg60
(lp1599
S'wsgi_multithread'
p1600
asbag53
(g74
g55
NtRp1601
(dp1602
g58
(dp1603
g85
g86
ssg67
g1592
sg60
(lp1604
S':'
asbag53
(g74
g55
NtRp1605
(dp1606
g58
(dp1607
sg67
g1592
sg60
(lp1608
g53
(g54
g55
NtRp1609
(dp1610
g58
(dp1611
g66
I4
ssg67
g1605
sg60
(lp1612
S'True'
p1613
asbasbasbag53
(g69
g55
NtRp1614
(dp1615
g58
(dp1616
sg67
g757
sg60
(lp1617
g53
(g74
g55
NtRp1618
(dp1619
g58
(dp1620
g78
g79
ssg67
g1614
sg60
(lp1621
S'wsgi_run_once'
p1622
asbag53
(g74
g55
NtRp1623
(dp1624
g58
(dp1625
g85
g86
ssg67
g1614
sg60
(lp1626
S':'
asbag53
(g74
g55
NtRp1627
(dp1628
g58
(dp1629
sg67
g1614
sg60
(lp1630
g53
(g54
g55
NtRp1631
(dp1632
g58
(dp1633
g66
I4
ssg67
g1627
sg60
(lp1634
g96
asbasbasbag53
(g69
g55
NtRp1635
(dp1636
g58
(dp1637
sg67
g757
sg60
(lp1638
g53
(g74
g55
NtRp1639
(dp1640
g58
(dp1641
g78
g79
ssg67
g1635
sg60
(lp1642
S'wsgi_url_scheme'
p1643
asbag53
(g74
g55
NtRp1644
(dp1645
g58
(dp1646
g85
g86
ssg67
g1635
sg60
(lp1647
S':'
asbag53
(g74
g55
NtRp1648
(dp1649
g58
(dp1650
sg67
g1635
sg60
(lp1651
g53
(g54
g55
NtRp1652
(dp1653
g58
(dp1654
g66
I4
ssg67
g1648
sg60
(lp1655
S'http'
p1656
asbasbasbag53
(g69
g55
NtRp1657
(dp1658
g58
(dp1659
sg67
g757
sg60
(lp1660
g53
(g74
g55
NtRp1661
(dp1662
g58
(dp1663
g78
g79
ssg67
g1657
sg60
(lp1664
S'wsgi_version'
p1665
asbag53
(g74
g55
NtRp1666
(dp1667
g58
(dp1668
g85
g86
ssg67
g1657
sg60
(lp1669
S':'
asbag53
(g74
g55
NtRp1670
(dp1671
g58
(dp1672
sg67
g1657
sg60
(lp1673
g53
(g54
g55
NtRp1674
(dp1675
g58
(dp1676
g66
I4
ssg67
g1670
sg60
(lp1677
g53
(g62
g55
NtRp1678
(dp1679
g58
(dp1680
g66
I3
ssg67
Nsg60
(lp1681
g53
(g69
g55
NtRp1682
(dp1683
g58
(dp1684
sg67
g1678
sg60
(lp1685
g53
(g74
g55
NtRp1686
(dp1687
g58
(dp1688
sg67
g1682
sg60
(lp1689
g53
(g54
g55
NtRp1690
(dp1691
g58
(dp1692
g66
I3
ssg67
g1686
sg60
(lp1693
S'1'
asbasbasbag53
(g69
g55
NtRp1694
(dp1695
g58
(dp1696
sg67
g1678
sg60
(lp1697
g53
(g74
g55
NtRp1698
(dp1699
g58
(dp1700
sg67
g1694
sg60
(lp1701
g53
(g54
g55
NtRp1702
(dp1703
g58
(dp1704
g66
I3
ssg67
g1698
sg60
(lp1705
S'0'
asbasbasbasbasbasbasbasbasbasbasbag53
(g69
g55
NtRp1706
(dp1707
g58
(dp1708
sg67
g63
sg60
(lp1709
g53
(g74
g55
NtRp1710
(dp1711
g58
(dp1712
g78
g79
ssg67
g1706
sg60
(lp1713
S'extension'
p1714
asbag53
(g74
g55
NtRp1715
(dp1716
g58
(dp1717
g85
g86
ssg67
g1706
sg60
(lp1718
S':'
asbag53
(g74
g55
NtRp1719
(dp1720
g58
(dp1721
sg67
g1706
sg60
(lp1722
g53
(g54
g55
NtRp1723
(dp1724
g58
(dp1725
g66
I5
ssg67
g1719
sg60
(lp1726
S'html'
p1727
asbasbasbag53
(g69
g55
NtRp1728
(dp1729
g58
(dp1730
sg67
g63
sg60
(lp1731
g53
(g74
g55
NtRp1732
(dp1733
g58
(dp1734
g78
g79
ssg67
g1728
sg60
(lp1735
S'folder'
p1736
asbag53
(g74
g55
NtRp1737
(dp1738
g58
(dp1739
g85
g86
ssg67
g1728
sg60
(lp1740
S':'
asbag53
(g74
g55
NtRp1741
(dp1742
g58
(dp1743
sg67
g1728
sg60
(lp1744
g53
(g54
g55
NtRp1745
(dp1746
g58
(dp1747
g66
I5
ssg67
g1741
sg60
(lp1748
S'C:\\Users\\ceasbpi\\Dropbox\\web2py\\applications\\IguassuPass\\'
p1749
asbasbasbag53
(g69
g55
NtRp1750
(dp1751
g58
(dp1752
sg67
g63
sg60
(lp1753
g53
(g74
g55
NtRp1754
(dp1755
g58
(dp1756
g78
g79
ssg67
g1750
sg60
(lp1757
S'function'
p1758
asbag53
(g74
g55
NtRp1759
(dp1760
g58
(dp1761
g85
g86
ssg67
g1750
sg60
(lp1762
S':'
asbag53
(g74
g55
NtRp1763
(dp1764
g58
(dp1765
sg67
g1750
sg60
(lp1766
g53
(g54
g55
NtRp1767
(dp1768
g58
(dp1769
g66
I5
ssg67
g1763
sg60
(lp1770
S'index'
p1771
asbasbasbag53
(g69
g55
NtRp1772
(dp1773
g58
(dp1774
sg67
g63
sg60
(lp1775
g53
(g74
g55
NtRp1776
(dp1777
g58
(dp1778
g78
g79
ssg67
g1772
sg60
(lp1779
S'get_vars'
p1780
asbag53
(g74
g55
NtRp1781
(dp1782
g58
(dp1783
g85
g86
ssg67
g1772
sg60
(lp1784
S':'
asbag53
(g74
g55
NtRp1785
(dp1786
g58
(dp1787
sg67
g1772
sg60
(lp1788
g53
(g54
g55
NtRp1789
(dp1790
g58
(dp1791
g66
I5
ssg67
g1785
sg60
(lp1792
g53
(g62
g55
NtRp1793
(dp1794
g58
(dp1795
g66
I4
ssg67
Nsg60
(lp1796
sbasbasbasbag53
(g69
g55
NtRp1797
(dp1798
g58
(dp1799
sg67
g63
sg60
(lp1800
g53
(g74
g55
NtRp1801
(dp1802
g58
(dp1803
g78
g79
ssg67
g1797
sg60
(lp1804
S'global_settings'
p1805
asbag53
(g74
g55
NtRp1806
(dp1807
g58
(dp1808
g85
g86
ssg67
g1797
sg60
(lp1809
S':'
asbag53
(g74
g55
NtRp1810
(dp1811
g58
(dp1812
sg67
g1797
sg60
(lp1813
g53
(g54
g55
NtRp1814
(dp1815
g58
(dp1816
g66
I5
ssg67
g1810
sg60
(lp1817
g53
(g62
g55
NtRp1818
(dp1819
g58
(dp1820
g66
I4
ssg67
Nsg60
(lp1821
g53
(g69
g55
NtRp1822
(dp1823
g58
(dp1824
sg67
g1818
sg60
(lp1825
g53
(g74
g55
NtRp1826
(dp1827
g58
(dp1828
g78
g79
ssg67
g1822
sg60
(lp1829
g769
asbag53
(g74
g55
NtRp1830
(dp1831
g58
(dp1832
g85
g86
ssg67
g1822
sg60
(lp1833
S':'
asbag53
(g74
g55
NtRp1834
(dp1835
g58
(dp1836
sg67
g1822
sg60
(lp1837
g53
(g54
g55
NtRp1838
(dp1839
g58
(dp1840
g66
I4
ssg67
g1834
sg60
(lp1841
S"set(['C:\\\\Users\\\\ceasbpi\\\\Dropbox\\\\web2py\\\\applications\\\\admin\\\\', 'C:\\\\Users\\\\ceasbpi\\\\Dropbox\\\\web2py\\\\applications\\\\IguassuPass\\\\', 'C:\\\\Users\\\\ceasbpi\\\\Dropbox\\\\web2py\\\\applications\\\\iguassupass\\\\', 'C:\\\\Users\\\\ceasbpi\\\\Dropbox\\\\web2py\\\\applications\\\\welcome\\\\'])"
p1842
asbasbasbag53
(g69
g55
NtRp1843
(dp1844
g58
(dp1845
sg67
g1818
sg60
(lp1846
g53
(g74
g55
NtRp1847
(dp1848
g58
(dp1849
g78
g79
ssg67
g1843
sg60
(lp1850
g791
asbag53
(g74
g55
NtRp1851
(dp1852
g58
(dp1853
g85
g86
ssg67
g1843
sg60
(lp1854
S':'
asbag53
(g74
g55
NtRp1855
(dp1856
g58
(dp1857
sg67
g1843
sg60
(lp1858
g53
(g54
g55
NtRp1859
(dp1860
g58
(dp1861
g66
I4
ssg67
g1855
sg60
(lp1862
g804
asbasbasbag53
(g69
g55
NtRp1863
(dp1864
g58
(dp1865
sg67
g1818
sg60
(lp1866
g53
(g74
g55
NtRp1867
(dp1868
g58
(dp1869
g78
g79
ssg67
g1863
sg60
(lp1870
g813
asbag53
(g74
g55
NtRp1871
(dp1872
g58
(dp1873
g85
g86
ssg67
g1863
sg60
(lp1874
S':'
asbag53
(g74
g55
NtRp1875
(dp1876
g58
(dp1877
sg67
g1863
sg60
(lp1878
g53
(g54
g55
NtRp1879
(dp1880
g58
(dp1881
g66
I4
ssg67
g1875
sg60
(lp1882
g53
(g62
g55
NtRp1883
(dp1884
g58
(dp1885
g66
I3
ssg67
Nsg60
(lp1886
sbasbasbasbag53
(g69
g55
NtRp1887
(dp1888
g58
(dp1889
sg67
g1818
sg60
(lp1890
g53
(g74
g55
NtRp1891
(dp1892
g58
(dp1893
g78
g79
ssg67
g1887
sg60
(lp1894
g838
asbag53
(g74
g55
NtRp1895
(dp1896
g58
(dp1897
g85
g86
ssg67
g1887
sg60
(lp1898
S':'
asbag53
(g74
g55
NtRp1899
(dp1900
g58
(dp1901
sg67
g1887
sg60
(lp1902
g53
(g54
g55
NtRp1903
(dp1904
g58
(dp1905
g66
I4
ssg67
g1899
sg60
(lp1906
S"<Values at 0x30fdfd0: {'verbose': False, 'ip': '127.0.0.1', 'shutdown_timeout': 5, 'taskbar': False, 'nocron': False, 'pid_filename': 'httpserver.pid', 'maxthreads': None, 'softcron': False, 'server_name': 'W15869', 'bpython': False, 'nogui': False, 'port': 8000, 'extcron': False, 'debuglevel': 30, 'test': None, 'folder': 'C:\\\\Users\\\\ceasbpi\\\\Dropbox\\\\web2py', 'config': '', 'import_models': False, 'winservice': '', 'shell': None, 'run': '', 'log_filename': 'httpserver.log', 'args': [''], 'socket_timeout': 5, 'ssl_ca_certificate': None, 'scheduler': None, 'profiler_filename': None, 'ssl_private_key': '', 'password': '<ask>', 'request_queue_size': 5, 'ssl_certificate': '', 'cronjob': False, 'numthreads': None, 'quiet': False, 'interfaces': None, 'minthreads': None, 'timeout': 10, 'plain': False, 'nobanner': False}>"
p1907
asbasbasbag53
(g69
g55
NtRp1908
(dp1909
g58
(dp1910
sg67
g1818
sg60
(lp1911
g53
(g74
g55
NtRp1912
(dp1913
g58
(dp1914
g78
g79
ssg67
g1908
sg60
(lp1915
g860
asbag53
(g74
g55
NtRp1916
(dp1917
g58
(dp1918
g85
g86
ssg67
g1908
sg60
(lp1919
S':'
asbag53
(g74
g55
NtRp1920
(dp1921
g58
(dp1922
sg67
g1908
sg60
(lp1923
g53
(g54
g55
NtRp1924
(dp1925
g58
(dp1926
g66
I4
ssg67
g1920
sg60
(lp1927
S'set([])'
p1928
asbasbasbag53
(g69
g55
NtRp1929
(dp1930
g58
(dp1931
sg67
g1818
sg60
(lp1932
g53
(g74
g55
NtRp1933
(dp1934
g58
(dp1935
g78
g79
ssg67
g1929
sg60
(lp1936
g882
asbag53
(g74
g55
NtRp1937
(dp1938
g58
(dp1939
g85
g86
ssg67
g1929
sg60
(lp1940
S':'
asbag53
(g74
g55
NtRp1941
(dp1942
g58
(dp1943
sg67
g1929
sg60
(lp1944
g53
(g54
g55
NtRp1945
(dp1946
g58
(dp1947
g66
I4
ssg67
g1941
sg60
(lp1948
g96
asbasbasbag53
(g69
g55
NtRp1949
(dp1950
g58
(dp1951
sg67
g1818
sg60
(lp1952
g53
(g74
g55
NtRp1953
(dp1954
g58
(dp1955
g78
g79
ssg67
g1949
sg60
(lp1956
g903
asbag53
(g74
g55
NtRp1957
(dp1958
g58
(dp1959
g85
g86
ssg67
g1949
sg60
(lp1960
S':'
asbag53
(g74
g55
NtRp1961
(dp1962
g58
(dp1963
sg67
g1949
sg60
(lp1964
g53
(g54
g55
NtRp1965
(dp1966
g58
(dp1967
g66
I4
ssg67
g1961
sg60
(lp1968
g916
asbasbasbag53
(g69
g55
NtRp1969
(dp1970
g58
(dp1971
sg67
g1818
sg60
(lp1972
g53
(g74
g55
NtRp1973
(dp1974
g58
(dp1975
g78
g79
ssg67
g1969
sg60
(lp1976
g1123
asbag53
(g74
g55
NtRp1977
(dp1978
g58
(dp1979
g85
g86
ssg67
g1969
sg60
(lp1980
S':'
asbag53
(g74
g55
NtRp1981
(dp1982
g58
(dp1983
sg67
g1969
sg60
(lp1984
g53
(g54
g55
NtRp1985
(dp1986
g58
(dp1987
g66
I4
ssg67
g1981
sg60
(lp1988
g96
asbasbasbag53
(g69
g55
NtRp1989
(dp1990
g58
(dp1991
sg67
g1818
sg60
(lp1992
g53
(g74
g55
NtRp1993
(dp1994
g58
(dp1995
g78
g79
ssg67
g1989
sg60
(lp1996
g1144
asbag53
(g74
g55
NtRp1997
(dp1998
g58
(dp1999
g85
g86
ssg67
g1989
sg60
(lp2000
S':'
asbag53
(g74
g55
NtRp2001
(dp2002
g58
(dp2003
sg67
g1989
sg60
(lp2004
g53
(g54
g55
NtRp2005
(dp2006
g58
(dp2007
g66
I4
ssg67
g2001
sg60
(lp2008
g96
asbasbasbag53
(g69
g55
NtRp2009
(dp2010
g58
(dp2011
sg67
g1818
sg60
(lp2012
g53
(g74
g55
NtRp2013
(dp2014
g58
(dp2015
g78
g79
ssg67
g2009
sg60
(lp2016
g1382
asbag53
(g74
g55
NtRp2017
(dp2018
g58
(dp2019
g85
g86
ssg67
g2009
sg60
(lp2020
S':'
asbag53
(g74
g55
NtRp2021
(dp2022
g58
(dp2023
sg67
g2009
sg60
(lp2024
g53
(g54
g55
NtRp2025
(dp2026
g58
(dp2027
g66
I4
ssg67
g2021
sg60
(lp2028
g1395
asbasbasbag53
(g69
g55
NtRp2029
(dp2030
g58
(dp2031
sg67
g1818
sg60
(lp2032
g53
(g74
g55
NtRp2033
(dp2034
g58
(dp2035
g78
g79
ssg67
g2029
sg60
(lp2036
g1425
asbag53
(g74
g55
NtRp2037
(dp2038
g58
(dp2039
g85
g86
ssg67
g2029
sg60
(lp2040
S':'
asbag53
(g74
g55
NtRp2041
(dp2042
g58
(dp2043
sg67
g2029
sg60
(lp2044
g53
(g54
g55
NtRp2045
(dp2046
g58
(dp2047
g66
I4
ssg67
g2041
sg60
(lp2048
g53
(g62
g55
NtRp2049
(dp2050
g58
(dp2051
g66
I3
ssg67
Nsg60
(lp2052
g53
(g69
g55
NtRp2053
(dp2054
g58
(dp2055
sg67
g2049
sg60
(lp2056
g53
(g74
g55
NtRp2057
(dp2058
g58
(dp2059
sg67
g2053
sg60
(lp2060
g53
(g54
g55
NtRp2061
(dp2062
g58
(dp2063
g66
I3
ssg67
g2057
sg60
(lp2064
S'1'
asbasbasbag53
(g69
g55
NtRp2065
(dp2066
g58
(dp2067
sg67
g2049
sg60
(lp2068
g53
(g74
g55
NtRp2069
(dp2070
g58
(dp2071
sg67
g2065
sg60
(lp2072
g53
(g54
g55
NtRp2073
(dp2074
g58
(dp2075
g66
I3
ssg67
g2069
sg60
(lp2076
S'99'
p2077
asbasbasbag53
(g69
g55
NtRp2078
(dp2079
g58
(dp2080
sg67
g2049
sg60
(lp2081
g53
(g74
g55
NtRp2082
(dp2083
g58
(dp2084
sg67
g2078
sg60
(lp2085
g53
(g54
g55
NtRp2086
(dp2087
g58
(dp2088
g66
I3
ssg67
g2082
sg60
(lp2089
S'7'
asbasbasbag53
(g69
g55
NtRp2090
(dp2091
g58
(dp2092
sg67
g2049
sg60
(lp2093
g53
(g74
g55
NtRp2094
(dp2095
g58
(dp2096
sg67
g2090
sg60
(lp2097
g53
(g54
g55
NtRp2098
(dp2099
g58
(dp2100
g66
I3
ssg67
g2094
sg60
(lp2101
S'datetime.datetime(2012, 3, 4, 22, 12, 8)'
p2102
asbasbasbag53
(g69
g55
NtRp2103
(dp2104
g58
(dp2105
sg67
g2049
sg60
(lp2106
g53
(g74
g55
NtRp2107
(dp2108
g58
(dp2109
sg67
g2103
sg60
(lp2110
g53
(g54
g55
NtRp2111
(dp2112
g58
(dp2113
g66
I3
ssg67
g2107
sg60
(lp2114
g1504
asbasbasbasbasbasbasbasbasbasbasbag53
(g69
g55
NtRp2115
(dp2116
g58
(dp2117
sg67
g63
sg60
(lp2118
g53
(g74
g55
NtRp2119
(dp2120
g58
(dp2121
g78
g79
ssg67
g2115
sg60
(lp2122
S'is_https'
p2123
asbag53
(g74
g55
NtRp2124
(dp2125
g58
(dp2126
g85
g86
ssg67
g2115
sg60
(lp2127
S':'
asbag53
(g74
g55
NtRp2128
(dp2129
g58
(dp2130
sg67
g2115
sg60
(lp2131
g53
(g54
g55
NtRp2132
(dp2133
g58
(dp2134
g66
I5
ssg67
g2128
sg60
(lp2135
g96
asbasbasbag53
(g69
g55
NtRp2136
(dp2137
g58
(dp2138
sg67
g63
sg60
(lp2139
g53
(g74
g55
NtRp2140
(dp2141
g58
(dp2142
g78
g79
ssg67
g2136
sg60
(lp2143
S'is_local'
p2144
asbag53
(g74
g55
NtRp2145
(dp2146
g58
(dp2147
g85
g86
ssg67
g2136
sg60
(lp2148
S':'
asbag53
(g74
g55
NtRp2149
(dp2150
g58
(dp2151
sg67
g2136
sg60
(lp2152
g53
(g54
g55
NtRp2153
(dp2154
g58
(dp2155
g66
I5
ssg67
g2149
sg60
(lp2156
g1613
asbasbasbag53
(g69
g55
NtRp2157
(dp2158
g58
(dp2159
sg67
g63
sg60
(lp2160
g53
(g74
g55
NtRp2161
(dp2162
g58
(dp2163
g78
g79
ssg67
g2157
sg60
(lp2164
S'is_restful'
p2165
asbag53
(g74
g55
NtRp2166
(dp2167
g58
(dp2168
g85
g86
ssg67
g2157
sg60
(lp2169
S':'
asbag53
(g74
g55
NtRp2170
(dp2171
g58
(dp2172
sg67
g2157
sg60
(lp2173
g53
(g54
g55
NtRp2174
(dp2175
g58
(dp2176
g66
I5
ssg67
g2170
sg60
(lp2177
g96
asbasbasbag53
(g69
g55
NtRp2178
(dp2179
g58
(dp2180
sg67
g63
sg60
(lp2181
g53
(g74
g55
NtRp2182
(dp2183
g58
(dp2184
g78
g79
ssg67
g2178
sg60
(lp2185
S'now'
p2186
asbag53
(g74
g55
NtRp2187
(dp2188
g58
(dp2189
g85
g86
ssg67
g2178
sg60
(lp2190
S':'
asbag53
(g74
g55
NtRp2191
(dp2192
g58
(dp2193
sg67
g2178
sg60
(lp2194
g53
(g54
g55
NtRp2195
(dp2196
g58
(dp2197
g66
I5
ssg67
g2191
sg60
(lp2198
S'datetime.datetime(2012, 8, 30, 9, 59, 11, 794000)'
p2199
asbasbasbag53
(g69
g55
NtRp2200
(dp2201
g58
(dp2202
sg67
g63
sg60
(lp2203
g53
(g74
g55
NtRp2204
(dp2205
g58
(dp2206
g78
g79
ssg67
g2200
sg60
(lp2207
S'post_vars'
p2208
asbag53
(g74
g55
NtRp2209
(dp2210
g58
(dp2211
g85
g86
ssg67
g2200
sg60
(lp2212
S':'
asbag53
(g74
g55
NtRp2213
(dp2214
g58
(dp2215
sg67
g2200
sg60
(lp2216
g53
(g54
g55
NtRp2217
(dp2218
g58
(dp2219
g66
I5
ssg67
g2213
sg60
(lp2220
g53
(g62
g55
NtRp2221
(dp2222
g58
(dp2223
g66
I4
ssg67
Nsg60
(lp2224
sbasbasbasbag53
(g69
g55
NtRp2225
(dp2226
g58
(dp2227
sg67
g63
sg60
(lp2228
g53
(g74
g55
NtRp2229
(dp2230
g58
(dp2231
g78
g79
ssg67
g2225
sg60
(lp2232
S'url'
p2233
asbag53
(g74
g55
NtRp2234
(dp2235
g58
(dp2236
g85
g86
ssg67
g2225
sg60
(lp2237
S':'
asbag53
(g74
g55
NtRp2238
(dp2239
g58
(dp2240
sg67
g2225
sg60
(lp2241
g53
(g54
g55
NtRp2242
(dp2243
g58
(dp2244
g66
I5
ssg67
g2238
sg60
(lp2245
S'/IguassuPass/appadmin/index'
p2246
asbasbasbag53
(g69
g55
NtRp2247
(dp2248
g58
(dp2249
sg67
g63
sg60
(lp2250
g53
(g74
g55
NtRp2251
(dp2252
g58
(dp2253
g78
g79
ssg67
g2247
sg60
(lp2254
S'utcnow'
p2255
asbag53
(g74
g55
NtRp2256
(dp2257
g58
(dp2258
g85
g86
ssg67
g2247
sg60
(lp2259
S':'
asbag53
(g74
g55
NtRp2260
(dp2261
g58
(dp2262
sg67
g2247
sg60
(lp2263
g53
(g54
g55
NtRp2264
(dp2265
g58
(dp2266
g66
I5
ssg67
g2260
sg60
(lp2267
S'datetime.datetime(2012, 8, 30, 12, 59, 11, 794000)'
p2268
asbasbasbag53
(g69
g55
NtRp2269
(dp2270
g58
(dp2271
sg67
g63
sg60
(lp2272
g53
(g74
g55
NtRp2273
(dp2274
g58
(dp2275
g78
g79
ssg67
g2269
sg60
(lp2276
S'uuid'
p2277
asbag53
(g74
g55
NtRp2278
(dp2279
g58
(dp2280
g85
g86
ssg67
g2269
sg60
(lp2281
S':'
asbag53
(g74
g55
NtRp2282
(dp2283
g58
(dp2284
sg67
g2269
sg60
(lp2285
g53
(g54
g55
NtRp2286
(dp2287
g58
(dp2288
g66
I5
ssg67
g2282
sg60
(lp2289
S'IguassuPass/127.0.0.1.2012-08-30.09-59-11.88574d61-0e9d-4013-9337-53460f3e96a9'
p2290
asbasbasbag53
(g69
g55
NtRp2291
(dp2292
g58
(dp2293
sg67
g63
sg60
(lp2294
g53
(g74
g55
NtRp2295
(dp2296
g58
(dp2297
g78
g79
ssg67
g2291
sg60
(lp2298
S'vars'
p2299
asbag53
(g74
g55
NtRp2300
(dp2301
g58
(dp2302
g85
g86
ssg67
g2291
sg60
(lp2303
S':'
asbag53
(g74
g55
NtRp2304
(dp2305
g58
(dp2306
sg67
g2291
sg60
(lp2307
g53
(g54
g55
NtRp2308
(dp2309
g58
(dp2310
g66
I5
ssg67
g2304
sg60
(lp2311
g53
(g62
g55
NtRp2312
(dp2313
g58
(dp2314
g66
I4
ssg67
Nsg60
(lp2315
sbasbasbasbag53
(g69
g55
NtRp2316
(dp2317
g58
(dp2318
sg67
g63
sg60
(lp2319
g53
(g74
g55
NtRp2320
(dp2321
g58
(dp2322
g78
g79
ssg67
g2316
sg60
(lp2323
S'wsgi'
p2324
asbag53
(g74
g55
NtRp2325
(dp2326
g58
(dp2327
g85
g86
ssg67
g2316
sg60
(lp2328
S':'
asbag53
(g74
g55
NtRp2329
(dp2330
g58
(dp2331
sg67
g2316
sg60
(lp2332
g53
(g54
g55
NtRp2333
(dp2334
g58
(dp2335
g66
I5
ssg67
g2329
sg60
(lp2336
g53
(g62
g55
NtRp2337
(dp2338
g58
(dp2339
g66
I4
ssg67
Nsg60
(lp2340
g53
(g69
g55
NtRp2341
(dp2342
g58
(dp2343
sg67
g2337
sg60
(lp2344
g53
(g74
g55
NtRp2345
(dp2346
g58
(dp2347
g78
g79
ssg67
g2341
sg60
(lp2348
S'environ'
p2349
asbag53
(g74
g55
NtRp2350
(dp2351
g58
(dp2352
g85
g86
ssg67
g2341
sg60
(lp2353
S':'
asbag53
(g74
g55
NtRp2354
(dp2355
g58
(dp2356
sg67
g2341
sg60
(lp2357
g53
(g54
g55
NtRp2358
(dp2359
g58
(dp2360
g66
I4
ssg67
g2354
sg60
(lp2361
g53
(g62
g55
NtRp2362
(dp2363
g58
(dp2364
g66
I3
ssg67
Nsg60
(lp2365
g53
(g69
g55
NtRp2366
(dp2367
g58
(dp2368
sg67
g2362
sg60
(lp2369
g53
(g74
g55
NtRp2370
(dp2371
g58
(dp2372
g78
g79
ssg67
g2366
sg60
(lp2373
S'HTTP_ACCEPT'
p2374
asbag53
(g74
g55
NtRp2375
(dp2376
g58
(dp2377
g85
g86
ssg67
g2366
sg60
(lp2378
S':'
asbag53
(g74
g55
NtRp2379
(dp2380
g58
(dp2381
sg67
g2366
sg60
(lp2382
g53
(g54
g55
NtRp2383
(dp2384
g58
(dp2385
g66
I3
ssg67
g2379
sg60
(lp2386
g938
asbasbasbag53
(g69
g55
NtRp2387
(dp2388
g58
(dp2389
sg67
g2362
sg60
(lp2390
g53
(g74
g55
NtRp2391
(dp2392
g58
(dp2393
g78
g79
ssg67
g2387
sg60
(lp2394
S'HTTP_ACCEPT_CHARSET'
p2395
asbag53
(g74
g55
NtRp2396
(dp2397
g58
(dp2398
g85
g86
ssg67
g2387
sg60
(lp2399
S':'
asbag53
(g74
g55
NtRp2400
(dp2401
g58
(dp2402
sg67
g2387
sg60
(lp2403
g53
(g54
g55
NtRp2404
(dp2405
g58
(dp2406
g66
I3
ssg67
g2400
sg60
(lp2407
g960
asbasbasbag53
(g69
g55
NtRp2408
(dp2409
g58
(dp2410
sg67
g2362
sg60
(lp2411
g53
(g74
g55
NtRp2412
(dp2413
g58
(dp2414
g78
g79
ssg67
g2408
sg60
(lp2415
S'HTTP_ACCEPT_ENCODING'
p2416
asbag53
(g74
g55
NtRp2417
(dp2418
g58
(dp2419
g85
g86
ssg67
g2408
sg60
(lp2420
S':'
asbag53
(g74
g55
NtRp2421
(dp2422
g58
(dp2423
sg67
g2408
sg60
(lp2424
g53
(g54
g55
NtRp2425
(dp2426
g58
(dp2427
g66
I3
ssg67
g2421
sg60
(lp2428
g982
asbasbasbag53
(g69
g55
NtRp2429
(dp2430
g58
(dp2431
sg67
g2362
sg60
(lp2432
g53
(g74
g55
NtRp2433
(dp2434
g58
(dp2435
g78
g79
ssg67
g2429
sg60
(lp2436
S'HTTP_ACCEPT_LANGUAGE'
p2437
asbag53
(g74
g55
NtRp2438
(dp2439
g58
(dp2440
g85
g86
ssg67
g2429
sg60
(lp2441
S':'
asbag53
(g74
g55
NtRp2442
(dp2443
g58
(dp2444
sg67
g2429
sg60
(lp2445
g53
(g54
g55
NtRp2446
(dp2447
g58
(dp2448
g66
I3
ssg67
g2442
sg60
(lp2449
g1004
asbasbasbag53
(g69
g55
NtRp2450
(dp2451
g58
(dp2452
sg67
g2362
sg60
(lp2453
g53
(g74
g55
NtRp2454
(dp2455
g58
(dp2456
g78
g79
ssg67
g2450
sg60
(lp2457
S'HTTP_CONNECTION'
p2458
asbag53
(g74
g55
NtRp2459
(dp2460
g58
(dp2461
g85
g86
ssg67
g2450
sg60
(lp2462
S':'
asbag53
(g74
g55
NtRp2463
(dp2464
g58
(dp2465
sg67
g2450
sg60
(lp2466
g53
(g54
g55
NtRp2467
(dp2468
g58
(dp2469
g66
I3
ssg67
g2463
sg60
(lp2470
g1026
asbasbasbag53
(g69
g55
NtRp2471
(dp2472
g58
(dp2473
sg67
g2362
sg60
(lp2474
g53
(g74
g55
NtRp2475
(dp2476
g58
(dp2477
g78
g79
ssg67
g2471
sg60
(lp2478
S'HTTP_COOKIE'
p2479
asbag53
(g74
g55
NtRp2480
(dp2481
g58
(dp2482
g85
g86
ssg67
g2471
sg60
(lp2483
S':'
asbag53
(g74
g55
NtRp2484
(dp2485
g58
(dp2486
sg67
g2471
sg60
(lp2487
g53
(g54
g55
NtRp2488
(dp2489
g58
(dp2490
g66
I3
ssg67
g2484
sg60
(lp2491
g1048
asbasbasbag53
(g69
g55
NtRp2492
(dp2493
g58
(dp2494
sg67
g2362
sg60
(lp2495
g53
(g74
g55
NtRp2496
(dp2497
g58
(dp2498
g78
g79
ssg67
g2492
sg60
(lp2499
S'HTTP_HOST'
p2500
asbag53
(g74
g55
NtRp2501
(dp2502
g58
(dp2503
g85
g86
ssg67
g2492
sg60
(lp2504
S':'
asbag53
(g74
g55
NtRp2505
(dp2506
g58
(dp2507
sg67
g2492
sg60
(lp2508
g53
(g54
g55
NtRp2509
(dp2510
g58
(dp2511
g66
I3
ssg67
g2505
sg60
(lp2512
g1070
asbasbasbag53
(g69
g55
NtRp2513
(dp2514
g58
(dp2515
sg67
g2362
sg60
(lp2516
g53
(g74
g55
NtRp2517
(dp2518
g58
(dp2519
g78
g79
ssg67
g2513
sg60
(lp2520
S'HTTP_REFERER'
p2521
asbag53
(g74
g55
NtRp2522
(dp2523
g58
(dp2524
g85
g86
ssg67
g2513
sg60
(lp2525
S':'
asbag53
(g74
g55
NtRp2526
(dp2527
g58
(dp2528
sg67
g2513
sg60
(lp2529
g53
(g54
g55
NtRp2530
(dp2531
g58
(dp2532
g66
I3
ssg67
g2526
sg60
(lp2533
g1092
asbasbasbag53
(g69
g55
NtRp2534
(dp2535
g58
(dp2536
sg67
g2362
sg60
(lp2537
g53
(g74
g55
NtRp2538
(dp2539
g58
(dp2540
g78
g79
ssg67
g2534
sg60
(lp2541
S'HTTP_USER_AGENT'
p2542
asbag53
(g74
g55
NtRp2543
(dp2544
g58
(dp2545
g85
g86
ssg67
g2534
sg60
(lp2546
S':'
asbag53
(g74
g55
NtRp2547
(dp2548
g58
(dp2549
sg67
g2534
sg60
(lp2550
g53
(g54
g55
NtRp2551
(dp2552
g58
(dp2553
g66
I3
ssg67
g2547
sg60
(lp2554
g1114
asbasbasbag53
(g69
g55
NtRp2555
(dp2556
g58
(dp2557
sg67
g2362
sg60
(lp2558
g53
(g74
g55
NtRp2559
(dp2560
g58
(dp2561
g78
g79
ssg67
g2555
sg60
(lp2562
S'PATH_INFO'
p2563
asbag53
(g74
g55
NtRp2564
(dp2565
g58
(dp2566
g85
g86
ssg67
g2555
sg60
(lp2567
S':'
asbag53
(g74
g55
NtRp2568
(dp2569
g58
(dp2570
sg67
g2555
sg60
(lp2571
g53
(g54
g55
NtRp2572
(dp2573
g58
(dp2574
g66
I3
ssg67
g2568
sg60
(lp2575
g1178
asbasbasbag53
(g69
g55
NtRp2576
(dp2577
g58
(dp2578
sg67
g2362
sg60
(lp2579
g53
(g74
g55
NtRp2580
(dp2581
g58
(dp2582
g78
g79
ssg67
g2576
sg60
(lp2583
S'QUERY_STRING'
p2584
asbag53
(g74
g55
NtRp2585
(dp2586
g58
(dp2587
g85
g86
ssg67
g2576
sg60
(lp2588
S':'
asbag53
(g74
g55
NtRp2589
(dp2590
g58
(dp2591
sg67
g2576
sg60
(lp2592
g53
(g54
g55
NtRp2593
(dp2594
g58
(dp2595
g66
I3
ssg67
g2589
sg60
(lp2596
S''
asbasbasbag53
(g69
g55
NtRp2597
(dp2598
g58
(dp2599
sg67
g2362
sg60
(lp2600
g53
(g74
g55
NtRp2601
(dp2602
g58
(dp2603
g78
g79
ssg67
g2597
sg60
(lp2604
S'REMOTE_ADDR'
p2605
asbag53
(g74
g55
NtRp2606
(dp2607
g58
(dp2608
g85
g86
ssg67
g2597
sg60
(lp2609
S':'
asbag53
(g74
g55
NtRp2610
(dp2611
g58
(dp2612
sg67
g2597
sg60
(lp2613
g53
(g54
g55
NtRp2614
(dp2615
g58
(dp2616
g66
I3
ssg67
g2610
sg60
(lp2617
g186
asbasbasbag53
(g69
g55
NtRp2618
(dp2619
g58
(dp2620
sg67
g2362
sg60
(lp2621
g53
(g74
g55
NtRp2622
(dp2623
g58
(dp2624
g78
g79
ssg67
g2618
sg60
(lp2625
S'REMOTE_PORT'
p2626
asbag53
(g74
g55
NtRp2627
(dp2628
g58
(dp2629
g85
g86
ssg67
g2618
sg60
(lp2630
S':'
asbag53
(g74
g55
NtRp2631
(dp2632
g58
(dp2633
sg67
g2618
sg60
(lp2634
g53
(g54
g55
NtRp2635
(dp2636
g58
(dp2637
g66
I3
ssg67
g2631
sg60
(lp2638
g1242
asbasbasbag53
(g69
g55
NtRp2639
(dp2640
g58
(dp2641
sg67
g2362
sg60
(lp2642
g53
(g74
g55
NtRp2643
(dp2644
g58
(dp2645
g78
g79
ssg67
g2639
sg60
(lp2646
S'REQUEST_METHOD'
p2647
asbag53
(g74
g55
NtRp2648
(dp2649
g58
(dp2650
g85
g86
ssg67
g2639
sg60
(lp2651
S':'
asbag53
(g74
g55
NtRp2652
(dp2653
g58
(dp2654
sg67
g2639
sg60
(lp2655
g53
(g54
g55
NtRp2656
(dp2657
g58
(dp2658
g66
I3
ssg67
g2652
sg60
(lp2659
g1264
asbasbasbag53
(g69
g55
NtRp2660
(dp2661
g58
(dp2662
sg67
g2362
sg60
(lp2663
g53
(g74
g55
NtRp2664
(dp2665
g58
(dp2666
g78
g79
ssg67
g2660
sg60
(lp2667
S'SCRIPT_NAME'
p2668
asbag53
(g74
g55
NtRp2669
(dp2670
g58
(dp2671
g85
g86
ssg67
g2660
sg60
(lp2672
S':'
asbag53
(g74
g55
NtRp2673
(dp2674
g58
(dp2675
sg67
g2660
sg60
(lp2676
g53
(g54
g55
NtRp2677
(dp2678
g58
(dp2679
g66
I3
ssg67
g2673
sg60
(lp2680
S''
asbasbasbag53
(g69
g55
NtRp2681
(dp2682
g58
(dp2683
sg67
g2362
sg60
(lp2684
g53
(g74
g55
NtRp2685
(dp2686
g58
(dp2687
g78
g79
ssg67
g2681
sg60
(lp2688
S'SERVER_NAME'
p2689
asbag53
(g74
g55
NtRp2690
(dp2691
g58
(dp2692
g85
g86
ssg67
g2681
sg60
(lp2693
S':'
asbag53
(g74
g55
NtRp2694
(dp2695
g58
(dp2696
sg67
g2681
sg60
(lp2697
g53
(g54
g55
NtRp2698
(dp2699
g58
(dp2700
g66
I3
ssg67
g2694
sg60
(lp2701
g1307
asbasbasbag53
(g69
g55
NtRp2702
(dp2703
g58
(dp2704
sg67
g2362
sg60
(lp2705
g53
(g74
g55
NtRp2706
(dp2707
g58
(dp2708
g78
g79
ssg67
g2702
sg60
(lp2709
S'SERVER_PORT'
p2710
asbag53
(g74
g55
NtRp2711
(dp2712
g58
(dp2713
g85
g86
ssg67
g2702
sg60
(lp2714
S':'
asbag53
(g74
g55
NtRp2715
(dp2716
g58
(dp2717
sg67
g2702
sg60
(lp2718
g53
(g54
g55
NtRp2719
(dp2720
g58
(dp2721
g66
I3
ssg67
g2715
sg60
(lp2722
g1329
asbasbasbag53
(g69
g55
NtRp2723
(dp2724
g58
(dp2725
sg67
g2362
sg60
(lp2726
g53
(g74
g55
NtRp2727
(dp2728
g58
(dp2729
g78
g79
ssg67
g2723
sg60
(lp2730
S'SERVER_PROTOCOL'
p2731
asbag53
(g74
g55
NtRp2732
(dp2733
g58
(dp2734
g85
g86
ssg67
g2723
sg60
(lp2735
S':'
asbag53
(g74
g55
NtRp2736
(dp2737
g58
(dp2738
sg67
g2723
sg60
(lp2739
g53
(g54
g55
NtRp2740
(dp2741
g58
(dp2742
g66
I3
ssg67
g2736
sg60
(lp2743
g1351
asbasbasbag53
(g69
g55
NtRp2744
(dp2745
g58
(dp2746
sg67
g2362
sg60
(lp2747
g53
(g74
g55
NtRp2748
(dp2749
g58
(dp2750
g78
g79
ssg67
g2744
sg60
(lp2751
S'SERVER_SOFTWARE'
p2752
asbag53
(g74
g55
NtRp2753
(dp2754
g58
(dp2755
g85
g86
ssg67
g2744
sg60
(lp2756
S':'
asbag53
(g74
g55
NtRp2757
(dp2758
g58
(dp2759
sg67
g2744
sg60
(lp2760
g53
(g54
g55
NtRp2761
(dp2762
g58
(dp2763
g66
I3
ssg67
g2757
sg60
(lp2764
g1373
asbasbasbag53
(g69
g55
NtRp2765
(dp2766
g58
(dp2767
sg67
g2362
sg60
(lp2768
g53
(g74
g55
NtRp2769
(dp2770
g58
(dp2771
g78
g79
ssg67
g2765
sg60
(lp2772
S'wsgi.errors'
p2773
asbag53
(g74
g55
NtRp2774
(dp2775
g58
(dp2776
g85
g86
ssg67
g2765
sg60
(lp2777
S':'
asbag53
(g74
g55
NtRp2778
(dp2779
g58
(dp2780
sg67
g2765
sg60
(lp2781
g53
(g54
g55
NtRp2782
(dp2783
g58
(dp2784
g66
I3
ssg67
g2778
sg60
(lp2785
S"<open file '<stderr>', mode 'w' at 0x004200B0>"
p2786
asbasbasbag53
(g69
g55
NtRp2787
(dp2788
g58
(dp2789
sg67
g2362
sg60
(lp2790
g53
(g74
g55
NtRp2791
(dp2792
g58
(dp2793
g78
g79
ssg67
g2787
sg60
(lp2794
S'wsgi.file_wrapper'
p2795
asbag53
(g74
g55
NtRp2796
(dp2797
g58
(dp2798
g85
g86
ssg67
g2787
sg60
(lp2799
S':'
asbag53
(g74
g55
NtRp2800
(dp2801
g58
(dp2802
sg67
g2787
sg60
(lp2803
g53
(g54
g55
NtRp2804
(dp2805
g58
(dp2806
g66
I3
ssg67
g2800
sg60
(lp2807
S'<class wsgiref.util.FileWrapper at 0x02E6D360>'
p2808
asbasbasbag53
(g69
g55
NtRp2809
(dp2810
g58
(dp2811
sg67
g2362
sg60
(lp2812
g53
(g74
g55
NtRp2813
(dp2814
g58
(dp2815
g78
g79
ssg67
g2809
sg60
(lp2816
S'wsgi.input'
p2817
asbag53
(g74
g55
NtRp2818
(dp2819
g58
(dp2820
g85
g86
ssg67
g2809
sg60
(lp2821
S':'
asbag53
(g74
g55
NtRp2822
(dp2823
g58
(dp2824
sg67
g2809
sg60
(lp2825
g53
(g54
g55
NtRp2826
(dp2827
g58
(dp2828
g66
I3
ssg67
g2822
sg60
(lp2829
S'<cStringIO.StringO object at 0x07DB3520>'
p2830
asbasbasbag53
(g69
g55
NtRp2831
(dp2832
g58
(dp2833
sg67
g2362
sg60
(lp2834
g53
(g74
g55
NtRp2835
(dp2836
g58
(dp2837
g78
g79
ssg67
g2831
sg60
(lp2838
S'wsgi.multiprocess'
p2839
asbag53
(g74
g55
NtRp2840
(dp2841
g58
(dp2842
g85
g86
ssg67
g2831
sg60
(lp2843
S':'
asbag53
(g74
g55
NtRp2844
(dp2845
g58
(dp2846
sg67
g2831
sg60
(lp2847
g53
(g54
g55
NtRp2848
(dp2849
g58
(dp2850
g66
I3
ssg67
g2844
sg60
(lp2851
g96
asbasbasbag53
(g69
g55
NtRp2852
(dp2853
g58
(dp2854
sg67
g2362
sg60
(lp2855
g53
(g74
g55
NtRp2856
(dp2857
g58
(dp2858
g78
g79
ssg67
g2852
sg60
(lp2859
S'wsgi.multithread'
p2860
asbag53
(g74
g55
NtRp2861
(dp2862
g58
(dp2863
g85
g86
ssg67
g2852
sg60
(lp2864
S':'
asbag53
(g74
g55
NtRp2865
(dp2866
g58
(dp2867
sg67
g2852
sg60
(lp2868
g53
(g54
g55
NtRp2869
(dp2870
g58
(dp2871
g66
I3
ssg67
g2865
sg60
(lp2872
g1613
asbasbasbag53
(g69
g55
NtRp2873
(dp2874
g58
(dp2875
sg67
g2362
sg60
(lp2876
g53
(g74
g55
NtRp2877
(dp2878
g58
(dp2879
g78
g79
ssg67
g2873
sg60
(lp2880
S'wsgi.run_once'
p2881
asbag53
(g74
g55
NtRp2882
(dp2883
g58
(dp2884
g85
g86
ssg67
g2873
sg60
(lp2885
S':'
asbag53
(g74
g55
NtRp2886
(dp2887
g58
(dp2888
sg67
g2873
sg60
(lp2889
g53
(g54
g55
NtRp2890
(dp2891
g58
(dp2892
g66
I3
ssg67
g2886
sg60
(lp2893
g96
asbasbasbag53
(g69
g55
NtRp2894
(dp2895
g58
(dp2896
sg67
g2362
sg60
(lp2897
g53
(g74
g55
NtRp2898
(dp2899
g58
(dp2900
g78
g79
ssg67
g2894
sg60
(lp2901
S'wsgi.url_scheme'
p2902
asbag53
(g74
g55
NtRp2903
(dp2904
g58
(dp2905
g85
g86
ssg67
g2894
sg60
(lp2906
S':'
asbag53
(g74
g55
NtRp2907
(dp2908
g58
(dp2909
sg67
g2894
sg60
(lp2910
g53
(g54
g55
NtRp2911
(dp2912
g58
(dp2913
g66
I3
ssg67
g2907
sg60
(lp2914
g1656
asbasbasbag53
(g69
g55
NtRp2915
(dp2916
g58
(dp2917
sg67
g2362
sg60
(lp2918
g53
(g74
g55
NtRp2919
(dp2920
g58
(dp2921
g78
g79
ssg67
g2915
sg60
(lp2922
S'wsgi.version'
p2923
asbag53
(g74
g55
NtRp2924
(dp2925
g58
(dp2926
g85
g86
ssg67
g2915
sg60
(lp2927
S':'
asbag53
(g74
g55
NtRp2928
(dp2929
g58
(dp2930
sg67
g2915
sg60
(lp2931
g53
(g54
g55
NtRp2932
(dp2933
g58
(dp2934
g66
I3
ssg67
g2928
sg60
(lp2935
S'1'
asbasbasbasbasbasbasbasbasbasbasbasbasbsS'frames'
p2936
(lp2937
(dp2938
S'file'
p2939
S'C:\\Users\\ceasbpi\\Dropbox\\web2py\\gluon\\restricted.py'
p2940
sS'dump'
p2941
(dp2942
sS'lnum'
p2943
I205
sS'lines'
p2944
(dp2945
sS'call'
p2946
S"(code='# -*- coding: utf-8 -*-\\n\\n#######################...################################################\\n', environment={'A': <class 'gluon.html.A'>, 'Auth': <class 'gluon.tools.Auth'>, 'B': <class 'gluon.html.B'>, 'BEAUTIFY': <class 'gluon.html.BEAUTIFY'>, 'BODY': <class 'gluon.html.BODY'>, 'BR': <class 'gluon.html.BR'>, 'BUTTON': <class 'gluon.html.BUTTON'>, 'CAT': <class 'gluon.html.CAT'>, 'CENTER': <class 'gluon.html.CENTER'>, 'CLEANUP': <class 'gluon.validators.CLEANUP'>, ...}, layer=r'C:\\Users\\ceasbpi\\Dropbox\\web2py\\applications\\IguassuPass\\models\\db.py')"
p2947
sS'func'
p2948
S'restricted'
p2949
sa(dp2950
g2939
S'C:\\Users\\ceasbpi\\Dropbox\\web2py\\applications\\IguassuPass\\models\\db.py'
p2951
sg2941
(dp2952
sg2943
I47
sg2944
(dp2953
I42
S'from gluon.tools import Auth, Crud, Service, PluginManager, prettydate'
p2954
sI43
S'auth = Auth(db, hmac_key=Auth.get_or_create_key())'
p2955
sI44
S'crud, service, plugins = Crud(db), Service(), PluginManager()'
p2956
sI45
S''
sI46
S'## create all tables needed by auth if not custom tables'
p2957
sI47
S'auth.define_tables()'
p2958
sI48
S''
sI49
S'## configure email'
p2959
sI50
S'mail=auth.settings.mailer'
p2960
sI51
S"mail.settings.server = 'logging' or 'smtp.gmail.com:587'"
p2961
ssg2946
S'()'
p2962
sg2948
S'<module>'
p2963
sa(dp2964
g2939
S'C:\\Users\\ceasbpi\\Dropbox\\web2py\\gluon\\tools.py'
p2965
sg2941
(dp2966
sg2943
I1309
sg2944
(dp2967
sg2946
S'(self=<gluon.tools.Auth object at 0x07FF9450>, username=False, migrate=True, fake_migrate=False)'
p2968
sg2948
S'define_tables'
p2969
sa(dp2970
g2939
S'C:\\Users\\ceasbpi\\Dropbox\\web2py\\gluon\\dal.py'
p2971
sg2941
(dp2972
sg2943
I6320
sg2944
(dp2973
sg2946
S"(self=<DAL {'_migrate_enabled': True, '_lastsql': 'CRE...'_uri_hash': 'c8b669d15150d7109e5f7ab36744a5b7'}>, tablename='auth_user', *fields=(<gluon.dal.Field object at 0x07AA6A10>, <gluon.dal.Field object at 0x07207B70>, <gluon.dal.Field object at 0x072074F0>, <gluon.dal.Field object at 0x07207730>, <gluon.dal.Field object at 0x07207410>, <gluon.dal.Field object at 0x07207A90>, <gluon.dal.Field object at 0x07207330>), **args={'fake_migrate': False, 'format': '%(first_name)s %(last_name)s (%(id)s)', 'migrate': True})"
p2974
sg2948
S'define_table'
p2975
sa(dp2976
g2939
S'C:\\Users\\ceasbpi\\Dropbox\\web2py\\gluon\\dal.py'
p2977
sg2941
(dp2978
sg2943
I719
sg2944
(dp2979
sg2946
S"(self=<gluon.dal.SQLiteAdapter object at 0x07FF96D0>, table=<Table {'ALL': <gluon.dal.SQLALL object at 0x072...>, 'id': <gluon.dal.Field object at 0x07207E30>}>, migrate=True, fake_migrate=False, polymodel=None)"
p2980
sg2948
S'create_table'
p2981
sa(dp2982
g2939
S'C:\\Users\\ceasbpi\\Dropbox\\web2py\\gluon\\dal.py'
p2983
sg2941
(dp2984
sg2943
I1381
sg2944
(dp2985
sg2946
S"(self=<gluon.dal.SQLiteAdapter object at 0x07FF96D0>, query='CREATE TABLE auth_user(\\n    id INTEGER PRIMARY K...d_key CHAR(512),\\n    registration_id CHAR(512)\\n);', table=<Table {'ALL': <gluon.dal.SQLALL object at 0x072...>, 'id': <gluon.dal.Field object at 0x07207E30>}>, **args={})"
p2986
sg2948
S'create_sequence_and_triggers'
p2987
sa(dp2988
g2939
S'C:\\Users\\ceasbpi\\Dropbox\\web2py\\gluon\\dal.py'
p2989
sg2941
(dp2990
sg2943
I1392
sg2944
(dp2991
sg2946
S"(self=<gluon.dal.SQLiteAdapter object at 0x07FF96D0>, *a=('CREATE TABLE auth_user(\\n    id INTEGER PRIMARY K...d_key CHAR(512),\\n    registration_id CHAR(512)\\n);',), **b={})"
p2992
sg2948
S'execute'
p2993
sa(dp2994
g2939
S'C:\\Users\\ceasbpi\\Dropbox\\web2py\\gluon\\dal.py'
p2995
sg2941
(dp2996
sg2943
I1386
sg2944
(dp2997
sg2946
S"(self=<gluon.dal.SQLiteAdapter object at 0x07FF96D0>, *a=('CREATE TABLE auth_user(\\n    id INTEGER PRIMARY K...d_key CHAR(512),\\n    registration_id CHAR(512)\\n);',), **b={})"
p2998
sg2948
S'log_execute'
p2999
sasS'pyver'
p3000
S'Python 2.5.4: C:\\Users\\ceasbpi\\Dropbox\\web2py\\web2py.exe'
p3001
sS'session'
p3002
g53
(g54
g55
NtRp3003
(dp3004
g58
(dp3005
sg60
(lp3006
g53
(g62
g55
NtRp3007
(dp3008
g58
(dp3009
g66
I5
ssg67
Nsg60
(lp3010
g53
(g69
g55
NtRp3011
(dp3012
g58
(dp3013
sg67
g3007
sg60
(lp3014
g53
(g74
g55
NtRp3015
(dp3016
g58
(dp3017
g78
g79
ssg67
g3011
sg60
(lp3018
S'auth'
p3019
asbag53
(g74
g55
NtRp3020
(dp3021
g58
(dp3022
g85
g86
ssg67
g3011
sg60
(lp3023
S':'
asbag53
(g74
g55
NtRp3024
(dp3025
g58
(dp3026
sg67
g3011
sg60
(lp3027
g53
(g54
g55
NtRp3028
(dp3029
g58
(dp3030
g66
I5
ssg67
g3024
sg60
(lp3031
g53
(g62
g55
NtRp3032
(dp3033
g58
(dp3034
g66
I4
ssg67
Nsg60
(lp3035
g53
(g69
g55
NtRp3036
(dp3037
g58
(dp3038
sg67
g3032
sg60
(lp3039
g53
(g74
g55
NtRp3040
(dp3041
g58
(dp3042
g78
g79
ssg67
g3036
sg60
(lp3043
S'expiration'
p3044
asbag53
(g74
g55
NtRp3045
(dp3046
g58
(dp3047
g85
g86
ssg67
g3036
sg60
(lp3048
S':'
asbag53
(g74
g55
NtRp3049
(dp3050
g58
(dp3051
sg67
g3036
sg60
(lp3052
g53
(g54
g55
NtRp3053
(dp3054
g58
(dp3055
g66
I4
ssg67
g3049
sg60
(lp3056
S'3600'
p3057
asbasbasbag53
(g69
g55
NtRp3058
(dp3059
g58
(dp3060
sg67
g3032
sg60
(lp3061
g53
(g74
g55
NtRp3062
(dp3063
g58
(dp3064
g78
g79
ssg67
g3058
sg60
(lp3065
S'hmac_key'
p3066
asbag53
(g74
g55
NtRp3067
(dp3068
g58
(dp3069
g85
g86
ssg67
g3058
sg60
(lp3070
S':'
asbag53
(g74
g55
NtRp3071
(dp3072
g58
(dp3073
sg67
g3058
sg60
(lp3074
g53
(g54
g55
NtRp3075
(dp3076
g58
(dp3077
g66
I4
ssg67
g3071
sg60
(lp3078
S'8fe52114-4a16-4d34-86ee-07e1ef1b8084'
p3079
asbasbasbag53
(g69
g55
NtRp3080
(dp3081
g58
(dp3082
sg67
g3032
sg60
(lp3083
g53
(g74
g55
NtRp3084
(dp3085
g58
(dp3086
g78
g79
ssg67
g3080
sg60
(lp3087
S'last_visit'
p3088
asbag53
(g74
g55
NtRp3089
(dp3090
g58
(dp3091
g85
g86
ssg67
g3080
sg60
(lp3092
S':'
asbag53
(g74
g55
NtRp3093
(dp3094
g58
(dp3095
sg67
g3080
sg60
(lp3096
g53
(g54
g55
NtRp3097
(dp3098
g58
(dp3099
g66
I4
ssg67
g3093
sg60
(lp3100
S'datetime.datetime(2012, 8, 30, 9, 53, 38, 601000)'
p3101
asbasbasbag53
(g69
g55
NtRp3102
(dp3103
g58
(dp3104
sg67
g3032
sg60
(lp3105
g53
(g74
g55
NtRp3106
(dp3107
g58
(dp3108
g78
g79
ssg67
g3102
sg60
(lp3109
S'user'
p3110
asbag53
(g74
g55
NtRp3111
(dp3112
g58
(dp3113
g85
g86
ssg67
g3102
sg60
(lp3114
S':'
asbag53
(g74
g55
NtRp3115
(dp3116
g58
(dp3117
sg67
g3102
sg60
(lp3118
g53
(g54
g55
NtRp3119
(dp3120
g58
(dp3121
g66
I4
ssg67
g3115
sg60
(lp3122
g53
(g62
g55
NtRp3123
(dp3124
g58
(dp3125
g66
I3
ssg67
Nsg60
(lp3126
g53
(g69
g55
NtRp3127
(dp3128
g58
(dp3129
sg67
g3123
sg60
(lp3130
g53
(g74
g55
NtRp3131
(dp3132
g58
(dp3133
g78
g79
ssg67
g3127
sg60
(lp3134
S'email'
p3135
asbag53
(g74
g55
NtRp3136
(dp3137
g58
(dp3138
g85
g86
ssg67
g3127
sg60
(lp3139
S':'
asbag53
(g74
g55
NtRp3140
(dp3141
g58
(dp3142
sg67
g3127
sg60
(lp3143
g53
(g54
g55
NtRp3144
(dp3145
g58
(dp3146
g66
I3
ssg67
g3140
sg60
(lp3147
S'admin@admin.com'
p3148
asbasbasbag53
(g69
g55
NtRp3149
(dp3150
g58
(dp3151
sg67
g3123
sg60
(lp3152
g53
(g74
g55
NtRp3153
(dp3154
g58
(dp3155
g78
g79
ssg67
g3149
sg60
(lp3156
S'first_name'
p3157
asbag53
(g74
g55
NtRp3158
(dp3159
g58
(dp3160
g85
g86
ssg67
g3149
sg60
(lp3161
S':'
asbag53
(g74
g55
NtRp3162
(dp3163
g58
(dp3164
sg67
g3149
sg60
(lp3165
g53
(g54
g55
NtRp3166
(dp3167
g58
(dp3168
g66
I3
ssg67
g3162
sg60
(lp3169
S'admin'
p3170
asbasbasbag53
(g69
g55
NtRp3171
(dp3172
g58
(dp3173
sg67
g3123
sg60
(lp3174
g53
(g74
g55
NtRp3175
(dp3176
g58
(dp3177
g78
g79
ssg67
g3171
sg60
(lp3178
S'id'
p3179
asbag53
(g74
g55
NtRp3180
(dp3181
g58
(dp3182
g85
g86
ssg67
g3171
sg60
(lp3183
S':'
asbag53
(g74
g55
NtRp3184
(dp3185
g58
(dp3186
sg67
g3171
sg60
(lp3187
g53
(g54
g55
NtRp3188
(dp3189
g58
(dp3190
g66
I3
ssg67
g3184
sg60
(lp3191
S'2'
asbasbasbag53
(g69
g55
NtRp3192
(dp3193
g58
(dp3194
sg67
g3123
sg60
(lp3195
g53
(g74
g55
NtRp3196
(dp3197
g58
(dp3198
g78
g79
ssg67
g3192
sg60
(lp3199
S'last_name'
p3200
asbag53
(g74
g55
NtRp3201
(dp3202
g58
(dp3203
g85
g86
ssg67
g3192
sg60
(lp3204
S':'
asbag53
(g74
g55
NtRp3205
(dp3206
g58
(dp3207
sg67
g3192
sg60
(lp3208
g53
(g54
g55
NtRp3209
(dp3210
g58
(dp3211
g66
I3
ssg67
g3205
sg60
(lp3212
S'de oliveira'
p3213
asbasbasbag53
(g69
g55
NtRp3214
(dp3215
g58
(dp3216
sg67
g3123
sg60
(lp3217
g53
(g74
g55
NtRp3218
(dp3219
g58
(dp3220
g78
g79
ssg67
g3214
sg60
(lp3221
S'password'
p3222
asbag53
(g74
g55
NtRp3223
(dp3224
g58
(dp3225
g85
g86
ssg67
g3214
sg60
(lp3226
S':'
asbag53
(g74
g55
NtRp3227
(dp3228
g58
(dp3229
sg67
g3214
sg60
(lp3230
g53
(g54
g55
NtRp3231
(dp3232
g58
(dp3233
g66
I3
ssg67
g3227
sg60
(lp3234
S'7fbb689eb65efc2020735b0b71b00247'
p3235
asbasbasbag53
(g69
g55
NtRp3236
(dp3237
g58
(dp3238
sg67
g3123
sg60
(lp3239
g53
(g74
g55
NtRp3240
(dp3241
g58
(dp3242
g78
g79
ssg67
g3236
sg60
(lp3243
S'registration_id'
p3244
asbag53
(g74
g55
NtRp3245
(dp3246
g58
(dp3247
g85
g86
ssg67
g3236
sg60
(lp3248
S':'
asbag53
(g74
g55
NtRp3249
(dp3250
g58
(dp3251
sg67
g3236
sg60
(lp3252
g53
(g54
g55
NtRp3253
(dp3254
g58
(dp3255
g66
I3
ssg67
g3249
sg60
(lp3256
S''
asbasbasbag53
(g69
g55
NtRp3257
(dp3258
g58
(dp3259
sg67
g3123
sg60
(lp3260
g53
(g74
g55
NtRp3261
(dp3262
g58
(dp3263
g78
g79
ssg67
g3257
sg60
(lp3264
S'registration_key'
p3265
asbag53
(g74
g55
NtRp3266
(dp3267
g58
(dp3268
g85
g86
ssg67
g3257
sg60
(lp3269
S':'
asbag53
(g74
g55
NtRp3270
(dp3271
g58
(dp3272
sg67
g3257
sg60
(lp3273
g53
(g54
g55
NtRp3274
(dp3275
g58
(dp3276
g66
I3
ssg67
g3270
sg60
(lp3277
S''
asbasbasbag53
(g69
g55
NtRp3278
(dp3279
g58
(dp3280
sg67
g3123
sg60
(lp3281
g53
(g74
g55
NtRp3282
(dp3283
g58
(dp3284
g78
g79
ssg67
g3278
sg60
(lp3285
S'reset_password_key'
p3286
asbag53
(g74
g55
NtRp3287
(dp3288
g58
(dp3289
g85
g86
ssg67
g3278
sg60
(lp3290
S':'
asbag53
(g74
g55
NtRp3291
(dp3292
g58
(dp3293
sg67
g3278
sg60
(lp3294
g53
(g54
g55
NtRp3295
(dp3296
g58
(dp3297
g66
I3
ssg67
g3291
sg60
(lp3298
S''
asbasbasbasbasbasbasbag53
(g69
g55
NtRp3299
(dp3300
g58
(dp3301
sg67
g3032
sg60
(lp3302
g53
(g74
g55
NtRp3303
(dp3304
g58
(dp3305
g78
g79
ssg67
g3299
sg60
(lp3306
S'user_groups'
p3307
asbag53
(g74
g55
NtRp3308
(dp3309
g58
(dp3310
g85
g86
ssg67
g3299
sg60
(lp3311
S':'
asbag53
(g74
g55
NtRp3312
(dp3313
g58
(dp3314
sg67
g3299
sg60
(lp3315
g53
(g54
g55
NtRp3316
(dp3317
g58
(dp3318
g66
I4
ssg67
g3312
sg60
(lp3319
g53
(g62
g55
NtRp3320
(dp3321
g58
(dp3322
g66
I3
ssg67
Nsg60
(lp3323
g53
(g69
g55
NtRp3324
(dp3325
g58
(dp3326
sg67
g3320
sg60
(lp3327
g53
(g74
g55
NtRp3328
(dp3329
g58
(dp3330
g78
g79
ssg67
g3324
sg60
(lp3331
S'2'
asbag53
(g74
g55
NtRp3332
(dp3333
g58
(dp3334
g85
g86
ssg67
g3324
sg60
(lp3335
S':'
asbag53
(g74
g55
NtRp3336
(dp3337
g58
(dp3338
sg67
g3324
sg60
(lp3339
g53
(g54
g55
NtRp3340
(dp3341
g58
(dp3342
g66
I3
ssg67
g3336
sg60
(lp3343
S'user_2'
p3344
asbasbasbasbasbasbasbasbasbasbasbag53
(g69
g55
NtRp3345
(dp3346
g58
(dp3347
sg67
g3007
sg60
(lp3348
g53
(g74
g55
NtRp3349
(dp3350
g58
(dp3351
g78
g79
ssg67
g3345
sg60
(lp3352
S'last_query'
p3353
asbag53
(g74
g55
NtRp3354
(dp3355
g58
(dp3356
g85
g86
ssg67
g3345
sg60
(lp3357
S':'
asbag53
(g74
g55
NtRp3358
(dp3359
g58
(dp3360
sg67
g3345
sg60
(lp3361
g53
(g54
g55
NtRp3362
(dp3363
g58
(dp3364
g66
I5
ssg67
g3358
sg60
(lp3365
S'db.atracao.id>0'
p3366
asbasbasbasbasbsS'etype'
p3367
S"<class 'sqlite3.OperationalError'>"
p3368
sS'date'
p3369
S'Thu Aug 30 09:59:12 2012'
p3370
sS'response'
p3371
g53
(g54
g55
NtRp3372
(dp3373
g58
(dp3374
sg60
(lp3375
g53
(g62
g55
NtRp3376
(dp3377
g58
(dp3378
g66
I5
ssg67
Nsg60
(lp3379
g53
(g69
g55
NtRp3380
(dp3381
g58
(dp3382
sg67
g3376
sg60
(lp3383
g53
(g74
g55
NtRp3384
(dp3385
g58
(dp3386
g78
g79
ssg67
g3380
sg60
(lp3387
g151
asbag53
(g74
g55
NtRp3388
(dp3389
g58
(dp3390
g85
g86
ssg67
g3380
sg60
(lp3391
S':'
asbag53
(g74
g55
NtRp3392
(dp3393
g58
(dp3394
sg67
g3380
sg60
(lp3395
g53
(g54
g55
NtRp3396
(dp3397
g58
(dp3398
g66
I5
ssg67
g3392
sg60
(lp3399
S'<cStringIO.StringO object at 0x07DD4400>'
p3400
asbasbasbag53
(g69
g55
NtRp3401
(dp3402
g58
(dp3403
sg67
g3376
sg60
(lp3404
g53
(g74
g55
NtRp3405
(dp3406
g58
(dp3407
g78
g79
ssg67
g3401
sg60
(lp3408
g217
asbag53
(g74
g55
NtRp3409
(dp3410
g58
(dp3411
g85
g86
ssg67
g3401
sg60
(lp3412
S':'
asbag53
(g74
g55
NtRp3413
(dp3414
g58
(dp3415
sg67
g3401
sg60
(lp3416
g53
(g54
g55
NtRp3417
(dp3418
g58
(dp3419
g66
I5
ssg67
g3413
sg60
(lp3420
g53
(g62
g55
NtRp3421
(dp3422
g58
(dp3423
g66
I4
ssg67
Nsg60
(lp3424
g53
(g69
g55
NtRp3425
(dp3426
g58
(dp3427
sg67
g3421
sg60
(lp3428
g53
(g74
g55
NtRp3429
(dp3430
g58
(dp3431
g78
g79
ssg67
g3425
sg60
(lp3432
S'session_id_iguassupass'
p3433
asbag53
(g74
g55
NtRp3434
(dp3435
g58
(dp3436
g85
g86
ssg67
g3425
sg60
(lp3437
S':'
asbag53
(g74
g55
NtRp3438
(dp3439
g58
(dp3440
sg67
g3425
sg60
(lp3441
g53
(g54
g55
NtRp3442
(dp3443
g58
(dp3444
g66
I4
ssg67
g3438
sg60
(lp3445
g53
(g62
g55
NtRp3446
(dp3447
g58
(dp3448
g66
I3
ssg67
Nsg60
(lp3449
g53
(g69
g55
NtRp3450
(dp3451
g58
(dp3452
sg67
g3446
sg60
(lp3453
g53
(g74
g55
NtRp3454
(dp3455
g58
(dp3456
g78
g79
ssg67
g3450
sg60
(lp3457
g267
asbag53
(g74
g55
NtRp3458
(dp3459
g58
(dp3460
g85
g86
ssg67
g3450
sg60
(lp3461
S':'
asbag53
(g74
g55
NtRp3462
(dp3463
g58
(dp3464
sg67
g3450
sg60
(lp3465
g53
(g54
g55
NtRp3466
(dp3467
g58
(dp3468
g66
I3
ssg67
g3462
sg60
(lp3469
S''
asbasbasbag53
(g69
g55
NtRp3470
(dp3471
g58
(dp3472
sg67
g3446
sg60
(lp3473
g53
(g74
g55
NtRp3474
(dp3475
g58
(dp3476
g78
g79
ssg67
g3470
sg60
(lp3477
g288
asbag53
(g74
g55
NtRp3478
(dp3479
g58
(dp3480
g85
g86
ssg67
g3470
sg60
(lp3481
S':'
asbag53
(g74
g55
NtRp3482
(dp3483
g58
(dp3484
sg67
g3470
sg60
(lp3485
g53
(g54
g55
NtRp3486
(dp3487
g58
(dp3488
g66
I3
ssg67
g3482
sg60
(lp3489
S''
asbasbasbag53
(g69
g55
NtRp3490
(dp3491
g58
(dp3492
sg67
g3446
sg60
(lp3493
g53
(g74
g55
NtRp3494
(dp3495
g58
(dp3496
g78
g79
ssg67
g3490
sg60
(lp3497
g309
asbag53
(g74
g55
NtRp3498
(dp3499
g58
(dp3500
g85
g86
ssg67
g3490
sg60
(lp3501
S':'
asbag53
(g74
g55
NtRp3502
(dp3503
g58
(dp3504
sg67
g3490
sg60
(lp3505
g53
(g54
g55
NtRp3506
(dp3507
g58
(dp3508
g66
I3
ssg67
g3502
sg60
(lp3509
S''
asbasbasbag53
(g69
g55
NtRp3510
(dp3511
g58
(dp3512
sg67
g3446
sg60
(lp3513
g53
(g74
g55
NtRp3514
(dp3515
g58
(dp3516
g78
g79
ssg67
g3510
sg60
(lp3517
g330
asbag53
(g74
g55
NtRp3518
(dp3519
g58
(dp3520
g85
g86
ssg67
g3510
sg60
(lp3521
S':'
asbag53
(g74
g55
NtRp3522
(dp3523
g58
(dp3524
sg67
g3510
sg60
(lp3525
g53
(g54
g55
NtRp3526
(dp3527
g58
(dp3528
g66
I3
ssg67
g3522
sg60
(lp3529
S''
asbasbasbag53
(g69
g55
NtRp3530
(dp3531
g58
(dp3532
sg67
g3446
sg60
(lp3533
g53
(g74
g55
NtRp3534
(dp3535
g58
(dp3536
g78
g79
ssg67
g3530
sg60
(lp3537
g351
asbag53
(g74
g55
NtRp3538
(dp3539
g58
(dp3540
g85
g86
ssg67
g3530
sg60
(lp3541
S':'
asbag53
(g74
g55
NtRp3542
(dp3543
g58
(dp3544
sg67
g3530
sg60
(lp3545
g53
(g54
g55
NtRp3546
(dp3547
g58
(dp3548
g66
I3
ssg67
g3542
sg60
(lp3549
S'/'
asbasbasbag53
(g69
g55
NtRp3550
(dp3551
g58
(dp3552
sg67
g3446
sg60
(lp3553
g53
(g74
g55
NtRp3554
(dp3555
g58
(dp3556
g78
g79
ssg67
g3550
sg60
(lp3557
g372
asbag53
(g74
g55
NtRp3558
(dp3559
g58
(dp3560
g85
g86
ssg67
g3550
sg60
(lp3561
S':'
asbag53
(g74
g55
NtRp3562
(dp3563
g58
(dp3564
sg67
g3550
sg60
(lp3565
g53
(g54
g55
NtRp3566
(dp3567
g58
(dp3568
g66
I3
ssg67
g3562
sg60
(lp3569
S''
asbasbasbag53
(g69
g55
NtRp3570
(dp3571
g58
(dp3572
sg67
g3446
sg60
(lp3573
g53
(g74
g55
NtRp3574
(dp3575
g58
(dp3576
g78
g79
ssg67
g3570
sg60
(lp3577
g393
asbag53
(g74
g55
NtRp3578
(dp3579
g58
(dp3580
g85
g86
ssg67
g3570
sg60
(lp3581
S':'
asbag53
(g74
g55
NtRp3582
(dp3583
g58
(dp3584
sg67
g3570
sg60
(lp3585
g53
(g54
g55
NtRp3586
(dp3587
g58
(dp3588
g66
I3
ssg67
g3582
sg60
(lp3589
S''
asbasbasbasbasbasbasbasbasbasbasbag53
(g69
g55
NtRp3590
(dp3591
g58
(dp3592
sg67
g3376
sg60
(lp3593
g53
(g74
g55
NtRp3594
(dp3595
g58
(dp3596
g78
g79
ssg67
g3590
sg60
(lp3597
S'delimiters'
p3598
asbag53
(g74
g55
NtRp3599
(dp3600
g58
(dp3601
g85
g86
ssg67
g3590
sg60
(lp3602
S':'
asbag53
(g74
g55
NtRp3603
(dp3604
g58
(dp3605
sg67
g3590
sg60
(lp3606
g53
(g54
g55
NtRp3607
(dp3608
g58
(dp3609
g66
I5
ssg67
g3603
sg60
(lp3610
g53
(g62
g55
NtRp3611
(dp3612
g58
(dp3613
g66
I4
ssg67
Nsg60
(lp3614
g53
(g69
g55
NtRp3615
(dp3616
g58
(dp3617
sg67
g3611
sg60
(lp3618
g53
(g74
g55
NtRp3619
(dp3620
g58
(dp3621
sg67
g3615
sg60
(lp3622
g53
(g54
g55
NtRp3623
(dp3624
g58
(dp3625
g66
I4
ssg67
g3619
sg60
(lp3626
S'{{'
p3627
asbasbasbag53
(g69
g55
NtRp3628
(dp3629
g58
(dp3630
sg67
g3611
sg60
(lp3631
g53
(g74
g55
NtRp3632
(dp3633
g58
(dp3634
sg67
g3628
sg60
(lp3635
g53
(g54
g55
NtRp3636
(dp3637
g58
(dp3638
g66
I4
ssg67
g3632
sg60
(lp3639
S'}}'
p3640
asbasbasbasbasbasbasbag53
(g69
g55
NtRp3641
(dp3642
g58
(dp3643
sg67
g3376
sg60
(lp3644
g53
(g74
g55
NtRp3645
(dp3646
g58
(dp3647
g78
g79
ssg67
g3641
sg60
(lp3648
S'files'
p3649
asbag53
(g74
g55
NtRp3650
(dp3651
g58
(dp3652
g85
g86
ssg67
g3641
sg60
(lp3653
S':'
asbag53
(g74
g55
NtRp3654
(dp3655
g58
(dp3656
sg67
g3641
sg60
(lp3657
g53
(g54
g55
NtRp3658
(dp3659
g58
(dp3660
g66
I5
ssg67
g3654
sg60
(lp3661
g53
(g62
g55
NtRp3662
(dp3663
g58
(dp3664
g66
I4
ssg67
Nsg60
(lp3665
sbasbasbasbag53
(g69
g55
NtRp3666
(dp3667
g58
(dp3668
sg67
g3376
sg60
(lp3669
g53
(g74
g55
NtRp3670
(dp3671
g58
(dp3672
g78
g79
ssg67
g3666
sg60
(lp3673
S'flash'
p3674
asbag53
(g74
g55
NtRp3675
(dp3676
g58
(dp3677
g85
g86
ssg67
g3666
sg60
(lp3678
S':'
asbag53
(g74
g55
NtRp3679
(dp3680
g58
(dp3681
sg67
g3666
sg60
(lp3682
g53
(g54
g55
NtRp3683
(dp3684
g58
(dp3685
g66
I5
ssg67
g3679
sg60
(lp3686
S''
asbasbasbag53
(g69
g55
NtRp3687
(dp3688
g58
(dp3689
sg67
g3376
sg60
(lp3690
g53
(g74
g55
NtRp3691
(dp3692
g58
(dp3693
g78
g79
ssg67
g3687
sg60
(lp3694
S'generic_patterns'
p3695
asbag53
(g74
g55
NtRp3696
(dp3697
g58
(dp3698
g85
g86
ssg67
g3687
sg60
(lp3699
S':'
asbag53
(g74
g55
NtRp3700
(dp3701
g58
(dp3702
sg67
g3687
sg60
(lp3703
g53
(g54
g55
NtRp3704
(dp3705
g58
(dp3706
g66
I5
ssg67
g3700
sg60
(lp3707
g53
(g62
g55
NtRp3708
(dp3709
g58
(dp3710
g66
I4
ssg67
Nsg60
(lp3711
g53
(g69
g55
NtRp3712
(dp3713
g58
(dp3714
sg67
g3708
sg60
(lp3715
g53
(g74
g55
NtRp3716
(dp3717
g58
(dp3718
sg67
g3712
sg60
(lp3719
g53
(g54
g55
NtRp3720
(dp3721
g58
(dp3722
g66
I4
ssg67
g3716
sg60
(lp3723
S'*'
asbasbasbasbasbasbasbag53
(g69
g55
NtRp3724
(dp3725
g58
(dp3726
sg67
g3376
sg60
(lp3727
g53
(g74
g55
NtRp3728
(dp3729
g58
(dp3730
g78
g79
ssg67
g3724
sg60
(lp3731
S'headers'
p3732
asbag53
(g74
g55
NtRp3733
(dp3734
g58
(dp3735
g85
g86
ssg67
g3724
sg60
(lp3736
S':'
asbag53
(g74
g55
NtRp3737
(dp3738
g58
(dp3739
sg67
g3724
sg60
(lp3740
g53
(g54
g55
NtRp3741
(dp3742
g58
(dp3743
g66
I5
ssg67
g3737
sg60
(lp3744
g53
(g62
g55
NtRp3745
(dp3746
g58
(dp3747
g66
I4
ssg67
Nsg60
(lp3748
g53
(g69
g55
NtRp3749
(dp3750
g58
(dp3751
sg67
g3745
sg60
(lp3752
g53
(g74
g55
NtRp3753
(dp3754
g58
(dp3755
g78
g79
ssg67
g3749
sg60
(lp3756
S'Cache-Control'
p3757
asbag53
(g74
g55
NtRp3758
(dp3759
g58
(dp3760
g85
g86
ssg67
g3749
sg60
(lp3761
S':'
asbag53
(g74
g55
NtRp3762
(dp3763
g58
(dp3764
sg67
g3749
sg60
(lp3765
g53
(g54
g55
NtRp3766
(dp3767
g58
(dp3768
g66
I4
ssg67
g3762
sg60
(lp3769
S'no-store, no-cache, must-revalidate, post-check=0, pre-check=0'
p3770
asbasbasbag53
(g69
g55
NtRp3771
(dp3772
g58
(dp3773
sg67
g3745
sg60
(lp3774
g53
(g74
g55
NtRp3775
(dp3776
g58
(dp3777
g78
g79
ssg67
g3771
sg60
(lp3778
S'Content-Type'
p3779
asbag53
(g74
g55
NtRp3780
(dp3781
g58
(dp3782
g85
g86
ssg67
g3771
sg60
(lp3783
S':'
asbag53
(g74
g55
NtRp3784
(dp3785
g58
(dp3786
sg67
g3771
sg60
(lp3787
g53
(g54
g55
NtRp3788
(dp3789
g58
(dp3790
g66
I4
ssg67
g3784
sg60
(lp3791
S'text/html; charset=utf-8'
p3792
asbasbasbag53
(g69
g55
NtRp3793
(dp3794
g58
(dp3795
sg67
g3745
sg60
(lp3796
g53
(g74
g55
NtRp3797
(dp3798
g58
(dp3799
g78
g79
ssg67
g3793
sg60
(lp3800
S'Expires'
p3801
asbag53
(g74
g55
NtRp3802
(dp3803
g58
(dp3804
g85
g86
ssg67
g3793
sg60
(lp3805
S':'
asbag53
(g74
g55
NtRp3806
(dp3807
g58
(dp3808
sg67
g3793
sg60
(lp3809
g53
(g54
g55
NtRp3810
(dp3811
g58
(dp3812
g66
I4
ssg67
g3806
sg60
(lp3813
S'Thu, 30 Aug 2012 12:59:11 GMT'
p3814
asbasbasbag53
(g69
g55
NtRp3815
(dp3816
g58
(dp3817
sg67
g3745
sg60
(lp3818
g53
(g74
g55
NtRp3819
(dp3820
g58
(dp3821
g78
g79
ssg67
g3815
sg60
(lp3822
S'Pragma'
p3823
asbag53
(g74
g55
NtRp3824
(dp3825
g58
(dp3826
g85
g86
ssg67
g3815
sg60
(lp3827
S':'
asbag53
(g74
g55
NtRp3828
(dp3829
g58
(dp3830
sg67
g3815
sg60
(lp3831
g53
(g54
g55
NtRp3832
(dp3833
g58
(dp3834
g66
I4
ssg67
g3828
sg60
(lp3835
S'no-cache'
p3836
asbasbasbag53
(g69
g55
NtRp3837
(dp3838
g58
(dp3839
sg67
g3745
sg60
(lp3840
g53
(g74
g55
NtRp3841
(dp3842
g58
(dp3843
g78
g79
ssg67
g3837
sg60
(lp3844
S'X-Powered-By'
p3845
asbag53
(g74
g55
NtRp3846
(dp3847
g58
(dp3848
g85
g86
ssg67
g3837
sg60
(lp3849
S':'
asbag53
(g74
g55
NtRp3850
(dp3851
g58
(dp3852
sg67
g3837
sg60
(lp3853
g53
(g54
g55
NtRp3854
(dp3855
g58
(dp3856
g66
I4
ssg67
g3850
sg60
(lp3857
S'web2py'
p3858
asbasbasbasbasbasbasbag53
(g69
g55
NtRp3859
(dp3860
g58
(dp3861
sg67
g3376
sg60
(lp3862
g53
(g74
g55
NtRp3863
(dp3864
g58
(dp3865
g78
g79
ssg67
g3859
sg60
(lp3866
S'menu'
p3867
asbag53
(g74
g55
NtRp3868
(dp3869
g58
(dp3870
g85
g86
ssg67
g3859
sg60
(lp3871
S':'
asbag53
(g74
g55
NtRp3872
(dp3873
g58
(dp3874
sg67
g3859
sg60
(lp3875
g53
(g54
g55
NtRp3876
(dp3877
g58
(dp3878
g66
I5
ssg67
g3872
sg60
(lp3879
g53
(g62
g55
NtRp3880
(dp3881
g58
(dp3882
g66
I4
ssg67
Nsg60
(lp3883
sbasbasbasbag53
(g69
g55
NtRp3884
(dp3885
g58
(dp3886
sg67
g3376
sg60
(lp3887
g53
(g74
g55
NtRp3888
(dp3889
g58
(dp3890
g78
g79
ssg67
g3884
sg60
(lp3891
S'meta'
p3892
asbag53
(g74
g55
NtRp3893
(dp3894
g58
(dp3895
g85
g86
ssg67
g3884
sg60
(lp3896
S':'
asbag53
(g74
g55
NtRp3897
(dp3898
g58
(dp3899
sg67
g3884
sg60
(lp3900
g53
(g54
g55
NtRp3901
(dp3902
g58
(dp3903
g66
I5
ssg67
g3897
sg60
(lp3904
g53
(g62
g55
NtRp3905
(dp3906
g58
(dp3907
g66
I4
ssg67
Nsg60
(lp3908
sbasbasbasbag53
(g69
g55
NtRp3909
(dp3910
g58
(dp3911
sg67
g3376
sg60
(lp3912
g53
(g74
g55
NtRp3913
(dp3914
g58
(dp3915
g78
g79
ssg67
g3909
sg60
(lp3916
S'postprocessing'
p3917
asbag53
(g74
g55
NtRp3918
(dp3919
g58
(dp3920
g85
g86
ssg67
g3909
sg60
(lp3921
S':'
asbag53
(g74
g55
NtRp3922
(dp3923
g58
(dp3924
sg67
g3909
sg60
(lp3925
g53
(g54
g55
NtRp3926
(dp3927
g58
(dp3928
g66
I5
ssg67
g3922
sg60
(lp3929
g53
(g62
g55
NtRp3930
(dp3931
g58
(dp3932
g66
I4
ssg67
Nsg60
(lp3933
sbasbasbasbag53
(g69
g55
NtRp3934
(dp3935
g58
(dp3936
sg67
g3376
sg60
(lp3937
g53
(g74
g55
NtRp3938
(dp3939
g58
(dp3940
g78
g79
ssg67
g3934
sg60
(lp3941
S'session_file'
p3942
asbag53
(g74
g55
NtRp3943
(dp3944
g58
(dp3945
g85
g86
ssg67
g3934
sg60
(lp3946
S':'
asbag53
(g74
g55
NtRp3947
(dp3948
g58
(dp3949
sg67
g3934
sg60
(lp3950
g53
(g54
g55
NtRp3951
(dp3952
g58
(dp3953
g66
I5
ssg67
g3947
sg60
(lp3954
S"<open file 'C:\\Users\\ceasbpi\\Dropbox\\web2py\\applications\\IguassuPass\\sessions\\127.0.0.1-0ebf5fce-933e-4652-8d87-32a636575dba', mode 'rb+' at 0x07ACF5C0>"
p3955
asbasbasbag53
(g69
g55
NtRp3956
(dp3957
g58
(dp3958
sg67
g3376
sg60
(lp3959
g53
(g74
g55
NtRp3960
(dp3961
g58
(dp3962
g78
g79
ssg67
g3956
sg60
(lp3963
S'session_filename'
p3964
asbag53
(g74
g55
NtRp3965
(dp3966
g58
(dp3967
g85
g86
ssg67
g3956
sg60
(lp3968
S':'
asbag53
(g74
g55
NtRp3969
(dp3970
g58
(dp3971
sg67
g3956
sg60
(lp3972
g53
(g54
g55
NtRp3973
(dp3974
g58
(dp3975
g66
I5
ssg67
g3969
sg60
(lp3976
S'C:\\Users\\ceasbpi\\Dropbox\\web2py\\applications\\IguassuPass\\sessions\\127.0.0.1-0ebf5fce-933e-4652-8d87-32a636575dba'
p3977
asbasbasbag53
(g69
g55
NtRp3978
(dp3979
g58
(dp3980
sg67
g3376
sg60
(lp3981
g53
(g74
g55
NtRp3982
(dp3983
g58
(dp3984
g78
g79
ssg67
g3978
sg60
(lp3985
S'session_id'
p3986
asbag53
(g74
g55
NtRp3987
(dp3988
g58
(dp3989
g85
g86
ssg67
g3978
sg60
(lp3990
S':'
asbag53
(g74
g55
NtRp3991
(dp3992
g58
(dp3993
sg67
g3978
sg60
(lp3994
g53
(g54
g55
NtRp3995
(dp3996
g58
(dp3997
g66
I5
ssg67
g3991
sg60
(lp3998
S'127.0.0.1-0ebf5fce-933e-4652-8d87-32a636575dba'
p3999
asbasbasbag53
(g69
g55
NtRp4000
(dp4001
g58
(dp4002
sg67
g3376
sg60
(lp4003
g53
(g74
g55
NtRp4004
(dp4005
g58
(dp4006
g78
g79
ssg67
g4000
sg60
(lp4007
S'session_id_name'
p4008
asbag53
(g74
g55
NtRp4009
(dp4010
g58
(dp4011
g85
g86
ssg67
g4000
sg60
(lp4012
S':'
asbag53
(g74
g55
NtRp4013
(dp4014
g58
(dp4015
sg67
g4000
sg60
(lp4016
g53
(g54
g55
NtRp4017
(dp4018
g58
(dp4019
g66
I5
ssg67
g4013
sg60
(lp4020
g3433
asbasbasbag53
(g69
g55
NtRp4021
(dp4022
g58
(dp4023
sg67
g3376
sg60
(lp4024
g53
(g74
g55
NtRp4025
(dp4026
g58
(dp4027
g78
g79
ssg67
g4021
sg60
(lp4028
S'session_locked'
p4029
asbag53
(g74
g55
NtRp4030
(dp4031
g58
(dp4032
g85
g86
ssg67
g4021
sg60
(lp4033
S':'
asbag53
(g74
g55
NtRp4034
(dp4035
g58
(dp4036
sg67
g4021
sg60
(lp4037
g53
(g54
g55
NtRp4038
(dp4039
g58
(dp4040
g66
I5
ssg67
g4034
sg60
(lp4041
g1613
asbasbasbag53
(g69
g55
NtRp4042
(dp4043
g58
(dp4044
sg67
g3376
sg60
(lp4045
g53
(g74
g55
NtRp4046
(dp4047
g58
(dp4048
g78
g79
ssg67
g4042
sg60
(lp4049
S'session_new'
p4050
asbag53
(g74
g55
NtRp4051
(dp4052
g58
(dp4053
g85
g86
ssg67
g4042
sg60
(lp4054
S':'
asbag53
(g74
g55
NtRp4055
(dp4056
g58
(dp4057
sg67
g4042
sg60
(lp4058
g53
(g54
g55
NtRp4059
(dp4060
g58
(dp4061
g66
I5
ssg67
g4055
sg60
(lp4062
g96
asbasbasbag53
(g69
g55
NtRp4063
(dp4064
g58
(dp4065
sg67
g3376
sg60
(lp4066
g53
(g74
g55
NtRp4067
(dp4068
g58
(dp4069
g78
g79
ssg67
g4063
sg60
(lp4070
S'status'
p4071
asbag53
(g74
g55
NtRp4072
(dp4073
g58
(dp4074
g85
g86
ssg67
g4063
sg60
(lp4075
S':'
asbag53
(g74
g55
NtRp4076
(dp4077
g58
(dp4078
sg67
g4063
sg60
(lp4079
g53
(g54
g55
NtRp4080
(dp4081
g58
(dp4082
g66
I5
ssg67
g4076
sg60
(lp4083
S'200'
p4084
asbasbasbag53
(g69
g55
NtRp4085
(dp4086
g58
(dp4087
sg67
g3376
sg60
(lp4088
g53
(g74
g55
NtRp4089
(dp4090
g58
(dp4091
g78
g79
ssg67
g4085
sg60
(lp4092
g2277
asbag53
(g74
g55
NtRp4093
(dp4094
g58
(dp4095
g85
g86
ssg67
g4085
sg60
(lp4096
S':'
asbag53
(g74
g55
NtRp4097
(dp4098
g58
(dp4099
sg67
g4085
sg60
(lp4100
g53
(g54
g55
NtRp4101
(dp4102
g58
(dp4103
g66
I5
ssg67
g4097
sg60
(lp4104
g2290
asbasbasbag53
(g69
g55
NtRp4105
(dp4106
g58
(dp4107
sg67
g3376
sg60
(lp4108
g53
(g74
g55
NtRp4109
(dp4110
g58
(dp4111
g78
g79
ssg67
g4105
sg60
(lp4112
S'view'
p4113
asbag53
(g74
g55
NtRp4114
(dp4115
g58
(dp4116
g85
g86
ssg67
g4105
sg60
(lp4117
S':'
asbag53
(g74
g55
NtRp4118
(dp4119
g58
(dp4120
sg67
g4105
sg60
(lp4121
g53
(g54
g55
NtRp4122
(dp4123
g58
(dp4124
g66
I5
ssg67
g4118
sg60
(lp4125
S'appadmin/index.html'
p4126
asbasbasbasbasbsS'locals'
p4127
(dp4128
S'a'
S"('CREATE TABLE auth_user(\\n    id INTEGER PRIMARY K...d_key CHAR(512),\\n    registration_id CHAR(512)\\n);',)"
p4129
sS'self'
p4130
S'<gluon.dal.SQLiteAdapter object at 0x07FF96D0>'
p4131
sS'b'
g41
sS't0'
p4132
S'1346331552.0179999'
p4133
sssS'traceback'
p4134
S'Traceback (most recent call last):\n  File "gluon/restricted.py", line 205, in restricted\n  File "C:\\Users\\ceasbpi\\Dropbox\\web2py\\applications\\IguassuPass\\models\\db.py", line 47, in <module>\n  File "gluon/tools.py", line 1309, in define_tables\n  File "gluon/dal.py", line 6320, in define_table\n  File "gluon/dal.py", line 719, in create_table\n  File "gluon/dal.py", line 1381, in create_sequence_and_triggers\n  File "gluon/dal.py", line 1392, in execute\n  File "gluon/dal.py", line 1386, in log_execute\nOperationalError: table auth_user already exists\n'
p4135
s.