(dp1
S'output'
p2
S"<type 'exceptions.KeyError'> 'multimedias'"
p3
sS'layer'
p4
S'C:\\Users\\ceasbpi\\Dropbox\\web2py\\applications\\IguassuPass\\controllers/default.py'
p5
sS'code'
p6
S'# -*- coding: utf-8 -*-\n# this file is released under public domain and you can use without limitations\n\n#########################################################################\n## This is a samples controller\n## - index is the default action of any application\n## - user is required for authentication and authorization\n## - download is for downloading files uploaded in the db (does streaming)\n## - call exposes all registered services (none by default)\n#########################################################################\n\ndef index():\n    """\n    example action using the internationalization operator T and flash\n    rendered by views/default/index.html or views/generic.html\n    """\n    response.flash = "Welcome to web2py!"\n    return dict(message=T(\'Hello World\'))\n\ndef user():\n    """\n    exposes:\n    http://..../[app]/default/user/login\n    http://..../[app]/default/user/logout\n    http://..../[app]/default/user/register\n    http://..../[app]/default/user/profile\n    http://..../[app]/default/user/retrieve_password\n    http://..../[app]/default/user/change_password\n    use @auth.requires_login()\n        @auth.requires_membership(\'group name\')\n        @auth.requires_permission(\'read\',\'table name\',record_id)\n    to decorate functions that need access control\n    """\n    return dict(form=auth())\n\ndef getstarted():\n \n    return (dict(message=T(\'GetStarted\')))\n\ndef customersfeedback():\n\n    return(dict(message=T(\'feedback\')))\n\ndef download():\n    """\n    allows downloading of uploaded files\n    http://..../[app]/default/download/[filename]\n    """\n    return response.download(request,db)\n\n\ndef call():\n    """\n    exposes services. for example:\n    http://..../[app]/default/call/jsonrpc\n    decorate with @services.jsonrpc the functions to expose\n    supports xml, json, xmlrpc, jsonrpc, amfrpc, rss, csv\n    """\n    return service()\n\n\n@auth.requires_signature()\ndef data():\n    """\n    http://..../[app]/default/data/tables\n    http://..../[app]/default/data/create/[table]\n    http://..../[app]/default/data/read/[table]/[id]\n    http://..../[app]/default/data/update/[table]/[id]\n    http://..../[app]/default/data/delete/[table]/[id]\n    http://..../[app]/default/data/select/[table]\n    http://..../[app]/default/data/search/[table]\n    but URLs must be signed, i.e. linked with\n      A(\'table\',_href=URL(\'data/tables\',user_signature=True))\n    or with the signed load operator\n      LOAD(\'default\',\'data.load\',args=\'tables\',ajax=True,user_signature=True)\n    """\n    return dict(form=crud())\n\ndef atracoes():\n    #atracoes = db(db.atracao).select(orderby=db.atracao.nome)\n    multimedias = db(db.multimedias).select(orderby=db.multimedia.nome)\n    #multimedias = db(db.multimedia.atracao == atracoes).select(orderby= db.multimedia.id)\n    return locals()\n\n@auth.requires_login()\ndef atracao_create():\n    form= crud.create(db.atracao, next=\'atracoes\')\n    return locals()\n\n@auth.requires_login()\ndef atracao_edit():\n    atracao = db.atracao(request.args(0)) or redirect(URL(\'atracoes\'))\n    form = crud.update(db.atracao, atracao, next=\'atracoes\')\n    return locals()\n\n@auth.requires_login()\ndef multimedia_create():\n    #db.multimedia.atracao.default = request.args(0)\n    form = crud.create(db.multimedia)\n    return locals()\n\n@auth.requires_login()\ndef multimedia_edit():\n    multimedia = db.multimedia(request.args(0)) or redirect(URL(\'atracoes\'))\n    form = crud.update(db.multimedia, multimedia)\n    return locals()\n\nresponse._vars=response._caller(atracoes)\n'
p7
sS'snapshot'
p8
(dp9
S'exception'
p10
(dp11
S'__hash__'
p12
S"<method-wrapper '__hash__' of exceptions.KeyError object at 0x07B4EC38>"
p13
sS'__setattr__'
p14
S"<method-wrapper '__setattr__' of exceptions.KeyError object at 0x07B4EC38>"
p15
sS'__reduce_ex__'
p16
S'<built-in method __reduce_ex__ of exceptions.KeyError object at 0x07B4EC38>'
p17
sS'__getslice__'
p18
S"<method-wrapper '__getslice__' of exceptions.KeyError object at 0x07B4EC38>"
p19
sS'__getitem__'
p20
S"<method-wrapper '__getitem__' of exceptions.KeyError object at 0x07B4EC38>"
p21
sS'__setstate__'
p22
S'<built-in method __setstate__ of exceptions.KeyError object at 0x07B4EC38>'
p23
sS'__reduce__'
p24
S'<built-in method __reduce__ of exceptions.KeyError object at 0x07B4EC38>'
p25
sS'__str__'
p26
S"<method-wrapper '__str__' of exceptions.KeyError object at 0x07B4EC38>"
p27
sS'args'
p28
S"('multimedias',)"
p29
sS'__getattribute__'
p30
S"<method-wrapper '__getattribute__' of exceptions.KeyError object at 0x07B4EC38>"
p31
sS'__class__'
p32
S"<type 'exceptions.KeyError'>"
p33
sS'__delattr__'
p34
S"<method-wrapper '__delattr__' of exceptions.KeyError object at 0x07B4EC38>"
p35
sS'__repr__'
p36
S"<method-wrapper '__repr__' of exceptions.KeyError object at 0x07B4EC38>"
p37
sS'__dict__'
p38
S'{}'
p39
sS'__doc__'
p40
S"'Mapping key not found.'"
p41
sS'__init__'
p42
S"<method-wrapper '__init__' of exceptions.KeyError object at 0x07B4EC38>"
p43
sS'__new__'
p44
S'<built-in method __new__ of type object at 0x1E1CDFB8>'
p45
ssS'evalue'
p46
S"'multimedias'"
p47
sS'request'
p48
ccopy_reg
_reconstructor
p49
(cgluon.html
BEAUTIFY
p50
c__builtin__
object
p51
NtRp52
(dp53
S'attributes'
p54
(dp55
sS'components'
p56
(lp57
g49
(cgluon.html
TABLE
p58
g51
NtRp59
(dp60
g54
(dp61
S'level'
p62
I5
ssS'parent'
p63
Nsg56
(lp64
g49
(cgluon.html
TR
p65
g51
NtRp66
(dp67
g54
(dp68
sg63
g59
sg56
(lp69
g49
(cgluon.html
TD
p70
g51
NtRp71
(dp72
g54
(dp73
S'_style'
p74
S'font-weight:bold;vertical-align:top'
p75
ssg63
g66
sg56
(lp76
S'ajax'
p77
asbag49
(g70
g51
NtRp78
(dp79
g54
(dp80
S'_valign'
p81
S'top'
p82
ssg63
g66
sg56
(lp83
S':'
asbag49
(g70
g51
NtRp84
(dp85
g54
(dp86
sg63
g66
sg56
(lp87
g49
(g50
g51
NtRp88
(dp89
g54
(dp90
g62
I5
ssg63
g84
sg56
(lp91
S'False'
p92
asbasbasbag49
(g65
g51
NtRp93
(dp94
g54
(dp95
sg63
g59
sg56
(lp96
g49
(g70
g51
NtRp97
(dp98
g54
(dp99
g74
g75
ssg63
g93
sg56
(lp100
S'application'
p101
asbag49
(g70
g51
NtRp102
(dp103
g54
(dp104
g81
g82
ssg63
g93
sg56
(lp105
S':'
asbag49
(g70
g51
NtRp106
(dp107
g54
(dp108
sg63
g93
sg56
(lp109
g49
(g50
g51
NtRp110
(dp111
g54
(dp112
g62
I5
ssg63
g106
sg56
(lp113
S'IguassuPass'
p114
asbasbasbag49
(g65
g51
NtRp115
(dp116
g54
(dp117
sg63
g59
sg56
(lp118
g49
(g70
g51
NtRp119
(dp120
g54
(dp121
g74
g75
ssg63
g115
sg56
(lp122
g28
asbag49
(g70
g51
NtRp123
(dp124
g54
(dp125
g81
g82
ssg63
g115
sg56
(lp126
S':'
asbag49
(g70
g51
NtRp127
(dp128
g54
(dp129
sg63
g115
sg56
(lp130
g49
(g50
g51
NtRp131
(dp132
g54
(dp133
g62
I5
ssg63
g127
sg56
(lp134
g49
(g58
g51
NtRp135
(dp136
g54
(dp137
g62
I4
ssg63
Nsg56
(lp138
sbasbasbasbag49
(g65
g51
NtRp139
(dp140
g54
(dp141
sg63
g59
sg56
(lp142
g49
(g70
g51
NtRp143
(dp144
g54
(dp145
g74
g75
ssg63
g139
sg56
(lp146
S'body'
p147
asbag49
(g70
g51
NtRp148
(dp149
g54
(dp150
g81
g82
ssg63
g139
sg56
(lp151
S':'
asbag49
(g70
g51
NtRp152
(dp153
g54
(dp154
sg63
g139
sg56
(lp155
g49
(g50
g51
NtRp156
(dp157
g54
(dp158
g62
I5
ssg63
g152
sg56
(lp159
S'<cStringIO.StringO object at 0x076D9480>'
p160
asbasbasbag49
(g65
g51
NtRp161
(dp162
g54
(dp163
sg63
g59
sg56
(lp164
g49
(g70
g51
NtRp165
(dp166
g54
(dp167
g74
g75
ssg63
g161
sg56
(lp168
S'client'
p169
asbag49
(g70
g51
NtRp170
(dp171
g54
(dp172
g81
g82
ssg63
g161
sg56
(lp173
S':'
asbag49
(g70
g51
NtRp174
(dp175
g54
(dp176
sg63
g161
sg56
(lp177
g49
(g50
g51
NtRp178
(dp179
g54
(dp180
g62
I5
ssg63
g174
sg56
(lp181
S'127.0.0.1'
p182
asbasbasbag49
(g65
g51
NtRp183
(dp184
g54
(dp185
sg63
g59
sg56
(lp186
g49
(g70
g51
NtRp187
(dp188
g54
(dp189
g74
g75
ssg63
g183
sg56
(lp190
S'controller'
p191
asbag49
(g70
g51
NtRp192
(dp193
g54
(dp194
g81
g82
ssg63
g183
sg56
(lp195
S':'
asbag49
(g70
g51
NtRp196
(dp197
g54
(dp198
sg63
g183
sg56
(lp199
g49
(g50
g51
NtRp200
(dp201
g54
(dp202
g62
I5
ssg63
g196
sg56
(lp203
S'default'
p204
asbasbasbag49
(g65
g51
NtRp205
(dp206
g54
(dp207
sg63
g59
sg56
(lp208
g49
(g70
g51
NtRp209
(dp210
g54
(dp211
g74
g75
ssg63
g205
sg56
(lp212
S'cookies'
p213
asbag49
(g70
g51
NtRp214
(dp215
g54
(dp216
g81
g82
ssg63
g205
sg56
(lp217
S':'
asbag49
(g70
g51
NtRp218
(dp219
g54
(dp220
sg63
g205
sg56
(lp221
g49
(g50
g51
NtRp222
(dp223
g54
(dp224
g62
I5
ssg63
g218
sg56
(lp225
g49
(g58
g51
NtRp226
(dp227
g54
(dp228
g62
I4
ssg63
Nsg56
(lp229
g49
(g65
g51
NtRp230
(dp231
g54
(dp232
sg63
g226
sg56
(lp233
g49
(g70
g51
NtRp234
(dp235
g54
(dp236
g74
g75
ssg63
g230
sg56
(lp237
S'session_id_admin'
p238
asbag49
(g70
g51
NtRp239
(dp240
g54
(dp241
g81
g82
ssg63
g230
sg56
(lp242
S':'
asbag49
(g70
g51
NtRp243
(dp244
g54
(dp245
sg63
g230
sg56
(lp246
g49
(g50
g51
NtRp247
(dp248
g54
(dp249
g62
I4
ssg63
g243
sg56
(lp250
g49
(g58
g51
NtRp251
(dp252
g54
(dp253
g62
I3
ssg63
Nsg56
(lp254
g49
(g65
g51
NtRp255
(dp256
g54
(dp257
sg63
g251
sg56
(lp258
g49
(g70
g51
NtRp259
(dp260
g54
(dp261
g74
g75
ssg63
g255
sg56
(lp262
S'comment'
p263
asbag49
(g70
g51
NtRp264
(dp265
g54
(dp266
g81
g82
ssg63
g255
sg56
(lp267
S':'
asbag49
(g70
g51
NtRp268
(dp269
g54
(dp270
sg63
g255
sg56
(lp271
g49
(g50
g51
NtRp272
(dp273
g54
(dp274
g62
I3
ssg63
g268
sg56
(lp275
S''
asbasbasbag49
(g65
g51
NtRp276
(dp277
g54
(dp278
sg63
g251
sg56
(lp279
g49
(g70
g51
NtRp280
(dp281
g54
(dp282
g74
g75
ssg63
g276
sg56
(lp283
S'domain'
p284
asbag49
(g70
g51
NtRp285
(dp286
g54
(dp287
g81
g82
ssg63
g276
sg56
(lp288
S':'
asbag49
(g70
g51
NtRp289
(dp290
g54
(dp291
sg63
g276
sg56
(lp292
g49
(g50
g51
NtRp293
(dp294
g54
(dp295
g62
I3
ssg63
g289
sg56
(lp296
S''
asbasbasbag49
(g65
g51
NtRp297
(dp298
g54
(dp299
sg63
g251
sg56
(lp300
g49
(g70
g51
NtRp301
(dp302
g54
(dp303
g74
g75
ssg63
g297
sg56
(lp304
S'expires'
p305
asbag49
(g70
g51
NtRp306
(dp307
g54
(dp308
g81
g82
ssg63
g297
sg56
(lp309
S':'
asbag49
(g70
g51
NtRp310
(dp311
g54
(dp312
sg63
g297
sg56
(lp313
g49
(g50
g51
NtRp314
(dp315
g54
(dp316
g62
I3
ssg63
g310
sg56
(lp317
S''
asbasbasbag49
(g65
g51
NtRp318
(dp319
g54
(dp320
sg63
g251
sg56
(lp321
g49
(g70
g51
NtRp322
(dp323
g54
(dp324
g74
g75
ssg63
g318
sg56
(lp325
S'max-age'
p326
asbag49
(g70
g51
NtRp327
(dp328
g54
(dp329
g81
g82
ssg63
g318
sg56
(lp330
S':'
asbag49
(g70
g51
NtRp331
(dp332
g54
(dp333
sg63
g318
sg56
(lp334
g49
(g50
g51
NtRp335
(dp336
g54
(dp337
g62
I3
ssg63
g331
sg56
(lp338
S''
asbasbasbag49
(g65
g51
NtRp339
(dp340
g54
(dp341
sg63
g251
sg56
(lp342
g49
(g70
g51
NtRp343
(dp344
g54
(dp345
g74
g75
ssg63
g339
sg56
(lp346
S'path'
p347
asbag49
(g70
g51
NtRp348
(dp349
g54
(dp350
g81
g82
ssg63
g339
sg56
(lp351
S':'
asbag49
(g70
g51
NtRp352
(dp353
g54
(dp354
sg63
g339
sg56
(lp355
g49
(g50
g51
NtRp356
(dp357
g54
(dp358
g62
I3
ssg63
g352
sg56
(lp359
S''
asbasbasbag49
(g65
g51
NtRp360
(dp361
g54
(dp362
sg63
g251
sg56
(lp363
g49
(g70
g51
NtRp364
(dp365
g54
(dp366
g74
g75
ssg63
g360
sg56
(lp367
S'secure'
p368
asbag49
(g70
g51
NtRp369
(dp370
g54
(dp371
g81
g82
ssg63
g360
sg56
(lp372
S':'
asbag49
(g70
g51
NtRp373
(dp374
g54
(dp375
sg63
g360
sg56
(lp376
g49
(g50
g51
NtRp377
(dp378
g54
(dp379
g62
I3
ssg63
g373
sg56
(lp380
S''
asbasbasbag49
(g65
g51
NtRp381
(dp382
g54
(dp383
sg63
g251
sg56
(lp384
g49
(g70
g51
NtRp385
(dp386
g54
(dp387
g74
g75
ssg63
g381
sg56
(lp388
S'version'
p389
asbag49
(g70
g51
NtRp390
(dp391
g54
(dp392
g81
g82
ssg63
g381
sg56
(lp393
S':'
asbag49
(g70
g51
NtRp394
(dp395
g54
(dp396
sg63
g381
sg56
(lp397
g49
(g50
g51
NtRp398
(dp399
g54
(dp400
g62
I3
ssg63
g394
sg56
(lp401
S''
asbasbasbasbasbasbasbag49
(g65
g51
NtRp402
(dp403
g54
(dp404
sg63
g226
sg56
(lp405
g49
(g70
g51
NtRp406
(dp407
g54
(dp408
g74
g75
ssg63
g402
sg56
(lp409
S'session_id_iguassupass'
p410
asbag49
(g70
g51
NtRp411
(dp412
g54
(dp413
g81
g82
ssg63
g402
sg56
(lp414
S':'
asbag49
(g70
g51
NtRp415
(dp416
g54
(dp417
sg63
g402
sg56
(lp418
g49
(g50
g51
NtRp419
(dp420
g54
(dp421
g62
I4
ssg63
g415
sg56
(lp422
g49
(g58
g51
NtRp423
(dp424
g54
(dp425
g62
I3
ssg63
Nsg56
(lp426
g49
(g65
g51
NtRp427
(dp428
g54
(dp429
sg63
g423
sg56
(lp430
g49
(g70
g51
NtRp431
(dp432
g54
(dp433
g74
g75
ssg63
g427
sg56
(lp434
g263
asbag49
(g70
g51
NtRp435
(dp436
g54
(dp437
g81
g82
ssg63
g427
sg56
(lp438
S':'
asbag49
(g70
g51
NtRp439
(dp440
g54
(dp441
sg63
g427
sg56
(lp442
g49
(g50
g51
NtRp443
(dp444
g54
(dp445
g62
I3
ssg63
g439
sg56
(lp446
S''
asbasbasbag49
(g65
g51
NtRp447
(dp448
g54
(dp449
sg63
g423
sg56
(lp450
g49
(g70
g51
NtRp451
(dp452
g54
(dp453
g74
g75
ssg63
g447
sg56
(lp454
g284
asbag49
(g70
g51
NtRp455
(dp456
g54
(dp457
g81
g82
ssg63
g447
sg56
(lp458
S':'
asbag49
(g70
g51
NtRp459
(dp460
g54
(dp461
sg63
g447
sg56
(lp462
g49
(g50
g51
NtRp463
(dp464
g54
(dp465
g62
I3
ssg63
g459
sg56
(lp466
S''
asbasbasbag49
(g65
g51
NtRp467
(dp468
g54
(dp469
sg63
g423
sg56
(lp470
g49
(g70
g51
NtRp471
(dp472
g54
(dp473
g74
g75
ssg63
g467
sg56
(lp474
g305
asbag49
(g70
g51
NtRp475
(dp476
g54
(dp477
g81
g82
ssg63
g467
sg56
(lp478
S':'
asbag49
(g70
g51
NtRp479
(dp480
g54
(dp481
sg63
g467
sg56
(lp482
g49
(g50
g51
NtRp483
(dp484
g54
(dp485
g62
I3
ssg63
g479
sg56
(lp486
S''
asbasbasbag49
(g65
g51
NtRp487
(dp488
g54
(dp489
sg63
g423
sg56
(lp490
g49
(g70
g51
NtRp491
(dp492
g54
(dp493
g74
g75
ssg63
g487
sg56
(lp494
g326
asbag49
(g70
g51
NtRp495
(dp496
g54
(dp497
g81
g82
ssg63
g487
sg56
(lp498
S':'
asbag49
(g70
g51
NtRp499
(dp500
g54
(dp501
sg63
g487
sg56
(lp502
g49
(g50
g51
NtRp503
(dp504
g54
(dp505
g62
I3
ssg63
g499
sg56
(lp506
S''
asbasbasbag49
(g65
g51
NtRp507
(dp508
g54
(dp509
sg63
g423
sg56
(lp510
g49
(g70
g51
NtRp511
(dp512
g54
(dp513
g74
g75
ssg63
g507
sg56
(lp514
g347
asbag49
(g70
g51
NtRp515
(dp516
g54
(dp517
g81
g82
ssg63
g507
sg56
(lp518
S':'
asbag49
(g70
g51
NtRp519
(dp520
g54
(dp521
sg63
g507
sg56
(lp522
g49
(g50
g51
NtRp523
(dp524
g54
(dp525
g62
I3
ssg63
g519
sg56
(lp526
S''
asbasbasbag49
(g65
g51
NtRp527
(dp528
g54
(dp529
sg63
g423
sg56
(lp530
g49
(g70
g51
NtRp531
(dp532
g54
(dp533
g74
g75
ssg63
g527
sg56
(lp534
g368
asbag49
(g70
g51
NtRp535
(dp536
g54
(dp537
g81
g82
ssg63
g527
sg56
(lp538
S':'
asbag49
(g70
g51
NtRp539
(dp540
g54
(dp541
sg63
g527
sg56
(lp542
g49
(g50
g51
NtRp543
(dp544
g54
(dp545
g62
I3
ssg63
g539
sg56
(lp546
S''
asbasbasbag49
(g65
g51
NtRp547
(dp548
g54
(dp549
sg63
g423
sg56
(lp550
g49
(g70
g51
NtRp551
(dp552
g54
(dp553
g74
g75
ssg63
g547
sg56
(lp554
g389
asbag49
(g70
g51
NtRp555
(dp556
g54
(dp557
g81
g82
ssg63
g547
sg56
(lp558
S':'
asbag49
(g70
g51
NtRp559
(dp560
g54
(dp561
sg63
g547
sg56
(lp562
g49
(g50
g51
NtRp563
(dp564
g54
(dp565
g62
I3
ssg63
g559
sg56
(lp566
S''
asbasbasbasbasbasbasbag49
(g65
g51
NtRp567
(dp568
g54
(dp569
sg63
g226
sg56
(lp570
g49
(g70
g51
NtRp571
(dp572
g54
(dp573
g74
g75
ssg63
g567
sg56
(lp574
S'session_id_welcome'
p575
asbag49
(g70
g51
NtRp576
(dp577
g54
(dp578
g81
g82
ssg63
g567
sg56
(lp579
S':'
asbag49
(g70
g51
NtRp580
(dp581
g54
(dp582
sg63
g567
sg56
(lp583
g49
(g50
g51
NtRp584
(dp585
g54
(dp586
g62
I4
ssg63
g580
sg56
(lp587
g49
(g58
g51
NtRp588
(dp589
g54
(dp590
g62
I3
ssg63
Nsg56
(lp591
g49
(g65
g51
NtRp592
(dp593
g54
(dp594
sg63
g588
sg56
(lp595
g49
(g70
g51
NtRp596
(dp597
g54
(dp598
g74
g75
ssg63
g592
sg56
(lp599
g263
asbag49
(g70
g51
NtRp600
(dp601
g54
(dp602
g81
g82
ssg63
g592
sg56
(lp603
S':'
asbag49
(g70
g51
NtRp604
(dp605
g54
(dp606
sg63
g592
sg56
(lp607
g49
(g50
g51
NtRp608
(dp609
g54
(dp610
g62
I3
ssg63
g604
sg56
(lp611
S''
asbasbasbag49
(g65
g51
NtRp612
(dp613
g54
(dp614
sg63
g588
sg56
(lp615
g49
(g70
g51
NtRp616
(dp617
g54
(dp618
g74
g75
ssg63
g612
sg56
(lp619
g284
asbag49
(g70
g51
NtRp620
(dp621
g54
(dp622
g81
g82
ssg63
g612
sg56
(lp623
S':'
asbag49
(g70
g51
NtRp624
(dp625
g54
(dp626
sg63
g612
sg56
(lp627
g49
(g50
g51
NtRp628
(dp629
g54
(dp630
g62
I3
ssg63
g624
sg56
(lp631
S''
asbasbasbag49
(g65
g51
NtRp632
(dp633
g54
(dp634
sg63
g588
sg56
(lp635
g49
(g70
g51
NtRp636
(dp637
g54
(dp638
g74
g75
ssg63
g632
sg56
(lp639
g305
asbag49
(g70
g51
NtRp640
(dp641
g54
(dp642
g81
g82
ssg63
g632
sg56
(lp643
S':'
asbag49
(g70
g51
NtRp644
(dp645
g54
(dp646
sg63
g632
sg56
(lp647
g49
(g50
g51
NtRp648
(dp649
g54
(dp650
g62
I3
ssg63
g644
sg56
(lp651
S''
asbasbasbag49
(g65
g51
NtRp652
(dp653
g54
(dp654
sg63
g588
sg56
(lp655
g49
(g70
g51
NtRp656
(dp657
g54
(dp658
g74
g75
ssg63
g652
sg56
(lp659
g326
asbag49
(g70
g51
NtRp660
(dp661
g54
(dp662
g81
g82
ssg63
g652
sg56
(lp663
S':'
asbag49
(g70
g51
NtRp664
(dp665
g54
(dp666
sg63
g652
sg56
(lp667
g49
(g50
g51
NtRp668
(dp669
g54
(dp670
g62
I3
ssg63
g664
sg56
(lp671
S''
asbasbasbag49
(g65
g51
NtRp672
(dp673
g54
(dp674
sg63
g588
sg56
(lp675
g49
(g70
g51
NtRp676
(dp677
g54
(dp678
g74
g75
ssg63
g672
sg56
(lp679
g347
asbag49
(g70
g51
NtRp680
(dp681
g54
(dp682
g81
g82
ssg63
g672
sg56
(lp683
S':'
asbag49
(g70
g51
NtRp684
(dp685
g54
(dp686
sg63
g672
sg56
(lp687
g49
(g50
g51
NtRp688
(dp689
g54
(dp690
g62
I3
ssg63
g684
sg56
(lp691
S''
asbasbasbag49
(g65
g51
NtRp692
(dp693
g54
(dp694
sg63
g588
sg56
(lp695
g49
(g70
g51
NtRp696
(dp697
g54
(dp698
g74
g75
ssg63
g692
sg56
(lp699
g368
asbag49
(g70
g51
NtRp700
(dp701
g54
(dp702
g81
g82
ssg63
g692
sg56
(lp703
S':'
asbag49
(g70
g51
NtRp704
(dp705
g54
(dp706
sg63
g692
sg56
(lp707
g49
(g50
g51
NtRp708
(dp709
g54
(dp710
g62
I3
ssg63
g704
sg56
(lp711
S''
asbasbasbag49
(g65
g51
NtRp712
(dp713
g54
(dp714
sg63
g588
sg56
(lp715
g49
(g70
g51
NtRp716
(dp717
g54
(dp718
g74
g75
ssg63
g712
sg56
(lp719
g389
asbag49
(g70
g51
NtRp720
(dp721
g54
(dp722
g81
g82
ssg63
g712
sg56
(lp723
S':'
asbag49
(g70
g51
NtRp724
(dp725
g54
(dp726
sg63
g712
sg56
(lp727
g49
(g50
g51
NtRp728
(dp729
g54
(dp730
g62
I3
ssg63
g724
sg56
(lp731
S''
asbasbasbasbasbasbasbasbasbasbasbag49
(g65
g51
NtRp732
(dp733
g54
(dp734
sg63
g59
sg56
(lp735
g49
(g70
g51
NtRp736
(dp737
g54
(dp738
g74
g75
ssg63
g732
sg56
(lp739
S'env'
p740
asbag49
(g70
g51
NtRp741
(dp742
g54
(dp743
g81
g82
ssg63
g732
sg56
(lp744
S':'
asbag49
(g70
g51
NtRp745
(dp746
g54
(dp747
sg63
g732
sg56
(lp748
g49
(g50
g51
NtRp749
(dp750
g54
(dp751
g62
I5
ssg63
g745
sg56
(lp752
g49
(g58
g51
NtRp753
(dp754
g54
(dp755
g62
I4
ssg63
Nsg56
(lp756
g49
(g65
g51
NtRp757
(dp758
g54
(dp759
sg63
g753
sg56
(lp760
g49
(g70
g51
NtRp761
(dp762
g54
(dp763
g74
g75
ssg63
g757
sg56
(lp764
S'app_folders'
p765
asbag49
(g70
g51
NtRp766
(dp767
g54
(dp768
g81
g82
ssg63
g757
sg56
(lp769
S':'
asbag49
(g70
g51
NtRp770
(dp771
g54
(dp772
sg63
g757
sg56
(lp773
g49
(g50
g51
NtRp774
(dp775
g54
(dp776
g62
I4
ssg63
g770
sg56
(lp777
S"set(['C:\\\\Users\\\\ceasbpi\\\\Dropbox\\\\web2py\\\\applications\\\\admin\\\\', 'C:\\\\Users\\\\ceasbpi\\\\Dropbox\\\\web2py\\\\applications\\\\iguassupass\\\\', 'C:\\\\Users\\\\ceasbpi\\\\Dropbox\\\\web2py\\\\applications\\\\IguassuPass\\\\', 'C:\\\\Users\\\\ceasbpi\\\\Dropbox\\\\web2py\\\\applications\\\\welcome\\\\'])"
p778
asbasbasbag49
(g65
g51
NtRp779
(dp780
g54
(dp781
sg63
g753
sg56
(lp782
g49
(g70
g51
NtRp783
(dp784
g54
(dp785
g74
g75
ssg63
g779
sg56
(lp786
S'applications_parent'
p787
asbag49
(g70
g51
NtRp788
(dp789
g54
(dp790
g81
g82
ssg63
g779
sg56
(lp791
S':'
asbag49
(g70
g51
NtRp792
(dp793
g54
(dp794
sg63
g779
sg56
(lp795
g49
(g50
g51
NtRp796
(dp797
g54
(dp798
g62
I4
ssg63
g792
sg56
(lp799
S'C:\\Users\\ceasbpi\\Dropbox\\web2py'
p800
asbasbasbag49
(g65
g51
NtRp801
(dp802
g54
(dp803
sg63
g753
sg56
(lp804
g49
(g70
g51
NtRp805
(dp806
g54
(dp807
g74
g75
ssg63
g801
sg56
(lp808
S'cmd_args'
p809
asbag49
(g70
g51
NtRp810
(dp811
g54
(dp812
g81
g82
ssg63
g801
sg56
(lp813
S':'
asbag49
(g70
g51
NtRp814
(dp815
g54
(dp816
sg63
g801
sg56
(lp817
g49
(g50
g51
NtRp818
(dp819
g54
(dp820
g62
I4
ssg63
g814
sg56
(lp821
g49
(g58
g51
NtRp822
(dp823
g54
(dp824
g62
I3
ssg63
Nsg56
(lp825
sbasbasbasbag49
(g65
g51
NtRp826
(dp827
g54
(dp828
sg63
g753
sg56
(lp829
g49
(g70
g51
NtRp830
(dp831
g54
(dp832
g74
g75
ssg63
g826
sg56
(lp833
S'cmd_options'
p834
asbag49
(g70
g51
NtRp835
(dp836
g54
(dp837
g81
g82
ssg63
g826
sg56
(lp838
S':'
asbag49
(g70
g51
NtRp839
(dp840
g54
(dp841
sg63
g826
sg56
(lp842
g49
(g50
g51
NtRp843
(dp844
g54
(dp845
g62
I4
ssg63
g839
sg56
(lp846
S"<Values at 0x311dfd0: {'verbose': False, 'ip': '127.0.0.1', 'shutdown_timeout': 5, 'taskbar': False, 'nocron': False, 'pid_filename': 'httpserver.pid', 'maxthreads': None, 'softcron': False, 'server_name': 'W15869', 'bpython': False, 'nogui': False, 'port': 8000, 'extcron': False, 'debuglevel': 30, 'test': None, 'folder': 'C:\\\\Users\\\\ceasbpi\\\\Dropbox\\\\web2py', 'config': '', 'import_models': False, 'winservice': '', 'shell': None, 'run': '', 'log_filename': 'httpserver.log', 'args': [''], 'socket_timeout': 5, 'ssl_ca_certificate': None, 'scheduler': None, 'profiler_filename': None, 'ssl_private_key': '', 'password': '<ask>', 'request_queue_size': 5, 'ssl_certificate': '', 'cronjob': False, 'numthreads': None, 'quiet': False, 'interfaces': None, 'minthreads': None, 'timeout': 10, 'plain': False, 'nobanner': False}>"
p847
asbasbasbag49
(g65
g51
NtRp848
(dp849
g54
(dp850
sg63
g753
sg56
(lp851
g49
(g70
g51
NtRp852
(dp853
g54
(dp854
g74
g75
ssg63
g848
sg56
(lp855
S'db_sessions'
p856
asbag49
(g70
g51
NtRp857
(dp858
g54
(dp859
g81
g82
ssg63
g848
sg56
(lp860
S':'
asbag49
(g70
g51
NtRp861
(dp862
g54
(dp863
sg63
g848
sg56
(lp864
g49
(g50
g51
NtRp865
(dp866
g54
(dp867
g62
I4
ssg63
g861
sg56
(lp868
S'set([])'
p869
asbasbasbag49
(g65
g51
NtRp870
(dp871
g54
(dp872
sg63
g753
sg56
(lp873
g49
(g70
g51
NtRp874
(dp875
g54
(dp876
g74
g75
ssg63
g870
sg56
(lp877
S'debugging'
p878
asbag49
(g70
g51
NtRp879
(dp880
g54
(dp881
g81
g82
ssg63
g870
sg56
(lp882
S':'
asbag49
(g70
g51
NtRp883
(dp884
g54
(dp885
sg63
g870
sg56
(lp886
g49
(g50
g51
NtRp887
(dp888
g54
(dp889
g62
I4
ssg63
g883
sg56
(lp890
g92
asbasbasbag49
(g65
g51
NtRp891
(dp892
g54
(dp893
sg63
g753
sg56
(lp894
g49
(g70
g51
NtRp895
(dp896
g54
(dp897
g74
g75
ssg63
g891
sg56
(lp898
S'gluon_parent'
p899
asbag49
(g70
g51
NtRp900
(dp901
g54
(dp902
g81
g82
ssg63
g891
sg56
(lp903
S':'
asbag49
(g70
g51
NtRp904
(dp905
g54
(dp906
sg63
g891
sg56
(lp907
g49
(g50
g51
NtRp908
(dp909
g54
(dp910
g62
I4
ssg63
g904
sg56
(lp911
S'C:\\Users\\ceasbpi\\Dropbox\\web2py'
p912
asbasbasbag49
(g65
g51
NtRp913
(dp914
g54
(dp915
sg63
g753
sg56
(lp916
g49
(g70
g51
NtRp917
(dp918
g54
(dp919
g74
g75
ssg63
g913
sg56
(lp920
S'http_accept'
p921
asbag49
(g70
g51
NtRp922
(dp923
g54
(dp924
g81
g82
ssg63
g913
sg56
(lp925
S':'
asbag49
(g70
g51
NtRp926
(dp927
g54
(dp928
sg63
g913
sg56
(lp929
g49
(g50
g51
NtRp930
(dp931
g54
(dp932
g62
I4
ssg63
g926
sg56
(lp933
S'text/html,application/xhtml+xml,application/xml;q=0.9,*/*;q=0.8'
p934
asbasbasbag49
(g65
g51
NtRp935
(dp936
g54
(dp937
sg63
g753
sg56
(lp938
g49
(g70
g51
NtRp939
(dp940
g54
(dp941
g74
g75
ssg63
g935
sg56
(lp942
S'http_accept_charset'
p943
asbag49
(g70
g51
NtRp944
(dp945
g54
(dp946
g81
g82
ssg63
g935
sg56
(lp947
S':'
asbag49
(g70
g51
NtRp948
(dp949
g54
(dp950
sg63
g935
sg56
(lp951
g49
(g50
g51
NtRp952
(dp953
g54
(dp954
g62
I4
ssg63
g948
sg56
(lp955
S'ISO-8859-1,utf-8;q=0.7,*;q=0.3'
p956
asbasbasbag49
(g65
g51
NtRp957
(dp958
g54
(dp959
sg63
g753
sg56
(lp960
g49
(g70
g51
NtRp961
(dp962
g54
(dp963
g74
g75
ssg63
g957
sg56
(lp964
S'http_accept_encoding'
p965
asbag49
(g70
g51
NtRp966
(dp967
g54
(dp968
g81
g82
ssg63
g957
sg56
(lp969
S':'
asbag49
(g70
g51
NtRp970
(dp971
g54
(dp972
sg63
g957
sg56
(lp973
g49
(g50
g51
NtRp974
(dp975
g54
(dp976
g62
I4
ssg63
g970
sg56
(lp977
S'gzip,deflate,sdch'
p978
asbasbasbag49
(g65
g51
NtRp979
(dp980
g54
(dp981
sg63
g753
sg56
(lp982
g49
(g70
g51
NtRp983
(dp984
g54
(dp985
g74
g75
ssg63
g979
sg56
(lp986
S'http_accept_language'
p987
asbag49
(g70
g51
NtRp988
(dp989
g54
(dp990
g81
g82
ssg63
g979
sg56
(lp991
S':'
asbag49
(g70
g51
NtRp992
(dp993
g54
(dp994
sg63
g979
sg56
(lp995
g49
(g50
g51
NtRp996
(dp997
g54
(dp998
g62
I4
ssg63
g992
sg56
(lp999
S'pt-BR,pt;q=0.8,en-US;q=0.6,en;q=0.4'
p1000
asbasbasbag49
(g65
g51
NtRp1001
(dp1002
g54
(dp1003
sg63
g753
sg56
(lp1004
g49
(g70
g51
NtRp1005
(dp1006
g54
(dp1007
g74
g75
ssg63
g1001
sg56
(lp1008
S'http_cache_control'
p1009
asbag49
(g70
g51
NtRp1010
(dp1011
g54
(dp1012
g81
g82
ssg63
g1001
sg56
(lp1013
S':'
asbag49
(g70
g51
NtRp1014
(dp1015
g54
(dp1016
sg63
g1001
sg56
(lp1017
g49
(g50
g51
NtRp1018
(dp1019
g54
(dp1020
g62
I4
ssg63
g1014
sg56
(lp1021
S'max-age=0'
p1022
asbasbasbag49
(g65
g51
NtRp1023
(dp1024
g54
(dp1025
sg63
g753
sg56
(lp1026
g49
(g70
g51
NtRp1027
(dp1028
g54
(dp1029
g74
g75
ssg63
g1023
sg56
(lp1030
S'http_connection'
p1031
asbag49
(g70
g51
NtRp1032
(dp1033
g54
(dp1034
g81
g82
ssg63
g1023
sg56
(lp1035
S':'
asbag49
(g70
g51
NtRp1036
(dp1037
g54
(dp1038
sg63
g1023
sg56
(lp1039
g49
(g50
g51
NtRp1040
(dp1041
g54
(dp1042
g62
I4
ssg63
g1036
sg56
(lp1043
S'keep-alive'
p1044
asbasbasbag49
(g65
g51
NtRp1045
(dp1046
g54
(dp1047
sg63
g753
sg56
(lp1048
g49
(g70
g51
NtRp1049
(dp1050
g54
(dp1051
g74
g75
ssg63
g1045
sg56
(lp1052
S'http_cookie'
p1053
asbag49
(g70
g51
NtRp1054
(dp1055
g54
(dp1056
g81
g82
ssg63
g1045
sg56
(lp1057
S':'
asbag49
(g70
g51
NtRp1058
(dp1059
g54
(dp1060
sg63
g1045
sg56
(lp1061
g49
(g50
g51
NtRp1062
(dp1063
g54
(dp1064
g62
I4
ssg63
g1058
sg56
(lp1065
S'session_id_welcome=127.0.0.1-841022b0-55e3-4081-b637-d1f9630f75df; session_id_iguassupass=127.0.0.1-0ebf5fce-933e-4652-8d87-32a636575dba; session_id_admin=127.0.0.1-e8923c4c-4d6b-4628-962e-b272279de14c'
p1066
asbasbasbag49
(g65
g51
NtRp1067
(dp1068
g54
(dp1069
sg63
g753
sg56
(lp1070
g49
(g70
g51
NtRp1071
(dp1072
g54
(dp1073
g74
g75
ssg63
g1067
sg56
(lp1074
S'http_host'
p1075
asbag49
(g70
g51
NtRp1076
(dp1077
g54
(dp1078
g81
g82
ssg63
g1067
sg56
(lp1079
S':'
asbag49
(g70
g51
NtRp1080
(dp1081
g54
(dp1082
sg63
g1067
sg56
(lp1083
g49
(g50
g51
NtRp1084
(dp1085
g54
(dp1086
g62
I4
ssg63
g1080
sg56
(lp1087
S'localhost:8000'
p1088
asbasbasbag49
(g65
g51
NtRp1089
(dp1090
g54
(dp1091
sg63
g753
sg56
(lp1092
g49
(g70
g51
NtRp1093
(dp1094
g54
(dp1095
g74
g75
ssg63
g1089
sg56
(lp1096
S'http_user_agent'
p1097
asbag49
(g70
g51
NtRp1098
(dp1099
g54
(dp1100
g81
g82
ssg63
g1089
sg56
(lp1101
S':'
asbag49
(g70
g51
NtRp1102
(dp1103
g54
(dp1104
sg63
g1089
sg56
(lp1105
g49
(g50
g51
NtRp1106
(dp1107
g54
(dp1108
g62
I4
ssg63
g1102
sg56
(lp1109
S'Mozilla/5.0 (Windows NT 6.1; WOW64) AppleWebKit/537.1 (KHTML, like Gecko) Chrome/21.0.1180.83 Safari/537.1'
p1110
asbasbasbag49
(g65
g51
NtRp1111
(dp1112
g54
(dp1113
sg63
g753
sg56
(lp1114
g49
(g70
g51
NtRp1115
(dp1116
g54
(dp1117
g74
g75
ssg63
g1111
sg56
(lp1118
S'is_jython'
p1119
asbag49
(g70
g51
NtRp1120
(dp1121
g54
(dp1122
g81
g82
ssg63
g1111
sg56
(lp1123
S':'
asbag49
(g70
g51
NtRp1124
(dp1125
g54
(dp1126
sg63
g1111
sg56
(lp1127
g49
(g50
g51
NtRp1128
(dp1129
g54
(dp1130
g62
I4
ssg63
g1124
sg56
(lp1131
g92
asbasbasbag49
(g65
g51
NtRp1132
(dp1133
g54
(dp1134
sg63
g753
sg56
(lp1135
g49
(g70
g51
NtRp1136
(dp1137
g54
(dp1138
g74
g75
ssg63
g1132
sg56
(lp1139
S'is_pypy'
p1140
asbag49
(g70
g51
NtRp1141
(dp1142
g54
(dp1143
g81
g82
ssg63
g1132
sg56
(lp1144
S':'
asbag49
(g70
g51
NtRp1145
(dp1146
g54
(dp1147
sg63
g1132
sg56
(lp1148
g49
(g50
g51
NtRp1149
(dp1150
g54
(dp1151
g62
I4
ssg63
g1145
sg56
(lp1152
g92
asbasbasbag49
(g65
g51
NtRp1153
(dp1154
g54
(dp1155
sg63
g753
sg56
(lp1156
g49
(g70
g51
NtRp1157
(dp1158
g54
(dp1159
g74
g75
ssg63
g1153
sg56
(lp1160
S'path_info'
p1161
asbag49
(g70
g51
NtRp1162
(dp1163
g54
(dp1164
g81
g82
ssg63
g1153
sg56
(lp1165
S':'
asbag49
(g70
g51
NtRp1166
(dp1167
g54
(dp1168
sg63
g1153
sg56
(lp1169
g49
(g50
g51
NtRp1170
(dp1171
g54
(dp1172
g62
I4
ssg63
g1166
sg56
(lp1173
S'/IguassuPass/default/atracoes'
p1174
asbasbasbag49
(g65
g51
NtRp1175
(dp1176
g54
(dp1177
sg63
g753
sg56
(lp1178
g49
(g70
g51
NtRp1179
(dp1180
g54
(dp1181
g74
g75
ssg63
g1175
sg56
(lp1182
S'query_string'
p1183
asbag49
(g70
g51
NtRp1184
(dp1185
g54
(dp1186
g81
g82
ssg63
g1175
sg56
(lp1187
S':'
asbag49
(g70
g51
NtRp1188
(dp1189
g54
(dp1190
sg63
g1175
sg56
(lp1191
g49
(g50
g51
NtRp1192
(dp1193
g54
(dp1194
g62
I4
ssg63
g1188
sg56
(lp1195
S''
asbasbasbag49
(g65
g51
NtRp1196
(dp1197
g54
(dp1198
sg63
g753
sg56
(lp1199
g49
(g70
g51
NtRp1200
(dp1201
g54
(dp1202
g74
g75
ssg63
g1196
sg56
(lp1203
S'remote_addr'
p1204
asbag49
(g70
g51
NtRp1205
(dp1206
g54
(dp1207
g81
g82
ssg63
g1196
sg56
(lp1208
S':'
asbag49
(g70
g51
NtRp1209
(dp1210
g54
(dp1211
sg63
g1196
sg56
(lp1212
g49
(g50
g51
NtRp1213
(dp1214
g54
(dp1215
g62
I4
ssg63
g1209
sg56
(lp1216
g182
asbasbasbag49
(g65
g51
NtRp1217
(dp1218
g54
(dp1219
sg63
g753
sg56
(lp1220
g49
(g70
g51
NtRp1221
(dp1222
g54
(dp1223
g74
g75
ssg63
g1217
sg56
(lp1224
S'remote_port'
p1225
asbag49
(g70
g51
NtRp1226
(dp1227
g54
(dp1228
g81
g82
ssg63
g1217
sg56
(lp1229
S':'
asbag49
(g70
g51
NtRp1230
(dp1231
g54
(dp1232
sg63
g1217
sg56
(lp1233
g49
(g50
g51
NtRp1234
(dp1235
g54
(dp1236
g62
I4
ssg63
g1230
sg56
(lp1237
S'52345'
p1238
asbasbasbag49
(g65
g51
NtRp1239
(dp1240
g54
(dp1241
sg63
g753
sg56
(lp1242
g49
(g70
g51
NtRp1243
(dp1244
g54
(dp1245
g74
g75
ssg63
g1239
sg56
(lp1246
S'request_method'
p1247
asbag49
(g70
g51
NtRp1248
(dp1249
g54
(dp1250
g81
g82
ssg63
g1239
sg56
(lp1251
S':'
asbag49
(g70
g51
NtRp1252
(dp1253
g54
(dp1254
sg63
g1239
sg56
(lp1255
g49
(g50
g51
NtRp1256
(dp1257
g54
(dp1258
g62
I4
ssg63
g1252
sg56
(lp1259
S'GET'
p1260
asbasbasbag49
(g65
g51
NtRp1261
(dp1262
g54
(dp1263
sg63
g753
sg56
(lp1264
g49
(g70
g51
NtRp1265
(dp1266
g54
(dp1267
g74
g75
ssg63
g1261
sg56
(lp1268
S'script_name'
p1269
asbag49
(g70
g51
NtRp1270
(dp1271
g54
(dp1272
g81
g82
ssg63
g1261
sg56
(lp1273
S':'
asbag49
(g70
g51
NtRp1274
(dp1275
g54
(dp1276
sg63
g1261
sg56
(lp1277
g49
(g50
g51
NtRp1278
(dp1279
g54
(dp1280
g62
I4
ssg63
g1274
sg56
(lp1281
S''
asbasbasbag49
(g65
g51
NtRp1282
(dp1283
g54
(dp1284
sg63
g753
sg56
(lp1285
g49
(g70
g51
NtRp1286
(dp1287
g54
(dp1288
g74
g75
ssg63
g1282
sg56
(lp1289
S'server_name'
p1290
asbag49
(g70
g51
NtRp1291
(dp1292
g54
(dp1293
g81
g82
ssg63
g1282
sg56
(lp1294
S':'
asbag49
(g70
g51
NtRp1295
(dp1296
g54
(dp1297
sg63
g1282
sg56
(lp1298
g49
(g50
g51
NtRp1299
(dp1300
g54
(dp1301
g62
I4
ssg63
g1295
sg56
(lp1302
S'W15869'
p1303
asbasbasbag49
(g65
g51
NtRp1304
(dp1305
g54
(dp1306
sg63
g753
sg56
(lp1307
g49
(g70
g51
NtRp1308
(dp1309
g54
(dp1310
g74
g75
ssg63
g1304
sg56
(lp1311
S'server_port'
p1312
asbag49
(g70
g51
NtRp1313
(dp1314
g54
(dp1315
g81
g82
ssg63
g1304
sg56
(lp1316
S':'
asbag49
(g70
g51
NtRp1317
(dp1318
g54
(dp1319
sg63
g1304
sg56
(lp1320
g49
(g50
g51
NtRp1321
(dp1322
g54
(dp1323
g62
I4
ssg63
g1317
sg56
(lp1324
S'8000'
p1325
asbasbasbag49
(g65
g51
NtRp1326
(dp1327
g54
(dp1328
sg63
g753
sg56
(lp1329
g49
(g70
g51
NtRp1330
(dp1331
g54
(dp1332
g74
g75
ssg63
g1326
sg56
(lp1333
S'server_protocol'
p1334
asbag49
(g70
g51
NtRp1335
(dp1336
g54
(dp1337
g81
g82
ssg63
g1326
sg56
(lp1338
S':'
asbag49
(g70
g51
NtRp1339
(dp1340
g54
(dp1341
sg63
g1326
sg56
(lp1342
g49
(g50
g51
NtRp1343
(dp1344
g54
(dp1345
g62
I4
ssg63
g1339
sg56
(lp1346
S'HTTP/1.1'
p1347
asbasbasbag49
(g65
g51
NtRp1348
(dp1349
g54
(dp1350
sg63
g753
sg56
(lp1351
g49
(g70
g51
NtRp1352
(dp1353
g54
(dp1354
g74
g75
ssg63
g1348
sg56
(lp1355
S'server_software'
p1356
asbag49
(g70
g51
NtRp1357
(dp1358
g54
(dp1359
g81
g82
ssg63
g1348
sg56
(lp1360
S':'
asbag49
(g70
g51
NtRp1361
(dp1362
g54
(dp1363
sg63
g1348
sg56
(lp1364
g49
(g50
g51
NtRp1365
(dp1366
g54
(dp1367
g62
I4
ssg63
g1361
sg56
(lp1368
S'Rocket 1.2.4'
p1369
asbasbasbag49
(g65
g51
NtRp1370
(dp1371
g54
(dp1372
sg63
g753
sg56
(lp1373
g49
(g70
g51
NtRp1374
(dp1375
g54
(dp1376
g74
g75
ssg63
g1370
sg56
(lp1377
S'web2py_crontype'
p1378
asbag49
(g70
g51
NtRp1379
(dp1380
g54
(dp1381
g81
g82
ssg63
g1370
sg56
(lp1382
S':'
asbag49
(g70
g51
NtRp1383
(dp1384
g54
(dp1385
sg63
g1370
sg56
(lp1386
g49
(g50
g51
NtRp1387
(dp1388
g54
(dp1389
g62
I4
ssg63
g1383
sg56
(lp1390
S'hard'
p1391
asbasbasbag49
(g65
g51
NtRp1392
(dp1393
g54
(dp1394
sg63
g753
sg56
(lp1395
g49
(g70
g51
NtRp1396
(dp1397
g54
(dp1398
g74
g75
ssg63
g1392
sg56
(lp1399
S'web2py_path'
p1400
asbag49
(g70
g51
NtRp1401
(dp1402
g54
(dp1403
g81
g82
ssg63
g1392
sg56
(lp1404
S':'
asbag49
(g70
g51
NtRp1405
(dp1406
g54
(dp1407
sg63
g1392
sg56
(lp1408
g49
(g50
g51
NtRp1409
(dp1410
g54
(dp1411
g62
I4
ssg63
g1405
sg56
(lp1412
g800
asbasbasbag49
(g65
g51
NtRp1413
(dp1414
g54
(dp1415
sg63
g753
sg56
(lp1416
g49
(g70
g51
NtRp1417
(dp1418
g54
(dp1419
g74
g75
ssg63
g1413
sg56
(lp1420
S'web2py_version'
p1421
asbag49
(g70
g51
NtRp1422
(dp1423
g54
(dp1424
g81
g82
ssg63
g1413
sg56
(lp1425
S':'
asbag49
(g70
g51
NtRp1426
(dp1427
g54
(dp1428
sg63
g1413
sg56
(lp1429
g49
(g50
g51
NtRp1430
(dp1431
g54
(dp1432
g62
I4
ssg63
g1426
sg56
(lp1433
g49
(g58
g51
NtRp1434
(dp1435
g54
(dp1436
g62
I3
ssg63
Nsg56
(lp1437
g49
(g65
g51
NtRp1438
(dp1439
g54
(dp1440
sg63
g1434
sg56
(lp1441
g49
(g70
g51
NtRp1442
(dp1443
g54
(dp1444
sg63
g1438
sg56
(lp1445
g49
(g50
g51
NtRp1446
(dp1447
g54
(dp1448
g62
I3
ssg63
g1442
sg56
(lp1449
S'1'
asbasbasbag49
(g65
g51
NtRp1450
(dp1451
g54
(dp1452
sg63
g1434
sg56
(lp1453
g49
(g70
g51
NtRp1454
(dp1455
g54
(dp1456
sg63
g1450
sg56
(lp1457
g49
(g50
g51
NtRp1458
(dp1459
g54
(dp1460
g62
I3
ssg63
g1454
sg56
(lp1461
S'99'
p1462
asbasbasbag49
(g65
g51
NtRp1463
(dp1464
g54
(dp1465
sg63
g1434
sg56
(lp1466
g49
(g70
g51
NtRp1467
(dp1468
g54
(dp1469
sg63
g1463
sg56
(lp1470
g49
(g50
g51
NtRp1471
(dp1472
g54
(dp1473
g62
I3
ssg63
g1467
sg56
(lp1474
S'7'
asbasbasbag49
(g65
g51
NtRp1475
(dp1476
g54
(dp1477
sg63
g1434
sg56
(lp1478
g49
(g70
g51
NtRp1479
(dp1480
g54
(dp1481
sg63
g1475
sg56
(lp1482
g49
(g50
g51
NtRp1483
(dp1484
g54
(dp1485
g62
I3
ssg63
g1479
sg56
(lp1486
S'datetime.datetime(2012, 3, 4, 22, 12, 8)'
p1487
asbasbasbag49
(g65
g51
NtRp1488
(dp1489
g54
(dp1490
sg63
g1434
sg56
(lp1491
g49
(g70
g51
NtRp1492
(dp1493
g54
(dp1494
sg63
g1488
sg56
(lp1495
g49
(g50
g51
NtRp1496
(dp1497
g54
(dp1498
g62
I3
ssg63
g1492
sg56
(lp1499
S'stable'
p1500
asbasbasbasbasbasbasbag49
(g65
g51
NtRp1501
(dp1502
g54
(dp1503
sg63
g753
sg56
(lp1504
g49
(g70
g51
NtRp1505
(dp1506
g54
(dp1507
g74
g75
ssg63
g1501
sg56
(lp1508
S'wsgi_errors'
p1509
asbag49
(g70
g51
NtRp1510
(dp1511
g54
(dp1512
g81
g82
ssg63
g1501
sg56
(lp1513
S':'
asbag49
(g70
g51
NtRp1514
(dp1515
g54
(dp1516
sg63
g1501
sg56
(lp1517
g49
(g50
g51
NtRp1518
(dp1519
g54
(dp1520
g62
I4
ssg63
g1514
sg56
(lp1521
S"<open file '<stderr>', mode 'w' at 0x002500B0>"
p1522
asbasbasbag49
(g65
g51
NtRp1523
(dp1524
g54
(dp1525
sg63
g753
sg56
(lp1526
g49
(g70
g51
NtRp1527
(dp1528
g54
(dp1529
g74
g75
ssg63
g1523
sg56
(lp1530
S'wsgi_file_wrapper'
p1531
asbag49
(g70
g51
NtRp1532
(dp1533
g54
(dp1534
g81
g82
ssg63
g1523
sg56
(lp1535
S':'
asbag49
(g70
g51
NtRp1536
(dp1537
g54
(dp1538
sg63
g1523
sg56
(lp1539
g49
(g50
g51
NtRp1540
(dp1541
g54
(dp1542
g62
I4
ssg63
g1536
sg56
(lp1543
S'<class wsgiref.util.FileWrapper at 0x02E8D360>'
p1544
asbasbasbag49
(g65
g51
NtRp1545
(dp1546
g54
(dp1547
sg63
g753
sg56
(lp1548
g49
(g70
g51
NtRp1549
(dp1550
g54
(dp1551
g74
g75
ssg63
g1545
sg56
(lp1552
S'wsgi_input'
p1553
asbag49
(g70
g51
NtRp1554
(dp1555
g54
(dp1556
g81
g82
ssg63
g1545
sg56
(lp1557
S':'
asbag49
(g70
g51
NtRp1558
(dp1559
g54
(dp1560
sg63
g1545
sg56
(lp1561
g49
(g50
g51
NtRp1562
(dp1563
g54
(dp1564
g62
I4
ssg63
g1558
sg56
(lp1565
S'<socket._fileobject object at 0x073F82B0>'
p1566
asbasbasbag49
(g65
g51
NtRp1567
(dp1568
g54
(dp1569
sg63
g753
sg56
(lp1570
g49
(g70
g51
NtRp1571
(dp1572
g54
(dp1573
g74
g75
ssg63
g1567
sg56
(lp1574
S'wsgi_multiprocess'
p1575
asbag49
(g70
g51
NtRp1576
(dp1577
g54
(dp1578
g81
g82
ssg63
g1567
sg56
(lp1579
S':'
asbag49
(g70
g51
NtRp1580
(dp1581
g54
(dp1582
sg63
g1567
sg56
(lp1583
g49
(g50
g51
NtRp1584
(dp1585
g54
(dp1586
g62
I4
ssg63
g1580
sg56
(lp1587
g92
asbasbasbag49
(g65
g51
NtRp1588
(dp1589
g54
(dp1590
sg63
g753
sg56
(lp1591
g49
(g70
g51
NtRp1592
(dp1593
g54
(dp1594
g74
g75
ssg63
g1588
sg56
(lp1595
S'wsgi_multithread'
p1596
asbag49
(g70
g51
NtRp1597
(dp1598
g54
(dp1599
g81
g82
ssg63
g1588
sg56
(lp1600
S':'
asbag49
(g70
g51
NtRp1601
(dp1602
g54
(dp1603
sg63
g1588
sg56
(lp1604
g49
(g50
g51
NtRp1605
(dp1606
g54
(dp1607
g62
I4
ssg63
g1601
sg56
(lp1608
S'True'
p1609
asbasbasbag49
(g65
g51
NtRp1610
(dp1611
g54
(dp1612
sg63
g753
sg56
(lp1613
g49
(g70
g51
NtRp1614
(dp1615
g54
(dp1616
g74
g75
ssg63
g1610
sg56
(lp1617
S'wsgi_run_once'
p1618
asbag49
(g70
g51
NtRp1619
(dp1620
g54
(dp1621
g81
g82
ssg63
g1610
sg56
(lp1622
S':'
asbag49
(g70
g51
NtRp1623
(dp1624
g54
(dp1625
sg63
g1610
sg56
(lp1626
g49
(g50
g51
NtRp1627
(dp1628
g54
(dp1629
g62
I4
ssg63
g1623
sg56
(lp1630
g92
asbasbasbag49
(g65
g51
NtRp1631
(dp1632
g54
(dp1633
sg63
g753
sg56
(lp1634
g49
(g70
g51
NtRp1635
(dp1636
g54
(dp1637
g74
g75
ssg63
g1631
sg56
(lp1638
S'wsgi_url_scheme'
p1639
asbag49
(g70
g51
NtRp1640
(dp1641
g54
(dp1642
g81
g82
ssg63
g1631
sg56
(lp1643
S':'
asbag49
(g70
g51
NtRp1644
(dp1645
g54
(dp1646
sg63
g1631
sg56
(lp1647
g49
(g50
g51
NtRp1648
(dp1649
g54
(dp1650
g62
I4
ssg63
g1644
sg56
(lp1651
S'http'
p1652
asbasbasbag49
(g65
g51
NtRp1653
(dp1654
g54
(dp1655
sg63
g753
sg56
(lp1656
g49
(g70
g51
NtRp1657
(dp1658
g54
(dp1659
g74
g75
ssg63
g1653
sg56
(lp1660
S'wsgi_version'
p1661
asbag49
(g70
g51
NtRp1662
(dp1663
g54
(dp1664
g81
g82
ssg63
g1653
sg56
(lp1665
S':'
asbag49
(g70
g51
NtRp1666
(dp1667
g54
(dp1668
sg63
g1653
sg56
(lp1669
g49
(g50
g51
NtRp1670
(dp1671
g54
(dp1672
g62
I4
ssg63
g1666
sg56
(lp1673
g49
(g58
g51
NtRp1674
(dp1675
g54
(dp1676
g62
I3
ssg63
Nsg56
(lp1677
g49
(g65
g51
NtRp1678
(dp1679
g54
(dp1680
sg63
g1674
sg56
(lp1681
g49
(g70
g51
NtRp1682
(dp1683
g54
(dp1684
sg63
g1678
sg56
(lp1685
g49
(g50
g51
NtRp1686
(dp1687
g54
(dp1688
g62
I3
ssg63
g1682
sg56
(lp1689
S'1'
asbasbasbag49
(g65
g51
NtRp1690
(dp1691
g54
(dp1692
sg63
g1674
sg56
(lp1693
g49
(g70
g51
NtRp1694
(dp1695
g54
(dp1696
sg63
g1690
sg56
(lp1697
g49
(g50
g51
NtRp1698
(dp1699
g54
(dp1700
g62
I3
ssg63
g1694
sg56
(lp1701
S'0'
asbasbasbasbasbasbasbasbasbasbasbag49
(g65
g51
NtRp1702
(dp1703
g54
(dp1704
sg63
g59
sg56
(lp1705
g49
(g70
g51
NtRp1706
(dp1707
g54
(dp1708
g74
g75
ssg63
g1702
sg56
(lp1709
S'extension'
p1710
asbag49
(g70
g51
NtRp1711
(dp1712
g54
(dp1713
g81
g82
ssg63
g1702
sg56
(lp1714
S':'
asbag49
(g70
g51
NtRp1715
(dp1716
g54
(dp1717
sg63
g1702
sg56
(lp1718
g49
(g50
g51
NtRp1719
(dp1720
g54
(dp1721
g62
I5
ssg63
g1715
sg56
(lp1722
S'html'
p1723
asbasbasbag49
(g65
g51
NtRp1724
(dp1725
g54
(dp1726
sg63
g59
sg56
(lp1727
g49
(g70
g51
NtRp1728
(dp1729
g54
(dp1730
g74
g75
ssg63
g1724
sg56
(lp1731
S'folder'
p1732
asbag49
(g70
g51
NtRp1733
(dp1734
g54
(dp1735
g81
g82
ssg63
g1724
sg56
(lp1736
S':'
asbag49
(g70
g51
NtRp1737
(dp1738
g54
(dp1739
sg63
g1724
sg56
(lp1740
g49
(g50
g51
NtRp1741
(dp1742
g54
(dp1743
g62
I5
ssg63
g1737
sg56
(lp1744
S'C:\\Users\\ceasbpi\\Dropbox\\web2py\\applications\\IguassuPass\\'
p1745
asbasbasbag49
(g65
g51
NtRp1746
(dp1747
g54
(dp1748
sg63
g59
sg56
(lp1749
g49
(g70
g51
NtRp1750
(dp1751
g54
(dp1752
g74
g75
ssg63
g1746
sg56
(lp1753
S'function'
p1754
asbag49
(g70
g51
NtRp1755
(dp1756
g54
(dp1757
g81
g82
ssg63
g1746
sg56
(lp1758
S':'
asbag49
(g70
g51
NtRp1759
(dp1760
g54
(dp1761
sg63
g1746
sg56
(lp1762
g49
(g50
g51
NtRp1763
(dp1764
g54
(dp1765
g62
I5
ssg63
g1759
sg56
(lp1766
S'atracoes'
p1767
asbasbasbag49
(g65
g51
NtRp1768
(dp1769
g54
(dp1770
sg63
g59
sg56
(lp1771
g49
(g70
g51
NtRp1772
(dp1773
g54
(dp1774
g74
g75
ssg63
g1768
sg56
(lp1775
S'get_vars'
p1776
asbag49
(g70
g51
NtRp1777
(dp1778
g54
(dp1779
g81
g82
ssg63
g1768
sg56
(lp1780
S':'
asbag49
(g70
g51
NtRp1781
(dp1782
g54
(dp1783
sg63
g1768
sg56
(lp1784
g49
(g50
g51
NtRp1785
(dp1786
g54
(dp1787
g62
I5
ssg63
g1781
sg56
(lp1788
g49
(g58
g51
NtRp1789
(dp1790
g54
(dp1791
g62
I4
ssg63
Nsg56
(lp1792
sbasbasbasbag49
(g65
g51
NtRp1793
(dp1794
g54
(dp1795
sg63
g59
sg56
(lp1796
g49
(g70
g51
NtRp1797
(dp1798
g54
(dp1799
g74
g75
ssg63
g1793
sg56
(lp1800
S'global_settings'
p1801
asbag49
(g70
g51
NtRp1802
(dp1803
g54
(dp1804
g81
g82
ssg63
g1793
sg56
(lp1805
S':'
asbag49
(g70
g51
NtRp1806
(dp1807
g54
(dp1808
sg63
g1793
sg56
(lp1809
g49
(g50
g51
NtRp1810
(dp1811
g54
(dp1812
g62
I5
ssg63
g1806
sg56
(lp1813
g49
(g58
g51
NtRp1814
(dp1815
g54
(dp1816
g62
I4
ssg63
Nsg56
(lp1817
g49
(g65
g51
NtRp1818
(dp1819
g54
(dp1820
sg63
g1814
sg56
(lp1821
g49
(g70
g51
NtRp1822
(dp1823
g54
(dp1824
g74
g75
ssg63
g1818
sg56
(lp1825
g765
asbag49
(g70
g51
NtRp1826
(dp1827
g54
(dp1828
g81
g82
ssg63
g1818
sg56
(lp1829
S':'
asbag49
(g70
g51
NtRp1830
(dp1831
g54
(dp1832
sg63
g1818
sg56
(lp1833
g49
(g50
g51
NtRp1834
(dp1835
g54
(dp1836
g62
I4
ssg63
g1830
sg56
(lp1837
S"set(['C:\\\\Users\\\\ceasbpi\\\\Dropbox\\\\web2py\\\\applications\\\\admin\\\\', 'C:\\\\Users\\\\ceasbpi\\\\Dropbox\\\\web2py\\\\applications\\\\iguassupass\\\\', 'C:\\\\Users\\\\ceasbpi\\\\Dropbox\\\\web2py\\\\applications\\\\IguassuPass\\\\', 'C:\\\\Users\\\\ceasbpi\\\\Dropbox\\\\web2py\\\\applications\\\\welcome\\\\'])"
p1838
asbasbasbag49
(g65
g51
NtRp1839
(dp1840
g54
(dp1841
sg63
g1814
sg56
(lp1842
g49
(g70
g51
NtRp1843
(dp1844
g54
(dp1845
g74
g75
ssg63
g1839
sg56
(lp1846
g787
asbag49
(g70
g51
NtRp1847
(dp1848
g54
(dp1849
g81
g82
ssg63
g1839
sg56
(lp1850
S':'
asbag49
(g70
g51
NtRp1851
(dp1852
g54
(dp1853
sg63
g1839
sg56
(lp1854
g49
(g50
g51
NtRp1855
(dp1856
g54
(dp1857
g62
I4
ssg63
g1851
sg56
(lp1858
g800
asbasbasbag49
(g65
g51
NtRp1859
(dp1860
g54
(dp1861
sg63
g1814
sg56
(lp1862
g49
(g70
g51
NtRp1863
(dp1864
g54
(dp1865
g74
g75
ssg63
g1859
sg56
(lp1866
g809
asbag49
(g70
g51
NtRp1867
(dp1868
g54
(dp1869
g81
g82
ssg63
g1859
sg56
(lp1870
S':'
asbag49
(g70
g51
NtRp1871
(dp1872
g54
(dp1873
sg63
g1859
sg56
(lp1874
g49
(g50
g51
NtRp1875
(dp1876
g54
(dp1877
g62
I4
ssg63
g1871
sg56
(lp1878
g49
(g58
g51
NtRp1879
(dp1880
g54
(dp1881
g62
I3
ssg63
Nsg56
(lp1882
sbasbasbasbag49
(g65
g51
NtRp1883
(dp1884
g54
(dp1885
sg63
g1814
sg56
(lp1886
g49
(g70
g51
NtRp1887
(dp1888
g54
(dp1889
g74
g75
ssg63
g1883
sg56
(lp1890
g834
asbag49
(g70
g51
NtRp1891
(dp1892
g54
(dp1893
g81
g82
ssg63
g1883
sg56
(lp1894
S':'
asbag49
(g70
g51
NtRp1895
(dp1896
g54
(dp1897
sg63
g1883
sg56
(lp1898
g49
(g50
g51
NtRp1899
(dp1900
g54
(dp1901
g62
I4
ssg63
g1895
sg56
(lp1902
S"<Values at 0x311dfd0: {'verbose': False, 'ip': '127.0.0.1', 'shutdown_timeout': 5, 'taskbar': False, 'nocron': False, 'pid_filename': 'httpserver.pid', 'maxthreads': None, 'softcron': False, 'server_name': 'W15869', 'bpython': False, 'nogui': False, 'port': 8000, 'extcron': False, 'debuglevel': 30, 'test': None, 'folder': 'C:\\\\Users\\\\ceasbpi\\\\Dropbox\\\\web2py', 'config': '', 'import_models': False, 'winservice': '', 'shell': None, 'run': '', 'log_filename': 'httpserver.log', 'args': [''], 'socket_timeout': 5, 'ssl_ca_certificate': None, 'scheduler': None, 'profiler_filename': None, 'ssl_private_key': '', 'password': '<ask>', 'request_queue_size': 5, 'ssl_certificate': '', 'cronjob': False, 'numthreads': None, 'quiet': False, 'interfaces': None, 'minthreads': None, 'timeout': 10, 'plain': False, 'nobanner': False}>"
p1903
asbasbasbag49
(g65
g51
NtRp1904
(dp1905
g54
(dp1906
sg63
g1814
sg56
(lp1907
g49
(g70
g51
NtRp1908
(dp1909
g54
(dp1910
g74
g75
ssg63
g1904
sg56
(lp1911
g856
asbag49
(g70
g51
NtRp1912
(dp1913
g54
(dp1914
g81
g82
ssg63
g1904
sg56
(lp1915
S':'
asbag49
(g70
g51
NtRp1916
(dp1917
g54
(dp1918
sg63
g1904
sg56
(lp1919
g49
(g50
g51
NtRp1920
(dp1921
g54
(dp1922
g62
I4
ssg63
g1916
sg56
(lp1923
S'set([])'
p1924
asbasbasbag49
(g65
g51
NtRp1925
(dp1926
g54
(dp1927
sg63
g1814
sg56
(lp1928
g49
(g70
g51
NtRp1929
(dp1930
g54
(dp1931
g74
g75
ssg63
g1925
sg56
(lp1932
g878
asbag49
(g70
g51
NtRp1933
(dp1934
g54
(dp1935
g81
g82
ssg63
g1925
sg56
(lp1936
S':'
asbag49
(g70
g51
NtRp1937
(dp1938
g54
(dp1939
sg63
g1925
sg56
(lp1940
g49
(g50
g51
NtRp1941
(dp1942
g54
(dp1943
g62
I4
ssg63
g1937
sg56
(lp1944
g92
asbasbasbag49
(g65
g51
NtRp1945
(dp1946
g54
(dp1947
sg63
g1814
sg56
(lp1948
g49
(g70
g51
NtRp1949
(dp1950
g54
(dp1951
g74
g75
ssg63
g1945
sg56
(lp1952
g899
asbag49
(g70
g51
NtRp1953
(dp1954
g54
(dp1955
g81
g82
ssg63
g1945
sg56
(lp1956
S':'
asbag49
(g70
g51
NtRp1957
(dp1958
g54
(dp1959
sg63
g1945
sg56
(lp1960
g49
(g50
g51
NtRp1961
(dp1962
g54
(dp1963
g62
I4
ssg63
g1957
sg56
(lp1964
g912
asbasbasbag49
(g65
g51
NtRp1965
(dp1966
g54
(dp1967
sg63
g1814
sg56
(lp1968
g49
(g70
g51
NtRp1969
(dp1970
g54
(dp1971
g74
g75
ssg63
g1965
sg56
(lp1972
g1119
asbag49
(g70
g51
NtRp1973
(dp1974
g54
(dp1975
g81
g82
ssg63
g1965
sg56
(lp1976
S':'
asbag49
(g70
g51
NtRp1977
(dp1978
g54
(dp1979
sg63
g1965
sg56
(lp1980
g49
(g50
g51
NtRp1981
(dp1982
g54
(dp1983
g62
I4
ssg63
g1977
sg56
(lp1984
g92
asbasbasbag49
(g65
g51
NtRp1985
(dp1986
g54
(dp1987
sg63
g1814
sg56
(lp1988
g49
(g70
g51
NtRp1989
(dp1990
g54
(dp1991
g74
g75
ssg63
g1985
sg56
(lp1992
g1140
asbag49
(g70
g51
NtRp1993
(dp1994
g54
(dp1995
g81
g82
ssg63
g1985
sg56
(lp1996
S':'
asbag49
(g70
g51
NtRp1997
(dp1998
g54
(dp1999
sg63
g1985
sg56
(lp2000
g49
(g50
g51
NtRp2001
(dp2002
g54
(dp2003
g62
I4
ssg63
g1997
sg56
(lp2004
g92
asbasbasbag49
(g65
g51
NtRp2005
(dp2006
g54
(dp2007
sg63
g1814
sg56
(lp2008
g49
(g70
g51
NtRp2009
(dp2010
g54
(dp2011
g74
g75
ssg63
g2005
sg56
(lp2012
g1378
asbag49
(g70
g51
NtRp2013
(dp2014
g54
(dp2015
g81
g82
ssg63
g2005
sg56
(lp2016
S':'
asbag49
(g70
g51
NtRp2017
(dp2018
g54
(dp2019
sg63
g2005
sg56
(lp2020
g49
(g50
g51
NtRp2021
(dp2022
g54
(dp2023
g62
I4
ssg63
g2017
sg56
(lp2024
g1391
asbasbasbag49
(g65
g51
NtRp2025
(dp2026
g54
(dp2027
sg63
g1814
sg56
(lp2028
g49
(g70
g51
NtRp2029
(dp2030
g54
(dp2031
g74
g75
ssg63
g2025
sg56
(lp2032
g1421
asbag49
(g70
g51
NtRp2033
(dp2034
g54
(dp2035
g81
g82
ssg63
g2025
sg56
(lp2036
S':'
asbag49
(g70
g51
NtRp2037
(dp2038
g54
(dp2039
sg63
g2025
sg56
(lp2040
g49
(g50
g51
NtRp2041
(dp2042
g54
(dp2043
g62
I4
ssg63
g2037
sg56
(lp2044
g49
(g58
g51
NtRp2045
(dp2046
g54
(dp2047
g62
I3
ssg63
Nsg56
(lp2048
g49
(g65
g51
NtRp2049
(dp2050
g54
(dp2051
sg63
g2045
sg56
(lp2052
g49
(g70
g51
NtRp2053
(dp2054
g54
(dp2055
sg63
g2049
sg56
(lp2056
g49
(g50
g51
NtRp2057
(dp2058
g54
(dp2059
g62
I3
ssg63
g2053
sg56
(lp2060
S'1'
asbasbasbag49
(g65
g51
NtRp2061
(dp2062
g54
(dp2063
sg63
g2045
sg56
(lp2064
g49
(g70
g51
NtRp2065
(dp2066
g54
(dp2067
sg63
g2061
sg56
(lp2068
g49
(g50
g51
NtRp2069
(dp2070
g54
(dp2071
g62
I3
ssg63
g2065
sg56
(lp2072
S'99'
p2073
asbasbasbag49
(g65
g51
NtRp2074
(dp2075
g54
(dp2076
sg63
g2045
sg56
(lp2077
g49
(g70
g51
NtRp2078
(dp2079
g54
(dp2080
sg63
g2074
sg56
(lp2081
g49
(g50
g51
NtRp2082
(dp2083
g54
(dp2084
g62
I3
ssg63
g2078
sg56
(lp2085
S'7'
asbasbasbag49
(g65
g51
NtRp2086
(dp2087
g54
(dp2088
sg63
g2045
sg56
(lp2089
g49
(g70
g51
NtRp2090
(dp2091
g54
(dp2092
sg63
g2086
sg56
(lp2093
g49
(g50
g51
NtRp2094
(dp2095
g54
(dp2096
g62
I3
ssg63
g2090
sg56
(lp2097
S'datetime.datetime(2012, 3, 4, 22, 12, 8)'
p2098
asbasbasbag49
(g65
g51
NtRp2099
(dp2100
g54
(dp2101
sg63
g2045
sg56
(lp2102
g49
(g70
g51
NtRp2103
(dp2104
g54
(dp2105
sg63
g2099
sg56
(lp2106
g49
(g50
g51
NtRp2107
(dp2108
g54
(dp2109
g62
I3
ssg63
g2103
sg56
(lp2110
g1500
asbasbasbasbasbasbasbasbasbasbasbag49
(g65
g51
NtRp2111
(dp2112
g54
(dp2113
sg63
g59
sg56
(lp2114
g49
(g70
g51
NtRp2115
(dp2116
g54
(dp2117
g74
g75
ssg63
g2111
sg56
(lp2118
S'is_https'
p2119
asbag49
(g70
g51
NtRp2120
(dp2121
g54
(dp2122
g81
g82
ssg63
g2111
sg56
(lp2123
S':'
asbag49
(g70
g51
NtRp2124
(dp2125
g54
(dp2126
sg63
g2111
sg56
(lp2127
g49
(g50
g51
NtRp2128
(dp2129
g54
(dp2130
g62
I5
ssg63
g2124
sg56
(lp2131
g92
asbasbasbag49
(g65
g51
NtRp2132
(dp2133
g54
(dp2134
sg63
g59
sg56
(lp2135
g49
(g70
g51
NtRp2136
(dp2137
g54
(dp2138
g74
g75
ssg63
g2132
sg56
(lp2139
S'is_local'
p2140
asbag49
(g70
g51
NtRp2141
(dp2142
g54
(dp2143
g81
g82
ssg63
g2132
sg56
(lp2144
S':'
asbag49
(g70
g51
NtRp2145
(dp2146
g54
(dp2147
sg63
g2132
sg56
(lp2148
g49
(g50
g51
NtRp2149
(dp2150
g54
(dp2151
g62
I5
ssg63
g2145
sg56
(lp2152
g1609
asbasbasbag49
(g65
g51
NtRp2153
(dp2154
g54
(dp2155
sg63
g59
sg56
(lp2156
g49
(g70
g51
NtRp2157
(dp2158
g54
(dp2159
g74
g75
ssg63
g2153
sg56
(lp2160
S'is_restful'
p2161
asbag49
(g70
g51
NtRp2162
(dp2163
g54
(dp2164
g81
g82
ssg63
g2153
sg56
(lp2165
S':'
asbag49
(g70
g51
NtRp2166
(dp2167
g54
(dp2168
sg63
g2153
sg56
(lp2169
g49
(g50
g51
NtRp2170
(dp2171
g54
(dp2172
g62
I5
ssg63
g2166
sg56
(lp2173
g92
asbasbasbag49
(g65
g51
NtRp2174
(dp2175
g54
(dp2176
sg63
g59
sg56
(lp2177
g49
(g70
g51
NtRp2178
(dp2179
g54
(dp2180
g74
g75
ssg63
g2174
sg56
(lp2181
S'now'
p2182
asbag49
(g70
g51
NtRp2183
(dp2184
g54
(dp2185
g81
g82
ssg63
g2174
sg56
(lp2186
S':'
asbag49
(g70
g51
NtRp2187
(dp2188
g54
(dp2189
sg63
g2174
sg56
(lp2190
g49
(g50
g51
NtRp2191
(dp2192
g54
(dp2193
g62
I5
ssg63
g2187
sg56
(lp2194
S'datetime.datetime(2012, 8, 30, 10, 47, 23, 206000)'
p2195
asbasbasbag49
(g65
g51
NtRp2196
(dp2197
g54
(dp2198
sg63
g59
sg56
(lp2199
g49
(g70
g51
NtRp2200
(dp2201
g54
(dp2202
g74
g75
ssg63
g2196
sg56
(lp2203
S'post_vars'
p2204
asbag49
(g70
g51
NtRp2205
(dp2206
g54
(dp2207
g81
g82
ssg63
g2196
sg56
(lp2208
S':'
asbag49
(g70
g51
NtRp2209
(dp2210
g54
(dp2211
sg63
g2196
sg56
(lp2212
g49
(g50
g51
NtRp2213
(dp2214
g54
(dp2215
g62
I5
ssg63
g2209
sg56
(lp2216
g49
(g58
g51
NtRp2217
(dp2218
g54
(dp2219
g62
I4
ssg63
Nsg56
(lp2220
sbasbasbasbag49
(g65
g51
NtRp2221
(dp2222
g54
(dp2223
sg63
g59
sg56
(lp2224
g49
(g70
g51
NtRp2225
(dp2226
g54
(dp2227
g74
g75
ssg63
g2221
sg56
(lp2228
S'url'
p2229
asbag49
(g70
g51
NtRp2230
(dp2231
g54
(dp2232
g81
g82
ssg63
g2221
sg56
(lp2233
S':'
asbag49
(g70
g51
NtRp2234
(dp2235
g54
(dp2236
sg63
g2221
sg56
(lp2237
g49
(g50
g51
NtRp2238
(dp2239
g54
(dp2240
g62
I5
ssg63
g2234
sg56
(lp2241
S'/IguassuPass/default/atracoes'
p2242
asbasbasbag49
(g65
g51
NtRp2243
(dp2244
g54
(dp2245
sg63
g59
sg56
(lp2246
g49
(g70
g51
NtRp2247
(dp2248
g54
(dp2249
g74
g75
ssg63
g2243
sg56
(lp2250
S'utcnow'
p2251
asbag49
(g70
g51
NtRp2252
(dp2253
g54
(dp2254
g81
g82
ssg63
g2243
sg56
(lp2255
S':'
asbag49
(g70
g51
NtRp2256
(dp2257
g54
(dp2258
sg63
g2243
sg56
(lp2259
g49
(g50
g51
NtRp2260
(dp2261
g54
(dp2262
g62
I5
ssg63
g2256
sg56
(lp2263
S'datetime.datetime(2012, 8, 30, 13, 47, 23, 206000)'
p2264
asbasbasbag49
(g65
g51
NtRp2265
(dp2266
g54
(dp2267
sg63
g59
sg56
(lp2268
g49
(g70
g51
NtRp2269
(dp2270
g54
(dp2271
g74
g75
ssg63
g2265
sg56
(lp2272
S'uuid'
p2273
asbag49
(g70
g51
NtRp2274
(dp2275
g54
(dp2276
g81
g82
ssg63
g2265
sg56
(lp2277
S':'
asbag49
(g70
g51
NtRp2278
(dp2279
g54
(dp2280
sg63
g2265
sg56
(lp2281
g49
(g50
g51
NtRp2282
(dp2283
g54
(dp2284
g62
I5
ssg63
g2278
sg56
(lp2285
S'IguassuPass/127.0.0.1.2012-08-30.10-47-23.23759fbb-3b52-4f18-9ff0-2c8d9f9c0031'
p2286
asbasbasbag49
(g65
g51
NtRp2287
(dp2288
g54
(dp2289
sg63
g59
sg56
(lp2290
g49
(g70
g51
NtRp2291
(dp2292
g54
(dp2293
g74
g75
ssg63
g2287
sg56
(lp2294
S'vars'
p2295
asbag49
(g70
g51
NtRp2296
(dp2297
g54
(dp2298
g81
g82
ssg63
g2287
sg56
(lp2299
S':'
asbag49
(g70
g51
NtRp2300
(dp2301
g54
(dp2302
sg63
g2287
sg56
(lp2303
g49
(g50
g51
NtRp2304
(dp2305
g54
(dp2306
g62
I5
ssg63
g2300
sg56
(lp2307
g49
(g58
g51
NtRp2308
(dp2309
g54
(dp2310
g62
I4
ssg63
Nsg56
(lp2311
sbasbasbasbag49
(g65
g51
NtRp2312
(dp2313
g54
(dp2314
sg63
g59
sg56
(lp2315
g49
(g70
g51
NtRp2316
(dp2317
g54
(dp2318
g74
g75
ssg63
g2312
sg56
(lp2319
S'wsgi'
p2320
asbag49
(g70
g51
NtRp2321
(dp2322
g54
(dp2323
g81
g82
ssg63
g2312
sg56
(lp2324
S':'
asbag49
(g70
g51
NtRp2325
(dp2326
g54
(dp2327
sg63
g2312
sg56
(lp2328
g49
(g50
g51
NtRp2329
(dp2330
g54
(dp2331
g62
I5
ssg63
g2325
sg56
(lp2332
g49
(g58
g51
NtRp2333
(dp2334
g54
(dp2335
g62
I4
ssg63
Nsg56
(lp2336
g49
(g65
g51
NtRp2337
(dp2338
g54
(dp2339
sg63
g2333
sg56
(lp2340
g49
(g70
g51
NtRp2341
(dp2342
g54
(dp2343
g74
g75
ssg63
g2337
sg56
(lp2344
S'environ'
p2345
asbag49
(g70
g51
NtRp2346
(dp2347
g54
(dp2348
g81
g82
ssg63
g2337
sg56
(lp2349
S':'
asbag49
(g70
g51
NtRp2350
(dp2351
g54
(dp2352
sg63
g2337
sg56
(lp2353
g49
(g50
g51
NtRp2354
(dp2355
g54
(dp2356
g62
I4
ssg63
g2350
sg56
(lp2357
g49
(g58
g51
NtRp2358
(dp2359
g54
(dp2360
g62
I3
ssg63
Nsg56
(lp2361
g49
(g65
g51
NtRp2362
(dp2363
g54
(dp2364
sg63
g2358
sg56
(lp2365
g49
(g70
g51
NtRp2366
(dp2367
g54
(dp2368
g74
g75
ssg63
g2362
sg56
(lp2369
S'HTTP_ACCEPT'
p2370
asbag49
(g70
g51
NtRp2371
(dp2372
g54
(dp2373
g81
g82
ssg63
g2362
sg56
(lp2374
S':'
asbag49
(g70
g51
NtRp2375
(dp2376
g54
(dp2377
sg63
g2362
sg56
(lp2378
g49
(g50
g51
NtRp2379
(dp2380
g54
(dp2381
g62
I3
ssg63
g2375
sg56
(lp2382
g934
asbasbasbag49
(g65
g51
NtRp2383
(dp2384
g54
(dp2385
sg63
g2358
sg56
(lp2386
g49
(g70
g51
NtRp2387
(dp2388
g54
(dp2389
g74
g75
ssg63
g2383
sg56
(lp2390
S'HTTP_ACCEPT_CHARSET'
p2391
asbag49
(g70
g51
NtRp2392
(dp2393
g54
(dp2394
g81
g82
ssg63
g2383
sg56
(lp2395
S':'
asbag49
(g70
g51
NtRp2396
(dp2397
g54
(dp2398
sg63
g2383
sg56
(lp2399
g49
(g50
g51
NtRp2400
(dp2401
g54
(dp2402
g62
I3
ssg63
g2396
sg56
(lp2403
g956
asbasbasbag49
(g65
g51
NtRp2404
(dp2405
g54
(dp2406
sg63
g2358
sg56
(lp2407
g49
(g70
g51
NtRp2408
(dp2409
g54
(dp2410
g74
g75
ssg63
g2404
sg56
(lp2411
S'HTTP_ACCEPT_ENCODING'
p2412
asbag49
(g70
g51
NtRp2413
(dp2414
g54
(dp2415
g81
g82
ssg63
g2404
sg56
(lp2416
S':'
asbag49
(g70
g51
NtRp2417
(dp2418
g54
(dp2419
sg63
g2404
sg56
(lp2420
g49
(g50
g51
NtRp2421
(dp2422
g54
(dp2423
g62
I3
ssg63
g2417
sg56
(lp2424
g978
asbasbasbag49
(g65
g51
NtRp2425
(dp2426
g54
(dp2427
sg63
g2358
sg56
(lp2428
g49
(g70
g51
NtRp2429
(dp2430
g54
(dp2431
g74
g75
ssg63
g2425
sg56
(lp2432
S'HTTP_ACCEPT_LANGUAGE'
p2433
asbag49
(g70
g51
NtRp2434
(dp2435
g54
(dp2436
g81
g82
ssg63
g2425
sg56
(lp2437
S':'
asbag49
(g70
g51
NtRp2438
(dp2439
g54
(dp2440
sg63
g2425
sg56
(lp2441
g49
(g50
g51
NtRp2442
(dp2443
g54
(dp2444
g62
I3
ssg63
g2438
sg56
(lp2445
g1000
asbasbasbag49
(g65
g51
NtRp2446
(dp2447
g54
(dp2448
sg63
g2358
sg56
(lp2449
g49
(g70
g51
NtRp2450
(dp2451
g54
(dp2452
g74
g75
ssg63
g2446
sg56
(lp2453
S'HTTP_CACHE_CONTROL'
p2454
asbag49
(g70
g51
NtRp2455
(dp2456
g54
(dp2457
g81
g82
ssg63
g2446
sg56
(lp2458
S':'
asbag49
(g70
g51
NtRp2459
(dp2460
g54
(dp2461
sg63
g2446
sg56
(lp2462
g49
(g50
g51
NtRp2463
(dp2464
g54
(dp2465
g62
I3
ssg63
g2459
sg56
(lp2466
g1022
asbasbasbag49
(g65
g51
NtRp2467
(dp2468
g54
(dp2469
sg63
g2358
sg56
(lp2470
g49
(g70
g51
NtRp2471
(dp2472
g54
(dp2473
g74
g75
ssg63
g2467
sg56
(lp2474
S'HTTP_CONNECTION'
p2475
asbag49
(g70
g51
NtRp2476
(dp2477
g54
(dp2478
g81
g82
ssg63
g2467
sg56
(lp2479
S':'
asbag49
(g70
g51
NtRp2480
(dp2481
g54
(dp2482
sg63
g2467
sg56
(lp2483
g49
(g50
g51
NtRp2484
(dp2485
g54
(dp2486
g62
I3
ssg63
g2480
sg56
(lp2487
g1044
asbasbasbag49
(g65
g51
NtRp2488
(dp2489
g54
(dp2490
sg63
g2358
sg56
(lp2491
g49
(g70
g51
NtRp2492
(dp2493
g54
(dp2494
g74
g75
ssg63
g2488
sg56
(lp2495
S'HTTP_COOKIE'
p2496
asbag49
(g70
g51
NtRp2497
(dp2498
g54
(dp2499
g81
g82
ssg63
g2488
sg56
(lp2500
S':'
asbag49
(g70
g51
NtRp2501
(dp2502
g54
(dp2503
sg63
g2488
sg56
(lp2504
g49
(g50
g51
NtRp2505
(dp2506
g54
(dp2507
g62
I3
ssg63
g2501
sg56
(lp2508
g1066
asbasbasbag49
(g65
g51
NtRp2509
(dp2510
g54
(dp2511
sg63
g2358
sg56
(lp2512
g49
(g70
g51
NtRp2513
(dp2514
g54
(dp2515
g74
g75
ssg63
g2509
sg56
(lp2516
S'HTTP_HOST'
p2517
asbag49
(g70
g51
NtRp2518
(dp2519
g54
(dp2520
g81
g82
ssg63
g2509
sg56
(lp2521
S':'
asbag49
(g70
g51
NtRp2522
(dp2523
g54
(dp2524
sg63
g2509
sg56
(lp2525
g49
(g50
g51
NtRp2526
(dp2527
g54
(dp2528
g62
I3
ssg63
g2522
sg56
(lp2529
g1088
asbasbasbag49
(g65
g51
NtRp2530
(dp2531
g54
(dp2532
sg63
g2358
sg56
(lp2533
g49
(g70
g51
NtRp2534
(dp2535
g54
(dp2536
g74
g75
ssg63
g2530
sg56
(lp2537
S'HTTP_USER_AGENT'
p2538
asbag49
(g70
g51
NtRp2539
(dp2540
g54
(dp2541
g81
g82
ssg63
g2530
sg56
(lp2542
S':'
asbag49
(g70
g51
NtRp2543
(dp2544
g54
(dp2545
sg63
g2530
sg56
(lp2546
g49
(g50
g51
NtRp2547
(dp2548
g54
(dp2549
g62
I3
ssg63
g2543
sg56
(lp2550
g1110
asbasbasbag49
(g65
g51
NtRp2551
(dp2552
g54
(dp2553
sg63
g2358
sg56
(lp2554
g49
(g70
g51
NtRp2555
(dp2556
g54
(dp2557
g74
g75
ssg63
g2551
sg56
(lp2558
S'PATH_INFO'
p2559
asbag49
(g70
g51
NtRp2560
(dp2561
g54
(dp2562
g81
g82
ssg63
g2551
sg56
(lp2563
S':'
asbag49
(g70
g51
NtRp2564
(dp2565
g54
(dp2566
sg63
g2551
sg56
(lp2567
g49
(g50
g51
NtRp2568
(dp2569
g54
(dp2570
g62
I3
ssg63
g2564
sg56
(lp2571
g1174
asbasbasbag49
(g65
g51
NtRp2572
(dp2573
g54
(dp2574
sg63
g2358
sg56
(lp2575
g49
(g70
g51
NtRp2576
(dp2577
g54
(dp2578
g74
g75
ssg63
g2572
sg56
(lp2579
S'QUERY_STRING'
p2580
asbag49
(g70
g51
NtRp2581
(dp2582
g54
(dp2583
g81
g82
ssg63
g2572
sg56
(lp2584
S':'
asbag49
(g70
g51
NtRp2585
(dp2586
g54
(dp2587
sg63
g2572
sg56
(lp2588
g49
(g50
g51
NtRp2589
(dp2590
g54
(dp2591
g62
I3
ssg63
g2585
sg56
(lp2592
S''
asbasbasbag49
(g65
g51
NtRp2593
(dp2594
g54
(dp2595
sg63
g2358
sg56
(lp2596
g49
(g70
g51
NtRp2597
(dp2598
g54
(dp2599
g74
g75
ssg63
g2593
sg56
(lp2600
S'REMOTE_ADDR'
p2601
asbag49
(g70
g51
NtRp2602
(dp2603
g54
(dp2604
g81
g82
ssg63
g2593
sg56
(lp2605
S':'
asbag49
(g70
g51
NtRp2606
(dp2607
g54
(dp2608
sg63
g2593
sg56
(lp2609
g49
(g50
g51
NtRp2610
(dp2611
g54
(dp2612
g62
I3
ssg63
g2606
sg56
(lp2613
g182
asbasbasbag49
(g65
g51
NtRp2614
(dp2615
g54
(dp2616
sg63
g2358
sg56
(lp2617
g49
(g70
g51
NtRp2618
(dp2619
g54
(dp2620
g74
g75
ssg63
g2614
sg56
(lp2621
S'REMOTE_PORT'
p2622
asbag49
(g70
g51
NtRp2623
(dp2624
g54
(dp2625
g81
g82
ssg63
g2614
sg56
(lp2626
S':'
asbag49
(g70
g51
NtRp2627
(dp2628
g54
(dp2629
sg63
g2614
sg56
(lp2630
g49
(g50
g51
NtRp2631
(dp2632
g54
(dp2633
g62
I3
ssg63
g2627
sg56
(lp2634
g1238
asbasbasbag49
(g65
g51
NtRp2635
(dp2636
g54
(dp2637
sg63
g2358
sg56
(lp2638
g49
(g70
g51
NtRp2639
(dp2640
g54
(dp2641
g74
g75
ssg63
g2635
sg56
(lp2642
S'REQUEST_METHOD'
p2643
asbag49
(g70
g51
NtRp2644
(dp2645
g54
(dp2646
g81
g82
ssg63
g2635
sg56
(lp2647
S':'
asbag49
(g70
g51
NtRp2648
(dp2649
g54
(dp2650
sg63
g2635
sg56
(lp2651
g49
(g50
g51
NtRp2652
(dp2653
g54
(dp2654
g62
I3
ssg63
g2648
sg56
(lp2655
g1260
asbasbasbag49
(g65
g51
NtRp2656
(dp2657
g54
(dp2658
sg63
g2358
sg56
(lp2659
g49
(g70
g51
NtRp2660
(dp2661
g54
(dp2662
g74
g75
ssg63
g2656
sg56
(lp2663
S'SCRIPT_NAME'
p2664
asbag49
(g70
g51
NtRp2665
(dp2666
g54
(dp2667
g81
g82
ssg63
g2656
sg56
(lp2668
S':'
asbag49
(g70
g51
NtRp2669
(dp2670
g54
(dp2671
sg63
g2656
sg56
(lp2672
g49
(g50
g51
NtRp2673
(dp2674
g54
(dp2675
g62
I3
ssg63
g2669
sg56
(lp2676
S''
asbasbasbag49
(g65
g51
NtRp2677
(dp2678
g54
(dp2679
sg63
g2358
sg56
(lp2680
g49
(g70
g51
NtRp2681
(dp2682
g54
(dp2683
g74
g75
ssg63
g2677
sg56
(lp2684
S'SERVER_NAME'
p2685
asbag49
(g70
g51
NtRp2686
(dp2687
g54
(dp2688
g81
g82
ssg63
g2677
sg56
(lp2689
S':'
asbag49
(g70
g51
NtRp2690
(dp2691
g54
(dp2692
sg63
g2677
sg56
(lp2693
g49
(g50
g51
NtRp2694
(dp2695
g54
(dp2696
g62
I3
ssg63
g2690
sg56
(lp2697
g1303
asbasbasbag49
(g65
g51
NtRp2698
(dp2699
g54
(dp2700
sg63
g2358
sg56
(lp2701
g49
(g70
g51
NtRp2702
(dp2703
g54
(dp2704
g74
g75
ssg63
g2698
sg56
(lp2705
S'SERVER_PORT'
p2706
asbag49
(g70
g51
NtRp2707
(dp2708
g54
(dp2709
g81
g82
ssg63
g2698
sg56
(lp2710
S':'
asbag49
(g70
g51
NtRp2711
(dp2712
g54
(dp2713
sg63
g2698
sg56
(lp2714
g49
(g50
g51
NtRp2715
(dp2716
g54
(dp2717
g62
I3
ssg63
g2711
sg56
(lp2718
g1325
asbasbasbag49
(g65
g51
NtRp2719
(dp2720
g54
(dp2721
sg63
g2358
sg56
(lp2722
g49
(g70
g51
NtRp2723
(dp2724
g54
(dp2725
g74
g75
ssg63
g2719
sg56
(lp2726
S'SERVER_PROTOCOL'
p2727
asbag49
(g70
g51
NtRp2728
(dp2729
g54
(dp2730
g81
g82
ssg63
g2719
sg56
(lp2731
S':'
asbag49
(g70
g51
NtRp2732
(dp2733
g54
(dp2734
sg63
g2719
sg56
(lp2735
g49
(g50
g51
NtRp2736
(dp2737
g54
(dp2738
g62
I3
ssg63
g2732
sg56
(lp2739
g1347
asbasbasbag49
(g65
g51
NtRp2740
(dp2741
g54
(dp2742
sg63
g2358
sg56
(lp2743
g49
(g70
g51
NtRp2744
(dp2745
g54
(dp2746
g74
g75
ssg63
g2740
sg56
(lp2747
S'SERVER_SOFTWARE'
p2748
asbag49
(g70
g51
NtRp2749
(dp2750
g54
(dp2751
g81
g82
ssg63
g2740
sg56
(lp2752
S':'
asbag49
(g70
g51
NtRp2753
(dp2754
g54
(dp2755
sg63
g2740
sg56
(lp2756
g49
(g50
g51
NtRp2757
(dp2758
g54
(dp2759
g62
I3
ssg63
g2753
sg56
(lp2760
g1369
asbasbasbag49
(g65
g51
NtRp2761
(dp2762
g54
(dp2763
sg63
g2358
sg56
(lp2764
g49
(g70
g51
NtRp2765
(dp2766
g54
(dp2767
g74
g75
ssg63
g2761
sg56
(lp2768
S'wsgi.errors'
p2769
asbag49
(g70
g51
NtRp2770
(dp2771
g54
(dp2772
g81
g82
ssg63
g2761
sg56
(lp2773
S':'
asbag49
(g70
g51
NtRp2774
(dp2775
g54
(dp2776
sg63
g2761
sg56
(lp2777
g49
(g50
g51
NtRp2778
(dp2779
g54
(dp2780
g62
I3
ssg63
g2774
sg56
(lp2781
S"<open file '<stderr>', mode 'w' at 0x002500B0>"
p2782
asbasbasbag49
(g65
g51
NtRp2783
(dp2784
g54
(dp2785
sg63
g2358
sg56
(lp2786
g49
(g70
g51
NtRp2787
(dp2788
g54
(dp2789
g74
g75
ssg63
g2783
sg56
(lp2790
S'wsgi.file_wrapper'
p2791
asbag49
(g70
g51
NtRp2792
(dp2793
g54
(dp2794
g81
g82
ssg63
g2783
sg56
(lp2795
S':'
asbag49
(g70
g51
NtRp2796
(dp2797
g54
(dp2798
sg63
g2783
sg56
(lp2799
g49
(g50
g51
NtRp2800
(dp2801
g54
(dp2802
g62
I3
ssg63
g2796
sg56
(lp2803
S'<class wsgiref.util.FileWrapper at 0x02E8D360>'
p2804
asbasbasbag49
(g65
g51
NtRp2805
(dp2806
g54
(dp2807
sg63
g2358
sg56
(lp2808
g49
(g70
g51
NtRp2809
(dp2810
g54
(dp2811
g74
g75
ssg63
g2805
sg56
(lp2812
S'wsgi.input'
p2813
asbag49
(g70
g51
NtRp2814
(dp2815
g54
(dp2816
g81
g82
ssg63
g2805
sg56
(lp2817
S':'
asbag49
(g70
g51
NtRp2818
(dp2819
g54
(dp2820
sg63
g2805
sg56
(lp2821
g49
(g50
g51
NtRp2822
(dp2823
g54
(dp2824
g62
I3
ssg63
g2818
sg56
(lp2825
S'<cStringIO.StringO object at 0x076D9480>'
p2826
asbasbasbag49
(g65
g51
NtRp2827
(dp2828
g54
(dp2829
sg63
g2358
sg56
(lp2830
g49
(g70
g51
NtRp2831
(dp2832
g54
(dp2833
g74
g75
ssg63
g2827
sg56
(lp2834
S'wsgi.multiprocess'
p2835
asbag49
(g70
g51
NtRp2836
(dp2837
g54
(dp2838
g81
g82
ssg63
g2827
sg56
(lp2839
S':'
asbag49
(g70
g51
NtRp2840
(dp2841
g54
(dp2842
sg63
g2827
sg56
(lp2843
g49
(g50
g51
NtRp2844
(dp2845
g54
(dp2846
g62
I3
ssg63
g2840
sg56
(lp2847
g92
asbasbasbag49
(g65
g51
NtRp2848
(dp2849
g54
(dp2850
sg63
g2358
sg56
(lp2851
g49
(g70
g51
NtRp2852
(dp2853
g54
(dp2854
g74
g75
ssg63
g2848
sg56
(lp2855
S'wsgi.multithread'
p2856
asbag49
(g70
g51
NtRp2857
(dp2858
g54
(dp2859
g81
g82
ssg63
g2848
sg56
(lp2860
S':'
asbag49
(g70
g51
NtRp2861
(dp2862
g54
(dp2863
sg63
g2848
sg56
(lp2864
g49
(g50
g51
NtRp2865
(dp2866
g54
(dp2867
g62
I3
ssg63
g2861
sg56
(lp2868
g1609
asbasbasbag49
(g65
g51
NtRp2869
(dp2870
g54
(dp2871
sg63
g2358
sg56
(lp2872
g49
(g70
g51
NtRp2873
(dp2874
g54
(dp2875
g74
g75
ssg63
g2869
sg56
(lp2876
S'wsgi.run_once'
p2877
asbag49
(g70
g51
NtRp2878
(dp2879
g54
(dp2880
g81
g82
ssg63
g2869
sg56
(lp2881
S':'
asbag49
(g70
g51
NtRp2882
(dp2883
g54
(dp2884
sg63
g2869
sg56
(lp2885
g49
(g50
g51
NtRp2886
(dp2887
g54
(dp2888
g62
I3
ssg63
g2882
sg56
(lp2889
g92
asbasbasbag49
(g65
g51
NtRp2890
(dp2891
g54
(dp2892
sg63
g2358
sg56
(lp2893
g49
(g70
g51
NtRp2894
(dp2895
g54
(dp2896
g74
g75
ssg63
g2890
sg56
(lp2897
S'wsgi.url_scheme'
p2898
asbag49
(g70
g51
NtRp2899
(dp2900
g54
(dp2901
g81
g82
ssg63
g2890
sg56
(lp2902
S':'
asbag49
(g70
g51
NtRp2903
(dp2904
g54
(dp2905
sg63
g2890
sg56
(lp2906
g49
(g50
g51
NtRp2907
(dp2908
g54
(dp2909
g62
I3
ssg63
g2903
sg56
(lp2910
g1652
asbasbasbag49
(g65
g51
NtRp2911
(dp2912
g54
(dp2913
sg63
g2358
sg56
(lp2914
g49
(g70
g51
NtRp2915
(dp2916
g54
(dp2917
g74
g75
ssg63
g2911
sg56
(lp2918
S'wsgi.version'
p2919
asbag49
(g70
g51
NtRp2920
(dp2921
g54
(dp2922
g81
g82
ssg63
g2911
sg56
(lp2923
S':'
asbag49
(g70
g51
NtRp2924
(dp2925
g54
(dp2926
sg63
g2911
sg56
(lp2927
g49
(g50
g51
NtRp2928
(dp2929
g54
(dp2930
g62
I3
ssg63
g2924
sg56
(lp2931
S'1'
asbasbasbasbasbasbasbasbasbasbasbasbasbsS'frames'
p2932
(lp2933
(dp2934
S'file'
p2935
S'C:\\Users\\ceasbpi\\Dropbox\\web2py\\gluon\\restricted.py'
p2936
sS'dump'
p2937
(dp2938
sS'lnum'
p2939
I205
sS'lines'
p2940
(dp2941
sS'call'
p2942
S"(code='# -*- coding: utf-8 -*-\\n# this file is released ...als()\\n\\nresponse._vars=response._caller(atracoes)\\n', environment={'A': <class 'gluon.html.A'>, 'Auth': <class 'gluon.tools.Auth'>, 'B': <class 'gluon.html.B'>, 'BEAUTIFY': <class 'gluon.html.BEAUTIFY'>, 'BODY': <class 'gluon.html.BODY'>, 'BR': <class 'gluon.html.BR'>, 'BUTTON': <class 'gluon.html.BUTTON'>, 'CAT': <class 'gluon.html.CAT'>, 'CENTER': <class 'gluon.html.CENTER'>, 'CLEANUP': <class 'gluon.validators.CLEANUP'>, ...}, layer=r'C:\\Users\\ceasbpi\\Dropbox\\web2py\\applications\\IguassuPass\\controllers/default.py')"
p2943
sS'func'
p2944
S'restricted'
p2945
sa(dp2946
g2935
S'C:\\Users\\ceasbpi\\Dropbox\\web2py\\applications\\IguassuPass\\controllers\\default.py'
p2947
sg2937
(dp2948
sg2939
I108
sg2940
(dp2949
I97
S'def multimedia_create():'
p2950
sI98
S'    #db.multimedia.atracao.default = request.args(0)'
p2951
sI99
S'    form = crud.create(db.multimedia)'
p2952
sI100
S'    return locals()'
p2953
sI101
S''
sI102
S'@auth.requires_login()'
p2954
sI103
S'def multimedia_edit():'
p2955
sI104
S"    multimedia = db.multimedia(request.args(0)) or redirect(URL('atracoes'))"
p2956
sI105
S'    form = crud.update(db.multimedia, multimedia)'
p2957
sI106
S'    return locals()'
p2958
ssg2942
S'()'
p2959
sg2944
S'<module>'
p2960
sa(dp2961
g2935
S'C:\\Users\\ceasbpi\\Dropbox\\web2py\\gluon\\globals.py'
p2962
sg2937
(dp2963
sg2939
I173
sg2940
(dp2964
sg2942
S'(f=<function atracoes at 0x075F0070>)'
p2965
sg2944
S'<lambda>'
p2966
sa(dp2967
g2935
S'C:\\Users\\ceasbpi\\Dropbox\\web2py\\applications\\IguassuPass\\controllers\\default.py'
p2968
sg2937
(dp2969
sg2939
I81
sg2940
(dp2970
I76
S'    """'
p2971
sI77
S'    return dict(form=crud())'
p2972
sI78
S''
sI79
S'def atracoes():'
p2973
sI80
S'    #atracoes = db(db.atracao).select(orderby=db.atracao.nome)'
p2974
sI81
S'    multimedias = db(db.multimedias).select(orderby=db.multimedia.nome)'
p2975
sI82
S'    #multimedias = db(db.multimedia.atracao == atracoes).select(orderby= db.multimedia.id)'
p2976
sI83
S'    return locals()'
p2977
sI84
S''
sI85
S'@auth.requires_login()'
p2978
ssg2942
S'()'
p2979
sg2944
S'atracoes'
p2980
sa(dp2981
g2935
S'C:\\Users\\ceasbpi\\Dropbox\\web2py\\gluon\\dal.py'
p2982
sg2937
(dp2983
sg2939
I6343
sg2940
(dp2984
sg2942
S"(self=<DAL {'auth_event': <Table {'origin': <gluon.dal..._key': <gluon.dal.Field object at 0x076E1970>}>}>, key='multimedias')"
p2985
sg2944
S'__getattr__'
p2986
sa(dp2987
g2935
S'C:\\Users\\ceasbpi\\Dropbox\\web2py\\gluon\\dal.py'
p2988
sg2937
(dp2989
sg2939
I6337
sg2940
(dp2990
sg2942
S"(self=<DAL {'auth_event': <Table {'origin': <gluon.dal..._key': <gluon.dal.Field object at 0x076E1970>}>}>, key='multimedias')"
p2991
sg2944
g20
sasS'pyver'
p2992
S'Python 2.5.4: C:\\Users\\ceasbpi\\Dropbox\\web2py\\web2py.exe'
p2993
sS'session'
p2994
g49
(g50
g51
NtRp2995
(dp2996
g54
(dp2997
sg56
(lp2998
g49
(g58
g51
NtRp2999
(dp3000
g54
(dp3001
g62
I5
ssg63
Nsg56
(lp3002
g49
(g65
g51
NtRp3003
(dp3004
g54
(dp3005
sg63
g2999
sg56
(lp3006
g49
(g70
g51
NtRp3007
(dp3008
g54
(dp3009
g74
g75
ssg63
g3003
sg56
(lp3010
S'auth'
p3011
asbag49
(g70
g51
NtRp3012
(dp3013
g54
(dp3014
g81
g82
ssg63
g3003
sg56
(lp3015
S':'
asbag49
(g70
g51
NtRp3016
(dp3017
g54
(dp3018
sg63
g3003
sg56
(lp3019
g49
(g50
g51
NtRp3020
(dp3021
g54
(dp3022
g62
I5
ssg63
g3016
sg56
(lp3023
g49
(g58
g51
NtRp3024
(dp3025
g54
(dp3026
g62
I4
ssg63
Nsg56
(lp3027
g49
(g65
g51
NtRp3028
(dp3029
g54
(dp3030
sg63
g3024
sg56
(lp3031
g49
(g70
g51
NtRp3032
(dp3033
g54
(dp3034
g74
g75
ssg63
g3028
sg56
(lp3035
S'expiration'
p3036
asbag49
(g70
g51
NtRp3037
(dp3038
g54
(dp3039
g81
g82
ssg63
g3028
sg56
(lp3040
S':'
asbag49
(g70
g51
NtRp3041
(dp3042
g54
(dp3043
sg63
g3028
sg56
(lp3044
g49
(g50
g51
NtRp3045
(dp3046
g54
(dp3047
g62
I4
ssg63
g3041
sg56
(lp3048
S'3600'
p3049
asbasbasbag49
(g65
g51
NtRp3050
(dp3051
g54
(dp3052
sg63
g3024
sg56
(lp3053
g49
(g70
g51
NtRp3054
(dp3055
g54
(dp3056
g74
g75
ssg63
g3050
sg56
(lp3057
S'hmac_key'
p3058
asbag49
(g70
g51
NtRp3059
(dp3060
g54
(dp3061
g81
g82
ssg63
g3050
sg56
(lp3062
S':'
asbag49
(g70
g51
NtRp3063
(dp3064
g54
(dp3065
sg63
g3050
sg56
(lp3066
g49
(g50
g51
NtRp3067
(dp3068
g54
(dp3069
g62
I4
ssg63
g3063
sg56
(lp3070
S'8fe52114-4a16-4d34-86ee-07e1ef1b8084'
p3071
asbasbasbag49
(g65
g51
NtRp3072
(dp3073
g54
(dp3074
sg63
g3024
sg56
(lp3075
g49
(g70
g51
NtRp3076
(dp3077
g54
(dp3078
g74
g75
ssg63
g3072
sg56
(lp3079
S'last_visit'
p3080
asbag49
(g70
g51
NtRp3081
(dp3082
g54
(dp3083
g81
g82
ssg63
g3072
sg56
(lp3084
S':'
asbag49
(g70
g51
NtRp3085
(dp3086
g54
(dp3087
sg63
g3072
sg56
(lp3088
g49
(g50
g51
NtRp3089
(dp3090
g54
(dp3091
g62
I4
ssg63
g3085
sg56
(lp3092
S'datetime.datetime(2012, 8, 30, 10, 47, 23, 206000)'
p3093
asbasbasbag49
(g65
g51
NtRp3094
(dp3095
g54
(dp3096
sg63
g3024
sg56
(lp3097
g49
(g70
g51
NtRp3098
(dp3099
g54
(dp3100
g74
g75
ssg63
g3094
sg56
(lp3101
S'user'
p3102
asbag49
(g70
g51
NtRp3103
(dp3104
g54
(dp3105
g81
g82
ssg63
g3094
sg56
(lp3106
S':'
asbag49
(g70
g51
NtRp3107
(dp3108
g54
(dp3109
sg63
g3094
sg56
(lp3110
g49
(g50
g51
NtRp3111
(dp3112
g54
(dp3113
g62
I4
ssg63
g3107
sg56
(lp3114
g49
(g58
g51
NtRp3115
(dp3116
g54
(dp3117
g62
I3
ssg63
Nsg56
(lp3118
g49
(g65
g51
NtRp3119
(dp3120
g54
(dp3121
sg63
g3115
sg56
(lp3122
g49
(g70
g51
NtRp3123
(dp3124
g54
(dp3125
g74
g75
ssg63
g3119
sg56
(lp3126
S'email'
p3127
asbag49
(g70
g51
NtRp3128
(dp3129
g54
(dp3130
g81
g82
ssg63
g3119
sg56
(lp3131
S':'
asbag49
(g70
g51
NtRp3132
(dp3133
g54
(dp3134
sg63
g3119
sg56
(lp3135
g49
(g50
g51
NtRp3136
(dp3137
g54
(dp3138
g62
I3
ssg63
g3132
sg56
(lp3139
S'admin@admin.com'
p3140
asbasbasbag49
(g65
g51
NtRp3141
(dp3142
g54
(dp3143
sg63
g3115
sg56
(lp3144
g49
(g70
g51
NtRp3145
(dp3146
g54
(dp3147
g74
g75
ssg63
g3141
sg56
(lp3148
S'first_name'
p3149
asbag49
(g70
g51
NtRp3150
(dp3151
g54
(dp3152
g81
g82
ssg63
g3141
sg56
(lp3153
S':'
asbag49
(g70
g51
NtRp3154
(dp3155
g54
(dp3156
sg63
g3141
sg56
(lp3157
g49
(g50
g51
NtRp3158
(dp3159
g54
(dp3160
g62
I3
ssg63
g3154
sg56
(lp3161
S'admin'
p3162
asbasbasbag49
(g65
g51
NtRp3163
(dp3164
g54
(dp3165
sg63
g3115
sg56
(lp3166
g49
(g70
g51
NtRp3167
(dp3168
g54
(dp3169
g74
g75
ssg63
g3163
sg56
(lp3170
S'id'
p3171
asbag49
(g70
g51
NtRp3172
(dp3173
g54
(dp3174
g81
g82
ssg63
g3163
sg56
(lp3175
S':'
asbag49
(g70
g51
NtRp3176
(dp3177
g54
(dp3178
sg63
g3163
sg56
(lp3179
g49
(g50
g51
NtRp3180
(dp3181
g54
(dp3182
g62
I3
ssg63
g3176
sg56
(lp3183
S'2'
asbasbasbag49
(g65
g51
NtRp3184
(dp3185
g54
(dp3186
sg63
g3115
sg56
(lp3187
g49
(g70
g51
NtRp3188
(dp3189
g54
(dp3190
g74
g75
ssg63
g3184
sg56
(lp3191
S'last_name'
p3192
asbag49
(g70
g51
NtRp3193
(dp3194
g54
(dp3195
g81
g82
ssg63
g3184
sg56
(lp3196
S':'
asbag49
(g70
g51
NtRp3197
(dp3198
g54
(dp3199
sg63
g3184
sg56
(lp3200
g49
(g50
g51
NtRp3201
(dp3202
g54
(dp3203
g62
I3
ssg63
g3197
sg56
(lp3204
S'de oliveira'
p3205
asbasbasbag49
(g65
g51
NtRp3206
(dp3207
g54
(dp3208
sg63
g3115
sg56
(lp3209
g49
(g70
g51
NtRp3210
(dp3211
g54
(dp3212
g74
g75
ssg63
g3206
sg56
(lp3213
S'password'
p3214
asbag49
(g70
g51
NtRp3215
(dp3216
g54
(dp3217
g81
g82
ssg63
g3206
sg56
(lp3218
S':'
asbag49
(g70
g51
NtRp3219
(dp3220
g54
(dp3221
sg63
g3206
sg56
(lp3222
g49
(g50
g51
NtRp3223
(dp3224
g54
(dp3225
g62
I3
ssg63
g3219
sg56
(lp3226
S'7fbb689eb65efc2020735b0b71b00247'
p3227
asbasbasbag49
(g65
g51
NtRp3228
(dp3229
g54
(dp3230
sg63
g3115
sg56
(lp3231
g49
(g70
g51
NtRp3232
(dp3233
g54
(dp3234
g74
g75
ssg63
g3228
sg56
(lp3235
S'registration_id'
p3236
asbag49
(g70
g51
NtRp3237
(dp3238
g54
(dp3239
g81
g82
ssg63
g3228
sg56
(lp3240
S':'
asbag49
(g70
g51
NtRp3241
(dp3242
g54
(dp3243
sg63
g3228
sg56
(lp3244
g49
(g50
g51
NtRp3245
(dp3246
g54
(dp3247
g62
I3
ssg63
g3241
sg56
(lp3248
S''
asbasbasbag49
(g65
g51
NtRp3249
(dp3250
g54
(dp3251
sg63
g3115
sg56
(lp3252
g49
(g70
g51
NtRp3253
(dp3254
g54
(dp3255
g74
g75
ssg63
g3249
sg56
(lp3256
S'registration_key'
p3257
asbag49
(g70
g51
NtRp3258
(dp3259
g54
(dp3260
g81
g82
ssg63
g3249
sg56
(lp3261
S':'
asbag49
(g70
g51
NtRp3262
(dp3263
g54
(dp3264
sg63
g3249
sg56
(lp3265
g49
(g50
g51
NtRp3266
(dp3267
g54
(dp3268
g62
I3
ssg63
g3262
sg56
(lp3269
S''
asbasbasbag49
(g65
g51
NtRp3270
(dp3271
g54
(dp3272
sg63
g3115
sg56
(lp3273
g49
(g70
g51
NtRp3274
(dp3275
g54
(dp3276
g74
g75
ssg63
g3270
sg56
(lp3277
S'reset_password_key'
p3278
asbag49
(g70
g51
NtRp3279
(dp3280
g54
(dp3281
g81
g82
ssg63
g3270
sg56
(lp3282
S':'
asbag49
(g70
g51
NtRp3283
(dp3284
g54
(dp3285
sg63
g3270
sg56
(lp3286
g49
(g50
g51
NtRp3287
(dp3288
g54
(dp3289
g62
I3
ssg63
g3283
sg56
(lp3290
S''
asbasbasbasbasbasbasbag49
(g65
g51
NtRp3291
(dp3292
g54
(dp3293
sg63
g3024
sg56
(lp3294
g49
(g70
g51
NtRp3295
(dp3296
g54
(dp3297
g74
g75
ssg63
g3291
sg56
(lp3298
S'user_groups'
p3299
asbag49
(g70
g51
NtRp3300
(dp3301
g54
(dp3302
g81
g82
ssg63
g3291
sg56
(lp3303
S':'
asbag49
(g70
g51
NtRp3304
(dp3305
g54
(dp3306
sg63
g3291
sg56
(lp3307
g49
(g50
g51
NtRp3308
(dp3309
g54
(dp3310
g62
I4
ssg63
g3304
sg56
(lp3311
g49
(g58
g51
NtRp3312
(dp3313
g54
(dp3314
g62
I3
ssg63
Nsg56
(lp3315
g49
(g65
g51
NtRp3316
(dp3317
g54
(dp3318
sg63
g3312
sg56
(lp3319
g49
(g70
g51
NtRp3320
(dp3321
g54
(dp3322
g74
g75
ssg63
g3316
sg56
(lp3323
S'2'
asbag49
(g70
g51
NtRp3324
(dp3325
g54
(dp3326
g81
g82
ssg63
g3316
sg56
(lp3327
S':'
asbag49
(g70
g51
NtRp3328
(dp3329
g54
(dp3330
sg63
g3316
sg56
(lp3331
g49
(g50
g51
NtRp3332
(dp3333
g54
(dp3334
g62
I3
ssg63
g3328
sg56
(lp3335
S'user_2'
p3336
asbasbasbasbasbasbasbasbasbasbasbag49
(g65
g51
NtRp3337
(dp3338
g54
(dp3339
sg63
g2999
sg56
(lp3340
g49
(g70
g51
NtRp3341
(dp3342
g54
(dp3343
g74
g75
ssg63
g3337
sg56
(lp3344
S'last_query'
p3345
asbag49
(g70
g51
NtRp3346
(dp3347
g54
(dp3348
g81
g82
ssg63
g3337
sg56
(lp3349
S':'
asbag49
(g70
g51
NtRp3350
(dp3351
g54
(dp3352
sg63
g3337
sg56
(lp3353
g49
(g50
g51
NtRp3354
(dp3355
g54
(dp3356
g62
I5
ssg63
g3350
sg56
(lp3357
S'db.multimedia.id>0'
p3358
asbasbasbasbasbsS'etype'
p3359
S"<type 'exceptions.KeyError'>"
p3360
sS'date'
p3361
S'Thu Aug 30 10:47:23 2012'
p3362
sS'response'
p3363
g49
(g50
g51
NtRp3364
(dp3365
g54
(dp3366
sg56
(lp3367
g49
(g58
g51
NtRp3368
(dp3369
g54
(dp3370
g62
I5
ssg63
Nsg56
(lp3371
g49
(g65
g51
NtRp3372
(dp3373
g54
(dp3374
sg63
g3368
sg56
(lp3375
g49
(g70
g51
NtRp3376
(dp3377
g54
(dp3378
g74
g75
ssg63
g3372
sg56
(lp3379
g147
asbag49
(g70
g51
NtRp3380
(dp3381
g54
(dp3382
g81
g82
ssg63
g3372
sg56
(lp3383
S':'
asbag49
(g70
g51
NtRp3384
(dp3385
g54
(dp3386
sg63
g3372
sg56
(lp3387
g49
(g50
g51
NtRp3388
(dp3389
g54
(dp3390
g62
I5
ssg63
g3384
sg56
(lp3391
S'<cStringIO.StringO object at 0x076D9140>'
p3392
asbasbasbag49
(g65
g51
NtRp3393
(dp3394
g54
(dp3395
sg63
g3368
sg56
(lp3396
g49
(g70
g51
NtRp3397
(dp3398
g54
(dp3399
g74
g75
ssg63
g3393
sg56
(lp3400
g213
asbag49
(g70
g51
NtRp3401
(dp3402
g54
(dp3403
g81
g82
ssg63
g3393
sg56
(lp3404
S':'
asbag49
(g70
g51
NtRp3405
(dp3406
g54
(dp3407
sg63
g3393
sg56
(lp3408
g49
(g50
g51
NtRp3409
(dp3410
g54
(dp3411
g62
I5
ssg63
g3405
sg56
(lp3412
g49
(g58
g51
NtRp3413
(dp3414
g54
(dp3415
g62
I4
ssg63
Nsg56
(lp3416
g49
(g65
g51
NtRp3417
(dp3418
g54
(dp3419
sg63
g3413
sg56
(lp3420
g49
(g70
g51
NtRp3421
(dp3422
g54
(dp3423
g74
g75
ssg63
g3417
sg56
(lp3424
S'session_id_iguassupass'
p3425
asbag49
(g70
g51
NtRp3426
(dp3427
g54
(dp3428
g81
g82
ssg63
g3417
sg56
(lp3429
S':'
asbag49
(g70
g51
NtRp3430
(dp3431
g54
(dp3432
sg63
g3417
sg56
(lp3433
g49
(g50
g51
NtRp3434
(dp3435
g54
(dp3436
g62
I4
ssg63
g3430
sg56
(lp3437
g49
(g58
g51
NtRp3438
(dp3439
g54
(dp3440
g62
I3
ssg63
Nsg56
(lp3441
g49
(g65
g51
NtRp3442
(dp3443
g54
(dp3444
sg63
g3438
sg56
(lp3445
g49
(g70
g51
NtRp3446
(dp3447
g54
(dp3448
g74
g75
ssg63
g3442
sg56
(lp3449
g263
asbag49
(g70
g51
NtRp3450
(dp3451
g54
(dp3452
g81
g82
ssg63
g3442
sg56
(lp3453
S':'
asbag49
(g70
g51
NtRp3454
(dp3455
g54
(dp3456
sg63
g3442
sg56
(lp3457
g49
(g50
g51
NtRp3458
(dp3459
g54
(dp3460
g62
I3
ssg63
g3454
sg56
(lp3461
S''
asbasbasbag49
(g65
g51
NtRp3462
(dp3463
g54
(dp3464
sg63
g3438
sg56
(lp3465
g49
(g70
g51
NtRp3466
(dp3467
g54
(dp3468
g74
g75
ssg63
g3462
sg56
(lp3469
g284
asbag49
(g70
g51
NtRp3470
(dp3471
g54
(dp3472
g81
g82
ssg63
g3462
sg56
(lp3473
S':'
asbag49
(g70
g51
NtRp3474
(dp3475
g54
(dp3476
sg63
g3462
sg56
(lp3477
g49
(g50
g51
NtRp3478
(dp3479
g54
(dp3480
g62
I3
ssg63
g3474
sg56
(lp3481
S''
asbasbasbag49
(g65
g51
NtRp3482
(dp3483
g54
(dp3484
sg63
g3438
sg56
(lp3485
g49
(g70
g51
NtRp3486
(dp3487
g54
(dp3488
g74
g75
ssg63
g3482
sg56
(lp3489
g305
asbag49
(g70
g51
NtRp3490
(dp3491
g54
(dp3492
g81
g82
ssg63
g3482
sg56
(lp3493
S':'
asbag49
(g70
g51
NtRp3494
(dp3495
g54
(dp3496
sg63
g3482
sg56
(lp3497
g49
(g50
g51
NtRp3498
(dp3499
g54
(dp3500
g62
I3
ssg63
g3494
sg56
(lp3501
S''
asbasbasbag49
(g65
g51
NtRp3502
(dp3503
g54
(dp3504
sg63
g3438
sg56
(lp3505
g49
(g70
g51
NtRp3506
(dp3507
g54
(dp3508
g74
g75
ssg63
g3502
sg56
(lp3509
g326
asbag49
(g70
g51
NtRp3510
(dp3511
g54
(dp3512
g81
g82
ssg63
g3502
sg56
(lp3513
S':'
asbag49
(g70
g51
NtRp3514
(dp3515
g54
(dp3516
sg63
g3502
sg56
(lp3517
g49
(g50
g51
NtRp3518
(dp3519
g54
(dp3520
g62
I3
ssg63
g3514
sg56
(lp3521
S''
asbasbasbag49
(g65
g51
NtRp3522
(dp3523
g54
(dp3524
sg63
g3438
sg56
(lp3525
g49
(g70
g51
NtRp3526
(dp3527
g54
(dp3528
g74
g75
ssg63
g3522
sg56
(lp3529
g347
asbag49
(g70
g51
NtRp3530
(dp3531
g54
(dp3532
g81
g82
ssg63
g3522
sg56
(lp3533
S':'
asbag49
(g70
g51
NtRp3534
(dp3535
g54
(dp3536
sg63
g3522
sg56
(lp3537
g49
(g50
g51
NtRp3538
(dp3539
g54
(dp3540
g62
I3
ssg63
g3534
sg56
(lp3541
S'/'
asbasbasbag49
(g65
g51
NtRp3542
(dp3543
g54
(dp3544
sg63
g3438
sg56
(lp3545
g49
(g70
g51
NtRp3546
(dp3547
g54
(dp3548
g74
g75
ssg63
g3542
sg56
(lp3549
g368
asbag49
(g70
g51
NtRp3550
(dp3551
g54
(dp3552
g81
g82
ssg63
g3542
sg56
(lp3553
S':'
asbag49
(g70
g51
NtRp3554
(dp3555
g54
(dp3556
sg63
g3542
sg56
(lp3557
g49
(g50
g51
NtRp3558
(dp3559
g54
(dp3560
g62
I3
ssg63
g3554
sg56
(lp3561
S''
asbasbasbag49
(g65
g51
NtRp3562
(dp3563
g54
(dp3564
sg63
g3438
sg56
(lp3565
g49
(g70
g51
NtRp3566
(dp3567
g54
(dp3568
g74
g75
ssg63
g3562
sg56
(lp3569
g389
asbag49
(g70
g51
NtRp3570
(dp3571
g54
(dp3572
g81
g82
ssg63
g3562
sg56
(lp3573
S':'
asbag49
(g70
g51
NtRp3574
(dp3575
g54
(dp3576
sg63
g3562
sg56
(lp3577
g49
(g50
g51
NtRp3578
(dp3579
g54
(dp3580
g62
I3
ssg63
g3574
sg56
(lp3581
S''
asbasbasbasbasbasbasbasbasbasbasbag49
(g65
g51
NtRp3582
(dp3583
g54
(dp3584
sg63
g3368
sg56
(lp3585
g49
(g70
g51
NtRp3586
(dp3587
g54
(dp3588
g74
g75
ssg63
g3582
sg56
(lp3589
S'delimiters'
p3590
asbag49
(g70
g51
NtRp3591
(dp3592
g54
(dp3593
g81
g82
ssg63
g3582
sg56
(lp3594
S':'
asbag49
(g70
g51
NtRp3595
(dp3596
g54
(dp3597
sg63
g3582
sg56
(lp3598
g49
(g50
g51
NtRp3599
(dp3600
g54
(dp3601
g62
I5
ssg63
g3595
sg56
(lp3602
g49
(g58
g51
NtRp3603
(dp3604
g54
(dp3605
g62
I4
ssg63
Nsg56
(lp3606
g49
(g65
g51
NtRp3607
(dp3608
g54
(dp3609
sg63
g3603
sg56
(lp3610
g49
(g70
g51
NtRp3611
(dp3612
g54
(dp3613
sg63
g3607
sg56
(lp3614
g49
(g50
g51
NtRp3615
(dp3616
g54
(dp3617
g62
I4
ssg63
g3611
sg56
(lp3618
S'{{'
p3619
asbasbasbag49
(g65
g51
NtRp3620
(dp3621
g54
(dp3622
sg63
g3603
sg56
(lp3623
g49
(g70
g51
NtRp3624
(dp3625
g54
(dp3626
sg63
g3620
sg56
(lp3627
g49
(g50
g51
NtRp3628
(dp3629
g54
(dp3630
g62
I4
ssg63
g3624
sg56
(lp3631
S'}}'
p3632
asbasbasbasbasbasbasbag49
(g65
g51
NtRp3633
(dp3634
g54
(dp3635
sg63
g3368
sg56
(lp3636
g49
(g70
g51
NtRp3637
(dp3638
g54
(dp3639
g74
g75
ssg63
g3633
sg56
(lp3640
S'files'
p3641
asbag49
(g70
g51
NtRp3642
(dp3643
g54
(dp3644
g81
g82
ssg63
g3633
sg56
(lp3645
S':'
asbag49
(g70
g51
NtRp3646
(dp3647
g54
(dp3648
sg63
g3633
sg56
(lp3649
g49
(g50
g51
NtRp3650
(dp3651
g54
(dp3652
g62
I5
ssg63
g3646
sg56
(lp3653
g49
(g58
g51
NtRp3654
(dp3655
g54
(dp3656
g62
I4
ssg63
Nsg56
(lp3657
sbasbasbasbag49
(g65
g51
NtRp3658
(dp3659
g54
(dp3660
sg63
g3368
sg56
(lp3661
g49
(g70
g51
NtRp3662
(dp3663
g54
(dp3664
g74
g75
ssg63
g3658
sg56
(lp3665
S'flash'
p3666
asbag49
(g70
g51
NtRp3667
(dp3668
g54
(dp3669
g81
g82
ssg63
g3658
sg56
(lp3670
S':'
asbag49
(g70
g51
NtRp3671
(dp3672
g54
(dp3673
sg63
g3658
sg56
(lp3674
g49
(g50
g51
NtRp3675
(dp3676
g54
(dp3677
g62
I5
ssg63
g3671
sg56
(lp3678
S''
asbasbasbag49
(g65
g51
NtRp3679
(dp3680
g54
(dp3681
sg63
g3368
sg56
(lp3682
g49
(g70
g51
NtRp3683
(dp3684
g54
(dp3685
g74
g75
ssg63
g3679
sg56
(lp3686
S'generic_patterns'
p3687
asbag49
(g70
g51
NtRp3688
(dp3689
g54
(dp3690
g81
g82
ssg63
g3679
sg56
(lp3691
S':'
asbag49
(g70
g51
NtRp3692
(dp3693
g54
(dp3694
sg63
g3679
sg56
(lp3695
g49
(g50
g51
NtRp3696
(dp3697
g54
(dp3698
g62
I5
ssg63
g3692
sg56
(lp3699
g49
(g58
g51
NtRp3700
(dp3701
g54
(dp3702
g62
I4
ssg63
Nsg56
(lp3703
g49
(g65
g51
NtRp3704
(dp3705
g54
(dp3706
sg63
g3700
sg56
(lp3707
g49
(g70
g51
NtRp3708
(dp3709
g54
(dp3710
sg63
g3704
sg56
(lp3711
g49
(g50
g51
NtRp3712
(dp3713
g54
(dp3714
g62
I4
ssg63
g3708
sg56
(lp3715
S'*'
asbasbasbasbasbasbasbag49
(g65
g51
NtRp3716
(dp3717
g54
(dp3718
sg63
g3368
sg56
(lp3719
g49
(g70
g51
NtRp3720
(dp3721
g54
(dp3722
g74
g75
ssg63
g3716
sg56
(lp3723
S'headers'
p3724
asbag49
(g70
g51
NtRp3725
(dp3726
g54
(dp3727
g81
g82
ssg63
g3716
sg56
(lp3728
S':'
asbag49
(g70
g51
NtRp3729
(dp3730
g54
(dp3731
sg63
g3716
sg56
(lp3732
g49
(g50
g51
NtRp3733
(dp3734
g54
(dp3735
g62
I5
ssg63
g3729
sg56
(lp3736
g49
(g58
g51
NtRp3737
(dp3738
g54
(dp3739
g62
I4
ssg63
Nsg56
(lp3740
g49
(g65
g51
NtRp3741
(dp3742
g54
(dp3743
sg63
g3737
sg56
(lp3744
g49
(g70
g51
NtRp3745
(dp3746
g54
(dp3747
g74
g75
ssg63
g3741
sg56
(lp3748
S'Cache-Control'
p3749
asbag49
(g70
g51
NtRp3750
(dp3751
g54
(dp3752
g81
g82
ssg63
g3741
sg56
(lp3753
S':'
asbag49
(g70
g51
NtRp3754
(dp3755
g54
(dp3756
sg63
g3741
sg56
(lp3757
g49
(g50
g51
NtRp3758
(dp3759
g54
(dp3760
g62
I4
ssg63
g3754
sg56
(lp3761
S'no-store, no-cache, must-revalidate, post-check=0, pre-check=0'
p3762
asbasbasbag49
(g65
g51
NtRp3763
(dp3764
g54
(dp3765
sg63
g3737
sg56
(lp3766
g49
(g70
g51
NtRp3767
(dp3768
g54
(dp3769
g74
g75
ssg63
g3763
sg56
(lp3770
S'Content-Type'
p3771
asbag49
(g70
g51
NtRp3772
(dp3773
g54
(dp3774
g81
g82
ssg63
g3763
sg56
(lp3775
S':'
asbag49
(g70
g51
NtRp3776
(dp3777
g54
(dp3778
sg63
g3763
sg56
(lp3779
g49
(g50
g51
NtRp3780
(dp3781
g54
(dp3782
g62
I4
ssg63
g3776
sg56
(lp3783
S'text/html; charset=utf-8'
p3784
asbasbasbag49
(g65
g51
NtRp3785
(dp3786
g54
(dp3787
sg63
g3737
sg56
(lp3788
g49
(g70
g51
NtRp3789
(dp3790
g54
(dp3791
g74
g75
ssg63
g3785
sg56
(lp3792
S'Expires'
p3793
asbag49
(g70
g51
NtRp3794
(dp3795
g54
(dp3796
g81
g82
ssg63
g3785
sg56
(lp3797
S':'
asbag49
(g70
g51
NtRp3798
(dp3799
g54
(dp3800
sg63
g3785
sg56
(lp3801
g49
(g50
g51
NtRp3802
(dp3803
g54
(dp3804
g62
I4
ssg63
g3798
sg56
(lp3805
S'Thu, 30 Aug 2012 13:47:23 GMT'
p3806
asbasbasbag49
(g65
g51
NtRp3807
(dp3808
g54
(dp3809
sg63
g3737
sg56
(lp3810
g49
(g70
g51
NtRp3811
(dp3812
g54
(dp3813
g74
g75
ssg63
g3807
sg56
(lp3814
S'Pragma'
p3815
asbag49
(g70
g51
NtRp3816
(dp3817
g54
(dp3818
g81
g82
ssg63
g3807
sg56
(lp3819
S':'
asbag49
(g70
g51
NtRp3820
(dp3821
g54
(dp3822
sg63
g3807
sg56
(lp3823
g49
(g50
g51
NtRp3824
(dp3825
g54
(dp3826
g62
I4
ssg63
g3820
sg56
(lp3827
S'no-cache'
p3828
asbasbasbag49
(g65
g51
NtRp3829
(dp3830
g54
(dp3831
sg63
g3737
sg56
(lp3832
g49
(g70
g51
NtRp3833
(dp3834
g54
(dp3835
g74
g75
ssg63
g3829
sg56
(lp3836
S'X-Powered-By'
p3837
asbag49
(g70
g51
NtRp3838
(dp3839
g54
(dp3840
g81
g82
ssg63
g3829
sg56
(lp3841
S':'
asbag49
(g70
g51
NtRp3842
(dp3843
g54
(dp3844
sg63
g3829
sg56
(lp3845
g49
(g50
g51
NtRp3846
(dp3847
g54
(dp3848
g62
I4
ssg63
g3842
sg56
(lp3849
S'web2py'
p3850
asbasbasbasbasbasbasbag49
(g65
g51
NtRp3851
(dp3852
g54
(dp3853
sg63
g3368
sg56
(lp3854
g49
(g70
g51
NtRp3855
(dp3856
g54
(dp3857
g74
g75
ssg63
g3851
sg56
(lp3858
S'menu'
p3859
asbag49
(g70
g51
NtRp3860
(dp3861
g54
(dp3862
g81
g82
ssg63
g3851
sg56
(lp3863
S':'
asbag49
(g70
g51
NtRp3864
(dp3865
g54
(dp3866
sg63
g3851
sg56
(lp3867
g49
(g50
g51
NtRp3868
(dp3869
g54
(dp3870
g62
I5
ssg63
g3864
sg56
(lp3871
g49
(g58
g51
NtRp3872
(dp3873
g54
(dp3874
g62
I4
ssg63
Nsg56
(lp3875
g49
(g65
g51
NtRp3876
(dp3877
g54
(dp3878
sg63
g3872
sg56
(lp3879
g49
(g70
g51
NtRp3880
(dp3881
g54
(dp3882
sg63
g3876
sg56
(lp3883
g49
(g50
g51
NtRp3884
(dp3885
g54
(dp3886
g62
I4
ssg63
g3880
sg56
(lp3887
g49
(g58
g51
NtRp3888
(dp3889
g54
(dp3890
g62
I3
ssg63
Nsg56
(lp3891
g49
(g65
g51
NtRp3892
(dp3893
g54
(dp3894
sg63
g3888
sg56
(lp3895
g49
(g70
g51
NtRp3896
(dp3897
g54
(dp3898
sg63
g3892
sg56
(lp3899
g49
(g50
g51
NtRp3900
(dp3901
g54
(dp3902
g62
I3
ssg63
g3896
sg56
(lp3903
cgluon.languages
lazyT_unpickle
p3904
(S't\x04\x00\x00\x00Home'
tRp3905
asbasbasbag49
(g65
g51
NtRp3906
(dp3907
g54
(dp3908
sg63
g3888
sg56
(lp3909
g49
(g70
g51
NtRp3910
(dp3911
g54
(dp3912
sg63
g3906
sg56
(lp3913
g49
(g50
g51
NtRp3914
(dp3915
g54
(dp3916
g62
I3
ssg63
g3910
sg56
(lp3917
g92
asbasbasbag49
(g65
g51
NtRp3918
(dp3919
g54
(dp3920
sg63
g3888
sg56
(lp3921
g49
(g70
g51
NtRp3922
(dp3923
g54
(dp3924
sg63
g3918
sg56
(lp3925
g49
(g50
g51
NtRp3926
(dp3927
g54
(dp3928
g62
I3
ssg63
g3922
sg56
(lp3929
S'/IguassuPass/default/index'
p3930
asbasbasbag49
(g65
g51
NtRp3931
(dp3932
g54
(dp3933
sg63
g3888
sg56
(lp3934
g49
(g70
g51
NtRp3935
(dp3936
g54
(dp3937
sg63
g3931
sg56
(lp3938
g49
(g50
g51
NtRp3939
(dp3940
g54
(dp3941
g62
I3
ssg63
g3935
sg56
(lp3942
g49
(g58
g51
NtRp3943
(dp3944
g54
(dp3945
g62
I2
ssg63
Nsg56
(lp3946
sbasbasbasbasbasbasbasbag49
(g65
g51
NtRp3947
(dp3948
g54
(dp3949
sg63
g3872
sg56
(lp3950
g49
(g70
g51
NtRp3951
(dp3952
g54
(dp3953
sg63
g3947
sg56
(lp3954
g49
(g50
g51
NtRp3955
(dp3956
g54
(dp3957
g62
I4
ssg63
g3951
sg56
(lp3958
g49
(g58
g51
NtRp3959
(dp3960
g54
(dp3961
g62
I3
ssg63
Nsg56
(lp3962
g49
(g65
g51
NtRp3963
(dp3964
g54
(dp3965
sg63
g3959
sg56
(lp3966
g49
(g70
g51
NtRp3967
(dp3968
g54
(dp3969
sg63
g3963
sg56
(lp3970
g49
(g50
g51
NtRp3971
(dp3972
g54
(dp3973
g62
I3
ssg63
g3967
sg56
(lp3974
g49
(cgluon.html
SPAN
p3975
g51
NtRp3976
(dp3977
g54
(dp3978
g74
S'color:yellow'
p3979
ssg63
Nsg56
(lp3980
g3850
asbasbasbasbag49
(g65
g51
NtRp3981
(dp3982
g54
(dp3983
sg63
g3959
sg56
(lp3984
g49
(g70
g51
NtRp3985
(dp3986
g54
(dp3987
sg63
g3981
sg56
(lp3988
g49
(g50
g51
NtRp3989
(dp3990
g54
(dp3991
g62
I3
ssg63
g3985
sg56
(lp3992
g92
asbasbasbag49
(g65
g51
NtRp3993
(dp3994
g54
(dp3995
sg63
g3959
sg56
(lp3996
g49
(g70
g51
NtRp3997
(dp3998
g54
(dp3999
sg63
g3993
sg56
(lp4000
g49
(g50
g51
NtRp4001
(dp4002
g54
(dp4003
g62
I3
ssg63
g3997
sg56
(lp4004
S'None'
p4005
asbasbasbag49
(g65
g51
NtRp4006
(dp4007
g54
(dp4008
sg63
g3959
sg56
(lp4009
g49
(g70
g51
NtRp4010
(dp4011
g54
(dp4012
sg63
g4006
sg56
(lp4013
g49
(g50
g51
NtRp4014
(dp4015
g54
(dp4016
g62
I3
ssg63
g4010
sg56
(lp4017
g49
(g58
g51
NtRp4018
(dp4019
g54
(dp4020
g62
I2
ssg63
Nsg56
(lp4021
g49
(g65
g51
NtRp4022
(dp4023
g54
(dp4024
sg63
g4018
sg56
(lp4025
g49
(g70
g51
NtRp4026
(dp4027
g54
(dp4028
sg63
g4022
sg56
(lp4029
g49
(g50
g51
NtRp4030
(dp4031
g54
(dp4032
g62
I2
ssg63
g4026
sg56
(lp4033
g49
(g58
g51
NtRp4034
(dp4035
g54
(dp4036
g62
I1
ssg63
Nsg56
(lp4037
g49
(g65
g51
NtRp4038
(dp4039
g54
(dp4040
sg63
g4034
sg56
(lp4041
g49
(g70
g51
NtRp4042
(dp4043
g54
(dp4044
sg63
g4038
sg56
(lp4045
g49
(g50
g51
NtRp4046
(dp4047
g54
(dp4048
g62
I1
ssg63
g4042
sg56
(lp4049
g3904
(S's\x08\x00\x00\x00My Sites'
tRp4050
asbasbasbag49
(g65
g51
NtRp4051
(dp4052
g54
(dp4053
sg63
g4034
sg56
(lp4054
g49
(g70
g51
NtRp4055
(dp4056
g54
(dp4057
sg63
g4051
sg56
(lp4058
g49
(g50
g51
NtRp4059
(dp4060
g54
(dp4061
g62
I1
ssg63
g4055
sg56
(lp4062
I00
asbasbasbag49
(g65
g51
NtRp4063
(dp4064
g54
(dp4065
sg63
g4034
sg56
(lp4066
g49
(g70
g51
NtRp4067
(dp4068
g54
(dp4069
sg63
g4063
sg56
(lp4070
g49
(g50
g51
NtRp4071
(dp4072
g54
(dp4073
g62
I1
ssg63
g4067
sg56
(lp4074
S'/admin/default/site'
p4075
asbasbasbasbasbasbasbag49
(g65
g51
NtRp4076
(dp4077
g54
(dp4078
sg63
g4018
sg56
(lp4079
g49
(g70
g51
NtRp4080
(dp4081
g54
(dp4082
sg63
g4076
sg56
(lp4083
g49
(g50
g51
NtRp4084
(dp4085
g54
(dp4086
g62
I2
ssg63
g4080
sg56
(lp4087
g49
(g58
g51
NtRp4088
(dp4089
g54
(dp4090
g62
I1
ssg63
Nsg56
(lp4091
g49
(g65
g51
NtRp4092
(dp4093
g54
(dp4094
sg63
g4088
sg56
(lp4095
g49
(g70
g51
NtRp4096
(dp4097
g54
(dp4098
sg63
g4092
sg56
(lp4099
g49
(g50
g51
NtRp4100
(dp4101
g54
(dp4102
g62
I1
ssg63
g4096
sg56
(lp4103
g3904
(S's\x08\x00\x00\x00This App'
tRp4104
asbasbasbag49
(g65
g51
NtRp4105
(dp4106
g54
(dp4107
sg63
g4088
sg56
(lp4108
g49
(g70
g51
NtRp4109
(dp4110
g54
(dp4111
sg63
g4105
sg56
(lp4112
g49
(g50
g51
NtRp4113
(dp4114
g54
(dp4115
g62
I1
ssg63
g4109
sg56
(lp4116
I00
asbasbasbag49
(g65
g51
NtRp4117
(dp4118
g54
(dp4119
sg63
g4088
sg56
(lp4120
g49
(g70
g51
NtRp4121
(dp4122
g54
(dp4123
sg63
g4117
sg56
(lp4124
g49
(g50
g51
NtRp4125
(dp4126
g54
(dp4127
g62
I1
ssg63
g4121
sg56
(lp4128
S'/admin/default/design/IguassuPass'
p4129
asbasbasbag49
(g65
g51
NtRp4130
(dp4131
g54
(dp4132
sg63
g4088
sg56
(lp4133
g49
(g70
g51
NtRp4134
(dp4135
g54
(dp4136
sg63
g4130
sg56
(lp4137
g49
(g50
g51
NtRp4138
(dp4139
g54
(dp4140
g62
I1
ssg63
g4134
sg56
(lp4141
(lp4142
(g3904
(S't\n\x00\x00\x00Controller'
tRp4143
I00
S'/admin/default/edit/IguassuPass/controllers/default.py'
tp4144
a(g3904
(S't\x04\x00\x00\x00View'
tRp4145
I00
S'/admin/default/edit/IguassuPass/views/default/atracoes.html'
tp4146
a(g3904
(S't\x06\x00\x00\x00Layout'
tRp4147
I00
S'/admin/default/edit/IguassuPass/views/layout.html'
tp4148
a(g3904
(S't\n\x00\x00\x00Stylesheet'
tRp4149
I00
S'/admin/default/edit/IguassuPass/static/css/web2py.css'
tp4150
a(g3904
(S's\x08\x00\x00\x00DB Model'
tRp4151
I00
S'/admin/default/edit/IguassuPass/models/db.py'
tp4152
a(g3904
(S's\n\x00\x00\x00Menu Model'
tRp4153
I00
S'/admin/default/edit/IguassuPass/models/menu.py'
tp4154
a(g3904
(S't\x08\x00\x00\x00Database'
tRp4155
I00
S'/IguassuPass/appadmin/index'
tp4156
a(g3904
(S't\x06\x00\x00\x00Errors'
tRp4157
I00
S'/admin/default/errors/IguassuPass'
tp4158
a(g3904
(S't\x05\x00\x00\x00About'
tRp4159
I00
S'/admin/default/about/IguassuPass'
tp4160
aasbasbasbasbasbasbasbag49
(g65
g51
NtRp4161
(dp4162
g54
(dp4163
sg63
g4018
sg56
(lp4164
g49
(g70
g51
NtRp4165
(dp4166
g54
(dp4167
sg63
g4161
sg56
(lp4168
g49
(g50
g51
NtRp4169
(dp4170
g54
(dp4171
g62
I2
ssg63
g4165
sg56
(lp4172
g49
(g58
g51
NtRp4173
(dp4174
g54
(dp4175
g62
I1
ssg63
Nsg56
(lp4176
g49
(g65
g51
NtRp4177
(dp4178
g54
(dp4179
sg63
g4173
sg56
(lp4180
g49
(g70
g51
NtRp4181
(dp4182
g54
(dp4183
sg63
g4177
sg56
(lp4184
g49
(g50
g51
NtRp4185
(dp4186
g54
(dp4187
g62
I1
ssg63
g4181
sg56
(lp4188
S'web2py.com'
p4189
asbasbasbag49
(g65
g51
NtRp4190
(dp4191
g54
(dp4192
sg63
g4173
sg56
(lp4193
g49
(g70
g51
NtRp4194
(dp4195
g54
(dp4196
sg63
g4190
sg56
(lp4197
g49
(g50
g51
NtRp4198
(dp4199
g54
(dp4200
g62
I1
ssg63
g4194
sg56
(lp4201
I00
asbasbasbag49
(g65
g51
NtRp4202
(dp4203
g54
(dp4204
sg63
g4173
sg56
(lp4205
g49
(g70
g51
NtRp4206
(dp4207
g54
(dp4208
sg63
g4202
sg56
(lp4209
g49
(g50
g51
NtRp4210
(dp4211
g54
(dp4212
g62
I1
ssg63
g4206
sg56
(lp4213
S'http://www.web2py.com'
p4214
asbasbasbag49
(g65
g51
NtRp4215
(dp4216
g54
(dp4217
sg63
g4173
sg56
(lp4218
g49
(g70
g51
NtRp4219
(dp4220
g54
(dp4221
sg63
g4215
sg56
(lp4222
g49
(g50
g51
NtRp4223
(dp4224
g54
(dp4225
g62
I1
ssg63
g4219
sg56
(lp4226
(lp4227
(g3904
(S't\x08\x00\x00\x00Download'
tRp4228
I00
S'http://www.web2py.com/examples/default/download'
p4229
tp4230
a(g3904
(S't\x07\x00\x00\x00Support'
tRp4231
I00
S'http://www.web2py.com/examples/default/support'
p4232
tp4233
a(g3904
(S't\x04\x00\x00\x00Demo'
tRp4234
I00
S'http://web2py.com/demo_admin'
p4235
tp4236
a(g3904
(S's\x0e\x00\x00\x00Quick Examples'
tRp4237
I00
S'http://web2py.com/examples/default/examples'
p4238
tp4239
a(g3904
(S't\x03\x00\x00\x00FAQ'
tRp4240
I00
S'http://web2py.com/AlterEgo'
p4241
tp4242
a(g3904
(S't\x06\x00\x00\x00Videos'
tRp4243
I00
S'http://www.web2py.com/examples/default/videos/'
p4244
tp4245
a(g3904
(S's\x11\x00\x00\x00Free Applications'
tRp4246
I00
S'http://web2py.com/appliances'
p4247
tp4248
a(g3904
(S't\x07\x00\x00\x00Plugins'
tRp4249
I00
S'http://web2py.com/plugins'
p4250
tp4251
a(g3904
(S't\x07\x00\x00\x00Layouts'
tRp4252
I00
S'http://web2py.com/layouts'
p4253
tp4254
a(g3904
(S't\x07\x00\x00\x00Recipes'
tRp4255
I00
S'http://web2pyslices.com/'
p4256
tp4257
a(g3904
(S't\x08\x00\x00\x00Semantic'
tRp4258
I00
S'http://web2py.com/semantic'
p4259
tp4260
aasbasbasbasbasbasbasbag49
(g65
g51
NtRp4261
(dp4262
g54
(dp4263
sg63
g4018
sg56
(lp4264
g49
(g70
g51
NtRp4265
(dp4266
g54
(dp4267
sg63
g4261
sg56
(lp4268
g49
(g50
g51
NtRp4269
(dp4270
g54
(dp4271
g62
I2
ssg63
g4265
sg56
(lp4272
g49
(g58
g51
NtRp4273
(dp4274
g54
(dp4275
g62
I1
ssg63
Nsg56
(lp4276
g49
(g65
g51
NtRp4277
(dp4278
g54
(dp4279
sg63
g4273
sg56
(lp4280
g49
(g70
g51
NtRp4281
(dp4282
g54
(dp4283
sg63
g4277
sg56
(lp4284
g49
(g50
g51
NtRp4285
(dp4286
g54
(dp4287
g62
I1
ssg63
g4281
sg56
(lp4288
g3904
(S't\r\x00\x00\x00Documentation'
tRp4289
asbasbasbag49
(g65
g51
NtRp4290
(dp4291
g54
(dp4292
sg63
g4273
sg56
(lp4293
g49
(g70
g51
NtRp4294
(dp4295
g54
(dp4296
sg63
g4290
sg56
(lp4297
g49
(g50
g51
NtRp4298
(dp4299
g54
(dp4300
g62
I1
ssg63
g4294
sg56
(lp4301
I00
asbasbasbag49
(g65
g51
NtRp4302
(dp4303
g54
(dp4304
sg63
g4273
sg56
(lp4305
g49
(g70
g51
NtRp4306
(dp4307
g54
(dp4308
sg63
g4302
sg56
(lp4309
g49
(g50
g51
NtRp4310
(dp4311
g54
(dp4312
g62
I1
ssg63
g4306
sg56
(lp4313
S'http://www.web2py.com/book'
p4314
asbasbasbag49
(g65
g51
NtRp4315
(dp4316
g54
(dp4317
sg63
g4273
sg56
(lp4318
g49
(g70
g51
NtRp4319
(dp4320
g54
(dp4321
sg63
g4315
sg56
(lp4322
g49
(g50
g51
NtRp4323
(dp4324
g54
(dp4325
g62
I1
ssg63
g4319
sg56
(lp4326
(lp4327
(g3904
(S't\x07\x00\x00\x00Preface'
tRp4328
I00
S'http://www.web2py.com/book/default/chapter/00'
p4329
tp4330
a(g3904
(S't\x0c\x00\x00\x00Introduction'
tRp4331
I00
S'http://www.web2py.com/book/default/chapter/01'
p4332
tp4333
a(g3904
(S't\x06\x00\x00\x00Python'
tRp4334
I00
S'http://www.web2py.com/book/default/chapter/02'
p4335
tp4336
a(g3904
(S't\x08\x00\x00\x00Overview'
tRp4337
I00
S'http://www.web2py.com/book/default/chapter/03'
p4338
tp4339
a(g3904
(S's\x08\x00\x00\x00The Core'
tRp4340
I00
S'http://www.web2py.com/book/default/chapter/04'
p4341
tp4342
a(g3904
(S's\t\x00\x00\x00The Views'
tRp4343
I00
S'http://www.web2py.com/book/default/chapter/05'
p4344
tp4345
a(g3904
(S't\x08\x00\x00\x00Database'
tRp4346
I00
S'http://www.web2py.com/book/default/chapter/06'
p4347
tp4348
a(g3904
(S's\x14\x00\x00\x00Forms and Validators'
tRp4349
I00
S'http://www.web2py.com/book/default/chapter/07'
p4350
tp4351
a(g3904
(S's\r\x00\x00\x00Email and SMS'
tRp4352
I00
S'http://www.web2py.com/book/default/chapter/08'
p4353
tp4354
a(g3904
(S's\x0e\x00\x00\x00Access Control'
tRp4355
I00
S'http://www.web2py.com/book/default/chapter/09'
p4356
tp4357
a(g3904
(S't\x08\x00\x00\x00Services'
tRp4358
I00
S'http://www.web2py.com/book/default/chapter/10'
p4359
tp4360
a(g3904
(S's\x0c\x00\x00\x00Ajax Recipes'
tRp4361
I00
S'http://www.web2py.com/book/default/chapter/11'
p4362
tp4363
a(g3904
(S's\x16\x00\x00\x00Components and Plugins'
tRp4364
I00
S'http://www.web2py.com/book/default/chapter/12'
p4365
tp4366
a(g3904
(S's\x12\x00\x00\x00Deployment Recipes'
tRp4367
I00
S'http://www.web2py.com/book/default/chapter/13'
p4368
tp4369
a(g3904
(S's\r\x00\x00\x00Other Recipes'
tRp4370
I00
S'http://www.web2py.com/book/default/chapter/14'
p4371
tp4372
a(g3904
(S's\r\x00\x00\x00Buy this book'
tRp4373
I00
S'http://stores.lulu.com/web2py'
p4374
tp4375
aasbasbasbasbasbasbasbag49
(g65
g51
NtRp4376
(dp4377
g54
(dp4378
sg63
g4018
sg56
(lp4379
g49
(g70
g51
NtRp4380
(dp4381
g54
(dp4382
sg63
g4376
sg56
(lp4383
g49
(g50
g51
NtRp4384
(dp4385
g54
(dp4386
g62
I2
ssg63
g4380
sg56
(lp4387
g49
(g58
g51
NtRp4388
(dp4389
g54
(dp4390
g62
I1
ssg63
Nsg56
(lp4391
g49
(g65
g51
NtRp4392
(dp4393
g54
(dp4394
sg63
g4388
sg56
(lp4395
g49
(g70
g51
NtRp4396
(dp4397
g54
(dp4398
sg63
g4392
sg56
(lp4399
g49
(g50
g51
NtRp4400
(dp4401
g54
(dp4402
g62
I1
ssg63
g4396
sg56
(lp4403
g3904
(S't\t\x00\x00\x00Community'
tRp4404
asbasbasbag49
(g65
g51
NtRp4405
(dp4406
g54
(dp4407
sg63
g4388
sg56
(lp4408
g49
(g70
g51
NtRp4409
(dp4410
g54
(dp4411
sg63
g4405
sg56
(lp4412
g49
(g50
g51
NtRp4413
(dp4414
g54
(dp4415
g62
I1
ssg63
g4409
sg56
(lp4416
I00
asbasbasbag49
(g65
g51
NtRp4417
(dp4418
g54
(dp4419
sg63
g4388
sg56
(lp4420
g49
(g70
g51
NtRp4421
(dp4422
g54
(dp4423
sg63
g4417
sg56
(lp4424
g49
(g50
g51
NtRp4425
(dp4426
g54
(dp4427
g62
I1
ssg63
g4421
sg56
(lp4428
Nasbasbasbag49
(g65
g51
NtRp4429
(dp4430
g54
(dp4431
sg63
g4388
sg56
(lp4432
g49
(g70
g51
NtRp4433
(dp4434
g54
(dp4435
sg63
g4429
sg56
(lp4436
g49
(g50
g51
NtRp4437
(dp4438
g54
(dp4439
g62
I1
ssg63
g4433
sg56
(lp4440
(lp4441
(g3904
(S't\x06\x00\x00\x00Groups'
tRp4442
I00
S'http://www.web2py.com/examples/default/usergroups'
p4443
tp4444
a(g3904
(S't\x07\x00\x00\x00Twitter'
tRp4445
I00
S'http://twitter.com/web2py'
p4446
tp4447
a(g3904
(S's\t\x00\x00\x00Live Chat'
tRp4448
I00
S'http://webchat.freenode.net/?channels=web2py'
p4449
tp4450
aasbasbasbasbasbasbasbag49
(g65
g51
NtRp4451
(dp4452
g54
(dp4453
sg63
g4018
sg56
(lp4454
g49
(g70
g51
NtRp4455
(dp4456
g54
(dp4457
sg63
g4451
sg56
(lp4458
g49
(g50
g51
NtRp4459
(dp4460
g54
(dp4461
g62
I2
ssg63
g4455
sg56
(lp4462
g49
(g58
g51
NtRp4463
(dp4464
g54
(dp4465
g62
I1
ssg63
Nsg56
(lp4466
g49
(g65
g51
NtRp4467
(dp4468
g54
(dp4469
sg63
g4463
sg56
(lp4470
g49
(g70
g51
NtRp4471
(dp4472
g54
(dp4473
sg63
g4467
sg56
(lp4474
g49
(g50
g51
NtRp4475
(dp4476
g54
(dp4477
g62
I1
ssg63
g4471
sg56
(lp4478
g3904
(S't\x07\x00\x00\x00Plugins'
tRp4479
asbasbasbag49
(g65
g51
NtRp4480
(dp4481
g54
(dp4482
sg63
g4463
sg56
(lp4483
g49
(g70
g51
NtRp4484
(dp4485
g54
(dp4486
sg63
g4480
sg56
(lp4487
g49
(g50
g51
NtRp4488
(dp4489
g54
(dp4490
g62
I1
ssg63
g4484
sg56
(lp4491
I00
asbasbasbag49
(g65
g51
NtRp4492
(dp4493
g54
(dp4494
sg63
g4463
sg56
(lp4495
g49
(g70
g51
NtRp4496
(dp4497
g54
(dp4498
sg63
g4492
sg56
(lp4499
g49
(g50
g51
NtRp4500
(dp4501
g54
(dp4502
g62
I1
ssg63
g4496
sg56
(lp4503
Nasbasbasbag49
(g65
g51
NtRp4504
(dp4505
g54
(dp4506
sg63
g4463
sg56
(lp4507
g49
(g70
g51
NtRp4508
(dp4509
g54
(dp4510
sg63
g4504
sg56
(lp4511
g49
(g50
g51
NtRp4512
(dp4513
g54
(dp4514
g62
I1
ssg63
g4508
sg56
(lp4515
(lp4516
(S'plugin_wiki'
p4517
I00
S'http://web2py.com/examples/default/download'
p4518
tp4519
a(g3904
(S's\r\x00\x00\x00Other Plugins'
tRp4520
I00
g4250
tp4521
a(g3904
(S's\x0e\x00\x00\x00Layout Plugins'
tRp4522
I00
g4253
tp4523
aasbasbasbasbasbasbasbasbasbasbasbasbasbasbasbasbasbasbasbag49
(g65
g51
NtRp4524
(dp4525
g54
(dp4526
sg63
g3368
sg56
(lp4527
g49
(g70
g51
NtRp4528
(dp4529
g54
(dp4530
g74
g75
ssg63
g4524
sg56
(lp4531
S'meta'
p4532
asbag49
(g70
g51
NtRp4533
(dp4534
g54
(dp4535
g81
g82
ssg63
g4524
sg56
(lp4536
S':'
asbag49
(g70
g51
NtRp4537
(dp4538
g54
(dp4539
sg63
g4524
sg56
(lp4540
g49
(g50
g51
NtRp4541
(dp4542
g54
(dp4543
g62
I5
ssg63
g4537
sg56
(lp4544
g49
(g58
g51
NtRp4545
(dp4546
g54
(dp4547
g62
I4
ssg63
Nsg56
(lp4548
g49
(g65
g51
NtRp4549
(dp4550
g54
(dp4551
sg63
g4545
sg56
(lp4552
g49
(g70
g51
NtRp4553
(dp4554
g54
(dp4555
g74
g75
ssg63
g4549
sg56
(lp4556
S'author'
p4557
asbag49
(g70
g51
NtRp4558
(dp4559
g54
(dp4560
g81
g82
ssg63
g4549
sg56
(lp4561
S':'
asbag49
(g70
g51
NtRp4562
(dp4563
g54
(dp4564
sg63
g4549
sg56
(lp4565
g49
(g50
g51
NtRp4566
(dp4567
g54
(dp4568
g62
I4
ssg63
g4562
sg56
(lp4569
S'Your Name <you@example.com>'
p4570
asbasbasbag49
(g65
g51
NtRp4571
(dp4572
g54
(dp4573
sg63
g4545
sg56
(lp4574
g49
(g70
g51
NtRp4575
(dp4576
g54
(dp4577
g74
g75
ssg63
g4571
sg56
(lp4578
S'copyright'
p4579
asbag49
(g70
g51
NtRp4580
(dp4581
g54
(dp4582
g81
g82
ssg63
g4571
sg56
(lp4583
S':'
asbag49
(g70
g51
NtRp4584
(dp4585
g54
(dp4586
sg63
g4571
sg56
(lp4587
g49
(g50
g51
NtRp4588
(dp4589
g54
(dp4590
g62
I4
ssg63
g4584
sg56
(lp4591
S'Copyright 2011'
p4592
asbasbasbag49
(g65
g51
NtRp4593
(dp4594
g54
(dp4595
sg63
g4545
sg56
(lp4596
g49
(g70
g51
NtRp4597
(dp4598
g54
(dp4599
g74
g75
ssg63
g4593
sg56
(lp4600
S'description'
p4601
asbag49
(g70
g51
NtRp4602
(dp4603
g54
(dp4604
g81
g82
ssg63
g4593
sg56
(lp4605
S':'
asbag49
(g70
g51
NtRp4606
(dp4607
g54
(dp4608
sg63
g4593
sg56
(lp4609
g49
(g50
g51
NtRp4610
(dp4611
g54
(dp4612
g62
I4
ssg63
g4606
sg56
(lp4613
S'a cool new app'
p4614
asbasbasbag49
(g65
g51
NtRp4615
(dp4616
g54
(dp4617
sg63
g4545
sg56
(lp4618
g49
(g70
g51
NtRp4619
(dp4620
g54
(dp4621
g74
g75
ssg63
g4615
sg56
(lp4622
S'generator'
p4623
asbag49
(g70
g51
NtRp4624
(dp4625
g54
(dp4626
g81
g82
ssg63
g4615
sg56
(lp4627
S':'
asbag49
(g70
g51
NtRp4628
(dp4629
g54
(dp4630
sg63
g4615
sg56
(lp4631
g49
(g50
g51
NtRp4632
(dp4633
g54
(dp4634
g62
I4
ssg63
g4628
sg56
(lp4635
S'Web2py Web Framework'
p4636
asbasbasbag49
(g65
g51
NtRp4637
(dp4638
g54
(dp4639
sg63
g4545
sg56
(lp4640
g49
(g70
g51
NtRp4641
(dp4642
g54
(dp4643
g74
g75
ssg63
g4637
sg56
(lp4644
S'keywords'
p4645
asbag49
(g70
g51
NtRp4646
(dp4647
g54
(dp4648
g81
g82
ssg63
g4637
sg56
(lp4649
S':'
asbag49
(g70
g51
NtRp4650
(dp4651
g54
(dp4652
sg63
g4637
sg56
(lp4653
g49
(g50
g51
NtRp4654
(dp4655
g54
(dp4656
g62
I4
ssg63
g4650
sg56
(lp4657
S'web2py, python, framework'
p4658
asbasbasbasbasbasbasbag49
(g65
g51
NtRp4659
(dp4660
g54
(dp4661
sg63
g3368
sg56
(lp4662
g49
(g70
g51
NtRp4663
(dp4664
g54
(dp4665
g74
g75
ssg63
g4659
sg56
(lp4666
S'postprocessing'
p4667
asbag49
(g70
g51
NtRp4668
(dp4669
g54
(dp4670
g81
g82
ssg63
g4659
sg56
(lp4671
S':'
asbag49
(g70
g51
NtRp4672
(dp4673
g54
(dp4674
sg63
g4659
sg56
(lp4675
g49
(g50
g51
NtRp4676
(dp4677
g54
(dp4678
g62
I5
ssg63
g4672
sg56
(lp4679
g49
(g58
g51
NtRp4680
(dp4681
g54
(dp4682
g62
I4
ssg63
Nsg56
(lp4683
sbasbasbasbag49
(g65
g51
NtRp4684
(dp4685
g54
(dp4686
sg63
g3368
sg56
(lp4687
g49
(g70
g51
NtRp4688
(dp4689
g54
(dp4690
g74
g75
ssg63
g4684
sg56
(lp4691
S'session_file'
p4692
asbag49
(g70
g51
NtRp4693
(dp4694
g54
(dp4695
g81
g82
ssg63
g4684
sg56
(lp4696
S':'
asbag49
(g70
g51
NtRp4697
(dp4698
g54
(dp4699
sg63
g4684
sg56
(lp4700
g49
(g50
g51
NtRp4701
(dp4702
g54
(dp4703
g62
I5
ssg63
g4697
sg56
(lp4704
S"<open file 'C:\\Users\\ceasbpi\\Dropbox\\web2py\\applications\\IguassuPass\\sessions\\127.0.0.1-0ebf5fce-933e-4652-8d87-32a636575dba', mode 'rb+' at 0x075FE9B0>"
p4705
asbasbasbag49
(g65
g51
NtRp4706
(dp4707
g54
(dp4708
sg63
g3368
sg56
(lp4709
g49
(g70
g51
NtRp4710
(dp4711
g54
(dp4712
g74
g75
ssg63
g4706
sg56
(lp4713
S'session_filename'
p4714
asbag49
(g70
g51
NtRp4715
(dp4716
g54
(dp4717
g81
g82
ssg63
g4706
sg56
(lp4718
S':'
asbag49
(g70
g51
NtRp4719
(dp4720
g54
(dp4721
sg63
g4706
sg56
(lp4722
g49
(g50
g51
NtRp4723
(dp4724
g54
(dp4725
g62
I5
ssg63
g4719
sg56
(lp4726
S'C:\\Users\\ceasbpi\\Dropbox\\web2py\\applications\\IguassuPass\\sessions\\127.0.0.1-0ebf5fce-933e-4652-8d87-32a636575dba'
p4727
asbasbasbag49
(g65
g51
NtRp4728
(dp4729
g54
(dp4730
sg63
g3368
sg56
(lp4731
g49
(g70
g51
NtRp4732
(dp4733
g54
(dp4734
g74
g75
ssg63
g4728
sg56
(lp4735
S'session_id'
p4736
asbag49
(g70
g51
NtRp4737
(dp4738
g54
(dp4739
g81
g82
ssg63
g4728
sg56
(lp4740
S':'
asbag49
(g70
g51
NtRp4741
(dp4742
g54
(dp4743
sg63
g4728
sg56
(lp4744
g49
(g50
g51
NtRp4745
(dp4746
g54
(dp4747
g62
I5
ssg63
g4741
sg56
(lp4748
S'127.0.0.1-0ebf5fce-933e-4652-8d87-32a636575dba'
p4749
asbasbasbag49
(g65
g51
NtRp4750
(dp4751
g54
(dp4752
sg63
g3368
sg56
(lp4753
g49
(g70
g51
NtRp4754
(dp4755
g54
(dp4756
g74
g75
ssg63
g4750
sg56
(lp4757
S'session_id_name'
p4758
asbag49
(g70
g51
NtRp4759
(dp4760
g54
(dp4761
g81
g82
ssg63
g4750
sg56
(lp4762
S':'
asbag49
(g70
g51
NtRp4763
(dp4764
g54
(dp4765
sg63
g4750
sg56
(lp4766
g49
(g50
g51
NtRp4767
(dp4768
g54
(dp4769
g62
I5
ssg63
g4763
sg56
(lp4770
g3425
asbasbasbag49
(g65
g51
NtRp4771
(dp4772
g54
(dp4773
sg63
g3368
sg56
(lp4774
g49
(g70
g51
NtRp4775
(dp4776
g54
(dp4777
g74
g75
ssg63
g4771
sg56
(lp4778
S'session_locked'
p4779
asbag49
(g70
g51
NtRp4780
(dp4781
g54
(dp4782
g81
g82
ssg63
g4771
sg56
(lp4783
S':'
asbag49
(g70
g51
NtRp4784
(dp4785
g54
(dp4786
sg63
g4771
sg56
(lp4787
g49
(g50
g51
NtRp4788
(dp4789
g54
(dp4790
g62
I5
ssg63
g4784
sg56
(lp4791
g1609
asbasbasbag49
(g65
g51
NtRp4792
(dp4793
g54
(dp4794
sg63
g3368
sg56
(lp4795
g49
(g70
g51
NtRp4796
(dp4797
g54
(dp4798
g74
g75
ssg63
g4792
sg56
(lp4799
S'session_new'
p4800
asbag49
(g70
g51
NtRp4801
(dp4802
g54
(dp4803
g81
g82
ssg63
g4792
sg56
(lp4804
S':'
asbag49
(g70
g51
NtRp4805
(dp4806
g54
(dp4807
sg63
g4792
sg56
(lp4808
g49
(g50
g51
NtRp4809
(dp4810
g54
(dp4811
g62
I5
ssg63
g4805
sg56
(lp4812
g92
asbasbasbag49
(g65
g51
NtRp4813
(dp4814
g54
(dp4815
sg63
g3368
sg56
(lp4816
g49
(g70
g51
NtRp4817
(dp4818
g54
(dp4819
g74
g75
ssg63
g4813
sg56
(lp4820
S'status'
p4821
asbag49
(g70
g51
NtRp4822
(dp4823
g54
(dp4824
g81
g82
ssg63
g4813
sg56
(lp4825
S':'
asbag49
(g70
g51
NtRp4826
(dp4827
g54
(dp4828
sg63
g4813
sg56
(lp4829
g49
(g50
g51
NtRp4830
(dp4831
g54
(dp4832
g62
I5
ssg63
g4826
sg56
(lp4833
S'200'
p4834
asbasbasbag49
(g65
g51
NtRp4835
(dp4836
g54
(dp4837
sg63
g3368
sg56
(lp4838
g49
(g70
g51
NtRp4839
(dp4840
g54
(dp4841
g74
g75
ssg63
g4835
sg56
(lp4842
S'subtitle'
p4843
asbag49
(g70
g51
NtRp4844
(dp4845
g54
(dp4846
g81
g82
ssg63
g4835
sg56
(lp4847
S':'
asbag49
(g70
g51
NtRp4848
(dp4849
g54
(dp4850
sg63
g4835
sg56
(lp4851
g49
(g50
g51
NtRp4852
(dp4853
g54
(dp4854
g62
I5
ssg63
g4848
sg56
(lp4855
g3904
(S's\r\x00\x00\x00customize me!'
tRp4856
asbasbasbag49
(g65
g51
NtRp4857
(dp4858
g54
(dp4859
sg63
g3368
sg56
(lp4860
g49
(g70
g51
NtRp4861
(dp4862
g54
(dp4863
g74
g75
ssg63
g4857
sg56
(lp4864
S'title'
p4865
asbag49
(g70
g51
NtRp4866
(dp4867
g54
(dp4868
g81
g82
ssg63
g4857
sg56
(lp4869
S':'
asbag49
(g70
g51
NtRp4870
(dp4871
g54
(dp4872
sg63
g4857
sg56
(lp4873
g49
(g50
g51
NtRp4874
(dp4875
g54
(dp4876
g62
I5
ssg63
g4870
sg56
(lp4877
S'Iguassupass'
p4878
asbasbasbag49
(g65
g51
NtRp4879
(dp4880
g54
(dp4881
sg63
g3368
sg56
(lp4882
g49
(g70
g51
NtRp4883
(dp4884
g54
(dp4885
g74
g75
ssg63
g4879
sg56
(lp4886
g2273
asbag49
(g70
g51
NtRp4887
(dp4888
g54
(dp4889
g81
g82
ssg63
g4879
sg56
(lp4890
S':'
asbag49
(g70
g51
NtRp4891
(dp4892
g54
(dp4893
sg63
g4879
sg56
(lp4894
g49
(g50
g51
NtRp4895
(dp4896
g54
(dp4897
g62
I5
ssg63
g4891
sg56
(lp4898
g2286
asbasbasbag49
(g65
g51
NtRp4899
(dp4900
g54
(dp4901
sg63
g3368
sg56
(lp4902
g49
(g70
g51
NtRp4903
(dp4904
g54
(dp4905
g74
g75
ssg63
g4899
sg56
(lp4906
S'view'
p4907
asbag49
(g70
g51
NtRp4908
(dp4909
g54
(dp4910
g81
g82
ssg63
g4899
sg56
(lp4911
S':'
asbag49
(g70
g51
NtRp4912
(dp4913
g54
(dp4914
sg63
g4899
sg56
(lp4915
g49
(g50
g51
NtRp4916
(dp4917
g54
(dp4918
g62
I5
ssg63
g4912
sg56
(lp4919
S'default/atracoes.html'
p4920
asbasbasbasbasbsS'locals'
p4921
(dp4922
S'self'
p4923
S"<DAL {'auth_event': <Table {'origin': <gluon.dal..._key': <gluon.dal.Field object at 0x076E1970>}>}>"
p4924
sS'key'
p4925
S"'multimedias'"
p4926
sssS'traceback'
p4927
S'Traceback (most recent call last):\n  File "gluon/restricted.py", line 205, in restricted\n  File "C:\\Users\\ceasbpi\\Dropbox\\web2py\\applications\\IguassuPass\\controllers/default.py", line 108, in <module>\n  File "gluon/globals.py", line 173, in <lambda>\n  File "C:\\Users\\ceasbpi\\Dropbox\\web2py\\applications\\IguassuPass\\controllers/default.py", line 81, in atracoes\n  File "gluon/dal.py", line 6343, in __getattr__\n  File "gluon/dal.py", line 6337, in __getitem__\nKeyError: \'multimedias\'\n'
p4928
s.