(dp1
S'output'
p2
S"<class 'sqlite3.OperationalError'> no such table: atracao"
p3
sS'layer'
p4
S'C:\\Users\\ceasbpi\\Dropbox\\web2py\\applications\\IguassuPass\\controllers/default.py'
p5
sS'code'
p6
S'# -*- coding: utf-8 -*-\n# this file is released under public domain and you can use without limitations\n\n#########################################################################\n## This is a samples controller\n## - index is the default action of any application\n## - user is required for authentication and authorization\n## - download is for downloading files uploaded in the db (does streaming)\n## - call exposes all registered services (none by default)\n#########################################################################\n\ndef index():\n    """\n    example action using the internationalization operator T and flash\n    rendered by views/default/index.html or views/generic.html\n    """\n    response.flash = "Welcome to web2py!"\n    return dict(message=T(\'Hello World\'))\n\ndef user():\n    """\n    exposes:\n    http://..../[app]/default/user/login\n    http://..../[app]/default/user/logout\n    http://..../[app]/default/user/register\n    http://..../[app]/default/user/profile\n    http://..../[app]/default/user/retrieve_password\n    http://..../[app]/default/user/change_password\n    use @auth.requires_login()\n        @auth.requires_membership(\'group name\')\n        @auth.requires_permission(\'read\',\'table name\',record_id)\n    to decorate functions that need access control\n    """\n    return dict(form=auth())\n\ndef getstarted():\n \n    return (dict(message=T(\'GetStarted\')))\n\ndef customersfeedback():\n\n    return(dict(message=T(\'feedback\')))\n\ndef download():\n    """\n    allows downloading of uploaded files\n    http://..../[app]/default/download/[filename]\n    """\n    return response.download(request,db)\n\n\ndef call():\n    """\n    exposes services. for example:\n    http://..../[app]/default/call/jsonrpc\n    decorate with @services.jsonrpc the functions to expose\n    supports xml, json, xmlrpc, jsonrpc, amfrpc, rss, csv\n    """\n    return service()\n\n\n@auth.requires_signature()\ndef data():\n    """\n    http://..../[app]/default/data/tables\n    http://..../[app]/default/data/create/[table]\n    http://..../[app]/default/data/read/[table]/[id]\n    http://..../[app]/default/data/update/[table]/[id]\n    http://..../[app]/default/data/delete/[table]/[id]\n    http://..../[app]/default/data/select/[table]\n    http://..../[app]/default/data/search/[table]\n    but URLs must be signed, i.e. linked with\n      A(\'table\',_href=URL(\'data/tables\',user_signature=True))\n    or with the signed load operator\n      LOAD(\'default\',\'data.load\',args=\'tables\',ajax=True,user_signature=True)\n    """\n    return dict(form=crud())\n\ndef atracoes():\n    atracoes = db(db.atracao).select(orderby=db.atracao.nome)\n    return locals()\n\ndef multimedia():\n    atracoes = db.atracao(request.args(0)) or redirect(URL(\'atracoes\'))\n    multimedia = db(db.multimedia.atracoes == atracoes.id).select(orderby= db.multimedia.src)\n    return locals()\n\n@auth.requires_login()\ndef atracao_create():\n    form= crud.create(db.atracao, next=\'atracoes\')\n    return locals()\n\n@auth.requires_login()\ndef atracao_edit():\n    atracao = db.atracao(request.args(0)) or redirect(URL(\'atracoes\'))\n    form = crud.update(db.atracao, atracao, next=\'atracoes\')\n    return locals()\n\n@auth.requires_login()\ndef multimedia_create():\n    db.multimedia.atracao.default = request.args(0)\n    form = crud.create(db.multimedia)\n    return locals()\n\n@auth.requires_login()\ndef multimedia_edit():\n    multimedia = db.multimedia(request.args(0)) or redirect(URL(\'atracoes\'))\n    form = crud.update(db.multimedia, multimedia)\n    return locals()\n\nresponse._vars=response._caller(atracao_create)\n'
p7
sS'snapshot'
p8
(dp9
S'exception'
p10
(dp11
S'__hash__'
p12
S"<method-wrapper '__hash__' of OperationalError object at 0x07737508>"
p13
sS'__module__'
p14
S"'sqlite3'"
p15
sS'__reduce_ex__'
p16
S'<built-in method __reduce_ex__ of OperationalError object at 0x07737508>'
p17
sS'__getslice__'
p18
S"<method-wrapper '__getslice__' of OperationalError object at 0x07737508>"
p19
sS'__getitem__'
p20
S"<method-wrapper '__getitem__' of OperationalError object at 0x07737508>"
p21
sS'__setstate__'
p22
S'<built-in method __setstate__ of OperationalError object at 0x07737508>'
p23
sS'__reduce__'
p24
S'<built-in method __reduce__ of OperationalError object at 0x07737508>'
p25
sS'__str__'
p26
S"<method-wrapper '__str__' of OperationalError object at 0x07737508>"
p27
sS'args'
p28
S"('no such table: atracao',)"
p29
sS'__getattribute__'
p30
S"<method-wrapper '__getattribute__' of OperationalError object at 0x07737508>"
p31
sS'__class__'
p32
S"<class 'sqlite3.OperationalError'>"
p33
sS'__delattr__'
p34
S"<method-wrapper '__delattr__' of OperationalError object at 0x07737508>"
p35
sS'__repr__'
p36
S"<method-wrapper '__repr__' of OperationalError object at 0x07737508>"
p37
sS'__setattr__'
p38
S"<method-wrapper '__setattr__' of OperationalError object at 0x07737508>"
p39
sS'__dict__'
p40
S'{}'
p41
sS'__weakref__'
p42
S'None'
p43
sS'__doc__'
p44
S'None'
p45
sS'__init__'
p46
S"<method-wrapper '__init__' of OperationalError object at 0x07737508>"
p47
sS'__new__'
p48
S'<built-in method __new__ of type object at 0x1E1CCCB0>'
p49
ssS'evalue'
p50
S'no such table: atracao'
p51
sS'request'
p52
ccopy_reg
_reconstructor
p53
(cgluon.html
BEAUTIFY
p54
c__builtin__
object
p55
NtRp56
(dp57
S'attributes'
p58
(dp59
sS'components'
p60
(lp61
g53
(cgluon.html
TABLE
p62
g55
NtRp63
(dp64
g58
(dp65
S'level'
p66
I5
ssS'parent'
p67
Nsg60
(lp68
g53
(cgluon.html
TR
p69
g55
NtRp70
(dp71
g58
(dp72
sg67
g63
sg60
(lp73
g53
(cgluon.html
TD
p74
g55
NtRp75
(dp76
g58
(dp77
S'_style'
p78
S'font-weight:bold;vertical-align:top'
p79
ssg67
g70
sg60
(lp80
S'ajax'
p81
asbag53
(g74
g55
NtRp82
(dp83
g58
(dp84
S'_valign'
p85
S'top'
p86
ssg67
g70
sg60
(lp87
S':'
asbag53
(g74
g55
NtRp88
(dp89
g58
(dp90
sg67
g70
sg60
(lp91
g53
(g54
g55
NtRp92
(dp93
g58
(dp94
g66
I5
ssg67
g88
sg60
(lp95
S'False'
p96
asbasbasbag53
(g69
g55
NtRp97
(dp98
g58
(dp99
sg67
g63
sg60
(lp100
g53
(g74
g55
NtRp101
(dp102
g58
(dp103
g78
g79
ssg67
g97
sg60
(lp104
S'application'
p105
asbag53
(g74
g55
NtRp106
(dp107
g58
(dp108
g85
g86
ssg67
g97
sg60
(lp109
S':'
asbag53
(g74
g55
NtRp110
(dp111
g58
(dp112
sg67
g97
sg60
(lp113
g53
(g54
g55
NtRp114
(dp115
g58
(dp116
g66
I5
ssg67
g110
sg60
(lp117
S'IguassuPass'
p118
asbasbasbag53
(g69
g55
NtRp119
(dp120
g58
(dp121
sg67
g63
sg60
(lp122
g53
(g74
g55
NtRp123
(dp124
g58
(dp125
g78
g79
ssg67
g119
sg60
(lp126
g28
asbag53
(g74
g55
NtRp127
(dp128
g58
(dp129
g85
g86
ssg67
g119
sg60
(lp130
S':'
asbag53
(g74
g55
NtRp131
(dp132
g58
(dp133
sg67
g119
sg60
(lp134
g53
(g54
g55
NtRp135
(dp136
g58
(dp137
g66
I5
ssg67
g131
sg60
(lp138
g53
(g62
g55
NtRp139
(dp140
g58
(dp141
g66
I4
ssg67
Nsg60
(lp142
sbasbasbasbag53
(g69
g55
NtRp143
(dp144
g58
(dp145
sg67
g63
sg60
(lp146
g53
(g74
g55
NtRp147
(dp148
g58
(dp149
g78
g79
ssg67
g143
sg60
(lp150
S'body'
p151
asbag53
(g74
g55
NtRp152
(dp153
g58
(dp154
g85
g86
ssg67
g143
sg60
(lp155
S':'
asbag53
(g74
g55
NtRp156
(dp157
g58
(dp158
sg67
g143
sg60
(lp159
g53
(g54
g55
NtRp160
(dp161
g58
(dp162
g66
I5
ssg67
g156
sg60
(lp163
S"<open file '<fdopen>', mode 'w+b' at 0x071FE5C0>"
p164
asbasbasbag53
(g69
g55
NtRp165
(dp166
g58
(dp167
sg67
g63
sg60
(lp168
g53
(g74
g55
NtRp169
(dp170
g58
(dp171
g78
g79
ssg67
g165
sg60
(lp172
S'client'
p173
asbag53
(g74
g55
NtRp174
(dp175
g58
(dp176
g85
g86
ssg67
g165
sg60
(lp177
S':'
asbag53
(g74
g55
NtRp178
(dp179
g58
(dp180
sg67
g165
sg60
(lp181
g53
(g54
g55
NtRp182
(dp183
g58
(dp184
g66
I5
ssg67
g178
sg60
(lp185
S'127.0.0.1'
p186
asbasbasbag53
(g69
g55
NtRp187
(dp188
g58
(dp189
sg67
g63
sg60
(lp190
g53
(g74
g55
NtRp191
(dp192
g58
(dp193
g78
g79
ssg67
g187
sg60
(lp194
S'controller'
p195
asbag53
(g74
g55
NtRp196
(dp197
g58
(dp198
g85
g86
ssg67
g187
sg60
(lp199
S':'
asbag53
(g74
g55
NtRp200
(dp201
g58
(dp202
sg67
g187
sg60
(lp203
g53
(g54
g55
NtRp204
(dp205
g58
(dp206
g66
I5
ssg67
g200
sg60
(lp207
S'default'
p208
asbasbasbag53
(g69
g55
NtRp209
(dp210
g58
(dp211
sg67
g63
sg60
(lp212
g53
(g74
g55
NtRp213
(dp214
g58
(dp215
g78
g79
ssg67
g209
sg60
(lp216
S'cookies'
p217
asbag53
(g74
g55
NtRp218
(dp219
g58
(dp220
g85
g86
ssg67
g209
sg60
(lp221
S':'
asbag53
(g74
g55
NtRp222
(dp223
g58
(dp224
sg67
g209
sg60
(lp225
g53
(g54
g55
NtRp226
(dp227
g58
(dp228
g66
I5
ssg67
g222
sg60
(lp229
g53
(g62
g55
NtRp230
(dp231
g58
(dp232
g66
I4
ssg67
Nsg60
(lp233
g53
(g69
g55
NtRp234
(dp235
g58
(dp236
sg67
g230
sg60
(lp237
g53
(g74
g55
NtRp238
(dp239
g58
(dp240
g78
g79
ssg67
g234
sg60
(lp241
S'session_id_admin'
p242
asbag53
(g74
g55
NtRp243
(dp244
g58
(dp245
g85
g86
ssg67
g234
sg60
(lp246
S':'
asbag53
(g74
g55
NtRp247
(dp248
g58
(dp249
sg67
g234
sg60
(lp250
g53
(g54
g55
NtRp251
(dp252
g58
(dp253
g66
I4
ssg67
g247
sg60
(lp254
g53
(g62
g55
NtRp255
(dp256
g58
(dp257
g66
I3
ssg67
Nsg60
(lp258
g53
(g69
g55
NtRp259
(dp260
g58
(dp261
sg67
g255
sg60
(lp262
g53
(g74
g55
NtRp263
(dp264
g58
(dp265
g78
g79
ssg67
g259
sg60
(lp266
S'comment'
p267
asbag53
(g74
g55
NtRp268
(dp269
g58
(dp270
g85
g86
ssg67
g259
sg60
(lp271
S':'
asbag53
(g74
g55
NtRp272
(dp273
g58
(dp274
sg67
g259
sg60
(lp275
g53
(g54
g55
NtRp276
(dp277
g58
(dp278
g66
I3
ssg67
g272
sg60
(lp279
S''
asbasbasbag53
(g69
g55
NtRp280
(dp281
g58
(dp282
sg67
g255
sg60
(lp283
g53
(g74
g55
NtRp284
(dp285
g58
(dp286
g78
g79
ssg67
g280
sg60
(lp287
S'domain'
p288
asbag53
(g74
g55
NtRp289
(dp290
g58
(dp291
g85
g86
ssg67
g280
sg60
(lp292
S':'
asbag53
(g74
g55
NtRp293
(dp294
g58
(dp295
sg67
g280
sg60
(lp296
g53
(g54
g55
NtRp297
(dp298
g58
(dp299
g66
I3
ssg67
g293
sg60
(lp300
S''
asbasbasbag53
(g69
g55
NtRp301
(dp302
g58
(dp303
sg67
g255
sg60
(lp304
g53
(g74
g55
NtRp305
(dp306
g58
(dp307
g78
g79
ssg67
g301
sg60
(lp308
S'expires'
p309
asbag53
(g74
g55
NtRp310
(dp311
g58
(dp312
g85
g86
ssg67
g301
sg60
(lp313
S':'
asbag53
(g74
g55
NtRp314
(dp315
g58
(dp316
sg67
g301
sg60
(lp317
g53
(g54
g55
NtRp318
(dp319
g58
(dp320
g66
I3
ssg67
g314
sg60
(lp321
S''
asbasbasbag53
(g69
g55
NtRp322
(dp323
g58
(dp324
sg67
g255
sg60
(lp325
g53
(g74
g55
NtRp326
(dp327
g58
(dp328
g78
g79
ssg67
g322
sg60
(lp329
S'max-age'
p330
asbag53
(g74
g55
NtRp331
(dp332
g58
(dp333
g85
g86
ssg67
g322
sg60
(lp334
S':'
asbag53
(g74
g55
NtRp335
(dp336
g58
(dp337
sg67
g322
sg60
(lp338
g53
(g54
g55
NtRp339
(dp340
g58
(dp341
g66
I3
ssg67
g335
sg60
(lp342
S''
asbasbasbag53
(g69
g55
NtRp343
(dp344
g58
(dp345
sg67
g255
sg60
(lp346
g53
(g74
g55
NtRp347
(dp348
g58
(dp349
g78
g79
ssg67
g343
sg60
(lp350
S'path'
p351
asbag53
(g74
g55
NtRp352
(dp353
g58
(dp354
g85
g86
ssg67
g343
sg60
(lp355
S':'
asbag53
(g74
g55
NtRp356
(dp357
g58
(dp358
sg67
g343
sg60
(lp359
g53
(g54
g55
NtRp360
(dp361
g58
(dp362
g66
I3
ssg67
g356
sg60
(lp363
S''
asbasbasbag53
(g69
g55
NtRp364
(dp365
g58
(dp366
sg67
g255
sg60
(lp367
g53
(g74
g55
NtRp368
(dp369
g58
(dp370
g78
g79
ssg67
g364
sg60
(lp371
S'secure'
p372
asbag53
(g74
g55
NtRp373
(dp374
g58
(dp375
g85
g86
ssg67
g364
sg60
(lp376
S':'
asbag53
(g74
g55
NtRp377
(dp378
g58
(dp379
sg67
g364
sg60
(lp380
g53
(g54
g55
NtRp381
(dp382
g58
(dp383
g66
I3
ssg67
g377
sg60
(lp384
S''
asbasbasbag53
(g69
g55
NtRp385
(dp386
g58
(dp387
sg67
g255
sg60
(lp388
g53
(g74
g55
NtRp389
(dp390
g58
(dp391
g78
g79
ssg67
g385
sg60
(lp392
S'version'
p393
asbag53
(g74
g55
NtRp394
(dp395
g58
(dp396
g85
g86
ssg67
g385
sg60
(lp397
S':'
asbag53
(g74
g55
NtRp398
(dp399
g58
(dp400
sg67
g385
sg60
(lp401
g53
(g54
g55
NtRp402
(dp403
g58
(dp404
g66
I3
ssg67
g398
sg60
(lp405
S''
asbasbasbasbasbasbasbag53
(g69
g55
NtRp406
(dp407
g58
(dp408
sg67
g230
sg60
(lp409
g53
(g74
g55
NtRp410
(dp411
g58
(dp412
g78
g79
ssg67
g406
sg60
(lp413
S'session_id_iguassupass'
p414
asbag53
(g74
g55
NtRp415
(dp416
g58
(dp417
g85
g86
ssg67
g406
sg60
(lp418
S':'
asbag53
(g74
g55
NtRp419
(dp420
g58
(dp421
sg67
g406
sg60
(lp422
g53
(g54
g55
NtRp423
(dp424
g58
(dp425
g66
I4
ssg67
g419
sg60
(lp426
g53
(g62
g55
NtRp427
(dp428
g58
(dp429
g66
I3
ssg67
Nsg60
(lp430
g53
(g69
g55
NtRp431
(dp432
g58
(dp433
sg67
g427
sg60
(lp434
g53
(g74
g55
NtRp435
(dp436
g58
(dp437
g78
g79
ssg67
g431
sg60
(lp438
g267
asbag53
(g74
g55
NtRp439
(dp440
g58
(dp441
g85
g86
ssg67
g431
sg60
(lp442
S':'
asbag53
(g74
g55
NtRp443
(dp444
g58
(dp445
sg67
g431
sg60
(lp446
g53
(g54
g55
NtRp447
(dp448
g58
(dp449
g66
I3
ssg67
g443
sg60
(lp450
S''
asbasbasbag53
(g69
g55
NtRp451
(dp452
g58
(dp453
sg67
g427
sg60
(lp454
g53
(g74
g55
NtRp455
(dp456
g58
(dp457
g78
g79
ssg67
g451
sg60
(lp458
g288
asbag53
(g74
g55
NtRp459
(dp460
g58
(dp461
g85
g86
ssg67
g451
sg60
(lp462
S':'
asbag53
(g74
g55
NtRp463
(dp464
g58
(dp465
sg67
g451
sg60
(lp466
g53
(g54
g55
NtRp467
(dp468
g58
(dp469
g66
I3
ssg67
g463
sg60
(lp470
S''
asbasbasbag53
(g69
g55
NtRp471
(dp472
g58
(dp473
sg67
g427
sg60
(lp474
g53
(g74
g55
NtRp475
(dp476
g58
(dp477
g78
g79
ssg67
g471
sg60
(lp478
g309
asbag53
(g74
g55
NtRp479
(dp480
g58
(dp481
g85
g86
ssg67
g471
sg60
(lp482
S':'
asbag53
(g74
g55
NtRp483
(dp484
g58
(dp485
sg67
g471
sg60
(lp486
g53
(g54
g55
NtRp487
(dp488
g58
(dp489
g66
I3
ssg67
g483
sg60
(lp490
S''
asbasbasbag53
(g69
g55
NtRp491
(dp492
g58
(dp493
sg67
g427
sg60
(lp494
g53
(g74
g55
NtRp495
(dp496
g58
(dp497
g78
g79
ssg67
g491
sg60
(lp498
g330
asbag53
(g74
g55
NtRp499
(dp500
g58
(dp501
g85
g86
ssg67
g491
sg60
(lp502
S':'
asbag53
(g74
g55
NtRp503
(dp504
g58
(dp505
sg67
g491
sg60
(lp506
g53
(g54
g55
NtRp507
(dp508
g58
(dp509
g66
I3
ssg67
g503
sg60
(lp510
S''
asbasbasbag53
(g69
g55
NtRp511
(dp512
g58
(dp513
sg67
g427
sg60
(lp514
g53
(g74
g55
NtRp515
(dp516
g58
(dp517
g78
g79
ssg67
g511
sg60
(lp518
g351
asbag53
(g74
g55
NtRp519
(dp520
g58
(dp521
g85
g86
ssg67
g511
sg60
(lp522
S':'
asbag53
(g74
g55
NtRp523
(dp524
g58
(dp525
sg67
g511
sg60
(lp526
g53
(g54
g55
NtRp527
(dp528
g58
(dp529
g66
I3
ssg67
g523
sg60
(lp530
S''
asbasbasbag53
(g69
g55
NtRp531
(dp532
g58
(dp533
sg67
g427
sg60
(lp534
g53
(g74
g55
NtRp535
(dp536
g58
(dp537
g78
g79
ssg67
g531
sg60
(lp538
g372
asbag53
(g74
g55
NtRp539
(dp540
g58
(dp541
g85
g86
ssg67
g531
sg60
(lp542
S':'
asbag53
(g74
g55
NtRp543
(dp544
g58
(dp545
sg67
g531
sg60
(lp546
g53
(g54
g55
NtRp547
(dp548
g58
(dp549
g66
I3
ssg67
g543
sg60
(lp550
S''
asbasbasbag53
(g69
g55
NtRp551
(dp552
g58
(dp553
sg67
g427
sg60
(lp554
g53
(g74
g55
NtRp555
(dp556
g58
(dp557
g78
g79
ssg67
g551
sg60
(lp558
g393
asbag53
(g74
g55
NtRp559
(dp560
g58
(dp561
g85
g86
ssg67
g551
sg60
(lp562
S':'
asbag53
(g74
g55
NtRp563
(dp564
g58
(dp565
sg67
g551
sg60
(lp566
g53
(g54
g55
NtRp567
(dp568
g58
(dp569
g66
I3
ssg67
g563
sg60
(lp570
S''
asbasbasbasbasbasbasbag53
(g69
g55
NtRp571
(dp572
g58
(dp573
sg67
g230
sg60
(lp574
g53
(g74
g55
NtRp575
(dp576
g58
(dp577
g78
g79
ssg67
g571
sg60
(lp578
S'session_id_welcome'
p579
asbag53
(g74
g55
NtRp580
(dp581
g58
(dp582
g85
g86
ssg67
g571
sg60
(lp583
S':'
asbag53
(g74
g55
NtRp584
(dp585
g58
(dp586
sg67
g571
sg60
(lp587
g53
(g54
g55
NtRp588
(dp589
g58
(dp590
g66
I4
ssg67
g584
sg60
(lp591
g53
(g62
g55
NtRp592
(dp593
g58
(dp594
g66
I3
ssg67
Nsg60
(lp595
g53
(g69
g55
NtRp596
(dp597
g58
(dp598
sg67
g592
sg60
(lp599
g53
(g74
g55
NtRp600
(dp601
g58
(dp602
g78
g79
ssg67
g596
sg60
(lp603
g267
asbag53
(g74
g55
NtRp604
(dp605
g58
(dp606
g85
g86
ssg67
g596
sg60
(lp607
S':'
asbag53
(g74
g55
NtRp608
(dp609
g58
(dp610
sg67
g596
sg60
(lp611
g53
(g54
g55
NtRp612
(dp613
g58
(dp614
g66
I3
ssg67
g608
sg60
(lp615
S''
asbasbasbag53
(g69
g55
NtRp616
(dp617
g58
(dp618
sg67
g592
sg60
(lp619
g53
(g74
g55
NtRp620
(dp621
g58
(dp622
g78
g79
ssg67
g616
sg60
(lp623
g288
asbag53
(g74
g55
NtRp624
(dp625
g58
(dp626
g85
g86
ssg67
g616
sg60
(lp627
S':'
asbag53
(g74
g55
NtRp628
(dp629
g58
(dp630
sg67
g616
sg60
(lp631
g53
(g54
g55
NtRp632
(dp633
g58
(dp634
g66
I3
ssg67
g628
sg60
(lp635
S''
asbasbasbag53
(g69
g55
NtRp636
(dp637
g58
(dp638
sg67
g592
sg60
(lp639
g53
(g74
g55
NtRp640
(dp641
g58
(dp642
g78
g79
ssg67
g636
sg60
(lp643
g309
asbag53
(g74
g55
NtRp644
(dp645
g58
(dp646
g85
g86
ssg67
g636
sg60
(lp647
S':'
asbag53
(g74
g55
NtRp648
(dp649
g58
(dp650
sg67
g636
sg60
(lp651
g53
(g54
g55
NtRp652
(dp653
g58
(dp654
g66
I3
ssg67
g648
sg60
(lp655
S''
asbasbasbag53
(g69
g55
NtRp656
(dp657
g58
(dp658
sg67
g592
sg60
(lp659
g53
(g74
g55
NtRp660
(dp661
g58
(dp662
g78
g79
ssg67
g656
sg60
(lp663
g330
asbag53
(g74
g55
NtRp664
(dp665
g58
(dp666
g85
g86
ssg67
g656
sg60
(lp667
S':'
asbag53
(g74
g55
NtRp668
(dp669
g58
(dp670
sg67
g656
sg60
(lp671
g53
(g54
g55
NtRp672
(dp673
g58
(dp674
g66
I3
ssg67
g668
sg60
(lp675
S''
asbasbasbag53
(g69
g55
NtRp676
(dp677
g58
(dp678
sg67
g592
sg60
(lp679
g53
(g74
g55
NtRp680
(dp681
g58
(dp682
g78
g79
ssg67
g676
sg60
(lp683
g351
asbag53
(g74
g55
NtRp684
(dp685
g58
(dp686
g85
g86
ssg67
g676
sg60
(lp687
S':'
asbag53
(g74
g55
NtRp688
(dp689
g58
(dp690
sg67
g676
sg60
(lp691
g53
(g54
g55
NtRp692
(dp693
g58
(dp694
g66
I3
ssg67
g688
sg60
(lp695
S''
asbasbasbag53
(g69
g55
NtRp696
(dp697
g58
(dp698
sg67
g592
sg60
(lp699
g53
(g74
g55
NtRp700
(dp701
g58
(dp702
g78
g79
ssg67
g696
sg60
(lp703
g372
asbag53
(g74
g55
NtRp704
(dp705
g58
(dp706
g85
g86
ssg67
g696
sg60
(lp707
S':'
asbag53
(g74
g55
NtRp708
(dp709
g58
(dp710
sg67
g696
sg60
(lp711
g53
(g54
g55
NtRp712
(dp713
g58
(dp714
g66
I3
ssg67
g708
sg60
(lp715
S''
asbasbasbag53
(g69
g55
NtRp716
(dp717
g58
(dp718
sg67
g592
sg60
(lp719
g53
(g74
g55
NtRp720
(dp721
g58
(dp722
g78
g79
ssg67
g716
sg60
(lp723
g393
asbag53
(g74
g55
NtRp724
(dp725
g58
(dp726
g85
g86
ssg67
g716
sg60
(lp727
S':'
asbag53
(g74
g55
NtRp728
(dp729
g58
(dp730
sg67
g716
sg60
(lp731
g53
(g54
g55
NtRp732
(dp733
g58
(dp734
g66
I3
ssg67
g728
sg60
(lp735
S''
asbasbasbasbasbasbasbasbasbasbasbag53
(g69
g55
NtRp736
(dp737
g58
(dp738
sg67
g63
sg60
(lp739
g53
(g74
g55
NtRp740
(dp741
g58
(dp742
g78
g79
ssg67
g736
sg60
(lp743
S'env'
p744
asbag53
(g74
g55
NtRp745
(dp746
g58
(dp747
g85
g86
ssg67
g736
sg60
(lp748
S':'
asbag53
(g74
g55
NtRp749
(dp750
g58
(dp751
sg67
g736
sg60
(lp752
g53
(g54
g55
NtRp753
(dp754
g58
(dp755
g66
I5
ssg67
g749
sg60
(lp756
g53
(g62
g55
NtRp757
(dp758
g58
(dp759
g66
I4
ssg67
Nsg60
(lp760
g53
(g69
g55
NtRp761
(dp762
g58
(dp763
sg67
g757
sg60
(lp764
g53
(g74
g55
NtRp765
(dp766
g58
(dp767
g78
g79
ssg67
g761
sg60
(lp768
S'app_folders'
p769
asbag53
(g74
g55
NtRp770
(dp771
g58
(dp772
g85
g86
ssg67
g761
sg60
(lp773
S':'
asbag53
(g74
g55
NtRp774
(dp775
g58
(dp776
sg67
g761
sg60
(lp777
g53
(g54
g55
NtRp778
(dp779
g58
(dp780
g66
I4
ssg67
g774
sg60
(lp781
S"set(['C:\\\\Users\\\\ceasbpi\\\\Dropbox\\\\web2py\\\\applications\\\\admin\\\\', 'C:\\\\Users\\\\ceasbpi\\\\Dropbox\\\\web2py\\\\applications\\\\IguassuPass\\\\', 'C:\\\\Users\\\\ceasbpi\\\\Dropbox\\\\web2py\\\\applications\\\\iguassupass\\\\', 'C:\\\\Users\\\\ceasbpi\\\\Dropbox\\\\web2py\\\\applications\\\\welcome\\\\'])"
p782
asbasbasbag53
(g69
g55
NtRp783
(dp784
g58
(dp785
sg67
g757
sg60
(lp786
g53
(g74
g55
NtRp787
(dp788
g58
(dp789
g78
g79
ssg67
g783
sg60
(lp790
S'applications_parent'
p791
asbag53
(g74
g55
NtRp792
(dp793
g58
(dp794
g85
g86
ssg67
g783
sg60
(lp795
S':'
asbag53
(g74
g55
NtRp796
(dp797
g58
(dp798
sg67
g783
sg60
(lp799
g53
(g54
g55
NtRp800
(dp801
g58
(dp802
g66
I4
ssg67
g796
sg60
(lp803
S'C:\\Users\\ceasbpi\\Dropbox\\web2py'
p804
asbasbasbag53
(g69
g55
NtRp805
(dp806
g58
(dp807
sg67
g757
sg60
(lp808
g53
(g74
g55
NtRp809
(dp810
g58
(dp811
g78
g79
ssg67
g805
sg60
(lp812
S'cmd_args'
p813
asbag53
(g74
g55
NtRp814
(dp815
g58
(dp816
g85
g86
ssg67
g805
sg60
(lp817
S':'
asbag53
(g74
g55
NtRp818
(dp819
g58
(dp820
sg67
g805
sg60
(lp821
g53
(g54
g55
NtRp822
(dp823
g58
(dp824
g66
I4
ssg67
g818
sg60
(lp825
g53
(g62
g55
NtRp826
(dp827
g58
(dp828
g66
I3
ssg67
Nsg60
(lp829
sbasbasbasbag53
(g69
g55
NtRp830
(dp831
g58
(dp832
sg67
g757
sg60
(lp833
g53
(g74
g55
NtRp834
(dp835
g58
(dp836
g78
g79
ssg67
g830
sg60
(lp837
S'cmd_options'
p838
asbag53
(g74
g55
NtRp839
(dp840
g58
(dp841
g85
g86
ssg67
g830
sg60
(lp842
S':'
asbag53
(g74
g55
NtRp843
(dp844
g58
(dp845
sg67
g830
sg60
(lp846
g53
(g54
g55
NtRp847
(dp848
g58
(dp849
g66
I4
ssg67
g843
sg60
(lp850
S"<Values at 0x30fdfd0: {'verbose': False, 'ip': '127.0.0.1', 'shutdown_timeout': 5, 'taskbar': False, 'nocron': False, 'pid_filename': 'httpserver.pid', 'maxthreads': None, 'softcron': False, 'server_name': 'W15869', 'bpython': False, 'nogui': False, 'port': 8000, 'extcron': False, 'debuglevel': 30, 'test': None, 'folder': 'C:\\\\Users\\\\ceasbpi\\\\Dropbox\\\\web2py', 'config': '', 'import_models': False, 'winservice': '', 'shell': None, 'run': '', 'log_filename': 'httpserver.log', 'args': [''], 'socket_timeout': 5, 'ssl_ca_certificate': None, 'scheduler': None, 'profiler_filename': None, 'ssl_private_key': '', 'password': '<ask>', 'request_queue_size': 5, 'ssl_certificate': '', 'cronjob': False, 'numthreads': None, 'quiet': False, 'interfaces': None, 'minthreads': None, 'timeout': 10, 'plain': False, 'nobanner': False}>"
p851
asbasbasbag53
(g69
g55
NtRp852
(dp853
g58
(dp854
sg67
g757
sg60
(lp855
g53
(g74
g55
NtRp856
(dp857
g58
(dp858
g78
g79
ssg67
g852
sg60
(lp859
S'content_length'
p860
asbag53
(g74
g55
NtRp861
(dp862
g58
(dp863
g85
g86
ssg67
g852
sg60
(lp864
S':'
asbag53
(g74
g55
NtRp865
(dp866
g58
(dp867
sg67
g852
sg60
(lp868
g53
(g54
g55
NtRp869
(dp870
g58
(dp871
g66
I4
ssg67
g865
sg60
(lp872
S'580'
p873
asbasbasbag53
(g69
g55
NtRp874
(dp875
g58
(dp876
sg67
g757
sg60
(lp877
g53
(g74
g55
NtRp878
(dp879
g58
(dp880
g78
g79
ssg67
g874
sg60
(lp881
S'content_type'
p882
asbag53
(g74
g55
NtRp883
(dp884
g58
(dp885
g85
g86
ssg67
g874
sg60
(lp886
S':'
asbag53
(g74
g55
NtRp887
(dp888
g58
(dp889
sg67
g874
sg60
(lp890
g53
(g54
g55
NtRp891
(dp892
g58
(dp893
g66
I4
ssg67
g887
sg60
(lp894
S'multipart/form-data; boundary=----WebKitFormBoundaryrLEqL03xEoitb2MT'
p895
asbasbasbag53
(g69
g55
NtRp896
(dp897
g58
(dp898
sg67
g757
sg60
(lp899
g53
(g74
g55
NtRp900
(dp901
g58
(dp902
g78
g79
ssg67
g896
sg60
(lp903
S'db_sessions'
p904
asbag53
(g74
g55
NtRp905
(dp906
g58
(dp907
g85
g86
ssg67
g896
sg60
(lp908
S':'
asbag53
(g74
g55
NtRp909
(dp910
g58
(dp911
sg67
g896
sg60
(lp912
g53
(g54
g55
NtRp913
(dp914
g58
(dp915
g66
I4
ssg67
g909
sg60
(lp916
S'set([])'
p917
asbasbasbag53
(g69
g55
NtRp918
(dp919
g58
(dp920
sg67
g757
sg60
(lp921
g53
(g74
g55
NtRp922
(dp923
g58
(dp924
g78
g79
ssg67
g918
sg60
(lp925
S'debugging'
p926
asbag53
(g74
g55
NtRp927
(dp928
g58
(dp929
g85
g86
ssg67
g918
sg60
(lp930
S':'
asbag53
(g74
g55
NtRp931
(dp932
g58
(dp933
sg67
g918
sg60
(lp934
g53
(g54
g55
NtRp935
(dp936
g58
(dp937
g66
I4
ssg67
g931
sg60
(lp938
g96
asbasbasbag53
(g69
g55
NtRp939
(dp940
g58
(dp941
sg67
g757
sg60
(lp942
g53
(g74
g55
NtRp943
(dp944
g58
(dp945
g78
g79
ssg67
g939
sg60
(lp946
S'gluon_parent'
p947
asbag53
(g74
g55
NtRp948
(dp949
g58
(dp950
g85
g86
ssg67
g939
sg60
(lp951
S':'
asbag53
(g74
g55
NtRp952
(dp953
g58
(dp954
sg67
g939
sg60
(lp955
g53
(g54
g55
NtRp956
(dp957
g58
(dp958
g66
I4
ssg67
g952
sg60
(lp959
S'C:\\Users\\ceasbpi\\Dropbox\\web2py'
p960
asbasbasbag53
(g69
g55
NtRp961
(dp962
g58
(dp963
sg67
g757
sg60
(lp964
g53
(g74
g55
NtRp965
(dp966
g58
(dp967
g78
g79
ssg67
g961
sg60
(lp968
S'http_accept'
p969
asbag53
(g74
g55
NtRp970
(dp971
g58
(dp972
g85
g86
ssg67
g961
sg60
(lp973
S':'
asbag53
(g74
g55
NtRp974
(dp975
g58
(dp976
sg67
g961
sg60
(lp977
g53
(g54
g55
NtRp978
(dp979
g58
(dp980
g66
I4
ssg67
g974
sg60
(lp981
S'text/html,application/xhtml+xml,application/xml;q=0.9,*/*;q=0.8'
p982
asbasbasbag53
(g69
g55
NtRp983
(dp984
g58
(dp985
sg67
g757
sg60
(lp986
g53
(g74
g55
NtRp987
(dp988
g58
(dp989
g78
g79
ssg67
g983
sg60
(lp990
S'http_accept_charset'
p991
asbag53
(g74
g55
NtRp992
(dp993
g58
(dp994
g85
g86
ssg67
g983
sg60
(lp995
S':'
asbag53
(g74
g55
NtRp996
(dp997
g58
(dp998
sg67
g983
sg60
(lp999
g53
(g54
g55
NtRp1000
(dp1001
g58
(dp1002
g66
I4
ssg67
g996
sg60
(lp1003
S'ISO-8859-1,utf-8;q=0.7,*;q=0.3'
p1004
asbasbasbag53
(g69
g55
NtRp1005
(dp1006
g58
(dp1007
sg67
g757
sg60
(lp1008
g53
(g74
g55
NtRp1009
(dp1010
g58
(dp1011
g78
g79
ssg67
g1005
sg60
(lp1012
S'http_accept_encoding'
p1013
asbag53
(g74
g55
NtRp1014
(dp1015
g58
(dp1016
g85
g86
ssg67
g1005
sg60
(lp1017
S':'
asbag53
(g74
g55
NtRp1018
(dp1019
g58
(dp1020
sg67
g1005
sg60
(lp1021
g53
(g54
g55
NtRp1022
(dp1023
g58
(dp1024
g66
I4
ssg67
g1018
sg60
(lp1025
S'gzip,deflate,sdch'
p1026
asbasbasbag53
(g69
g55
NtRp1027
(dp1028
g58
(dp1029
sg67
g757
sg60
(lp1030
g53
(g74
g55
NtRp1031
(dp1032
g58
(dp1033
g78
g79
ssg67
g1027
sg60
(lp1034
S'http_accept_language'
p1035
asbag53
(g74
g55
NtRp1036
(dp1037
g58
(dp1038
g85
g86
ssg67
g1027
sg60
(lp1039
S':'
asbag53
(g74
g55
NtRp1040
(dp1041
g58
(dp1042
sg67
g1027
sg60
(lp1043
g53
(g54
g55
NtRp1044
(dp1045
g58
(dp1046
g66
I4
ssg67
g1040
sg60
(lp1047
S'pt-BR,pt;q=0.8,en-US;q=0.6,en;q=0.4'
p1048
asbasbasbag53
(g69
g55
NtRp1049
(dp1050
g58
(dp1051
sg67
g757
sg60
(lp1052
g53
(g74
g55
NtRp1053
(dp1054
g58
(dp1055
g78
g79
ssg67
g1049
sg60
(lp1056
S'http_cache_control'
p1057
asbag53
(g74
g55
NtRp1058
(dp1059
g58
(dp1060
g85
g86
ssg67
g1049
sg60
(lp1061
S':'
asbag53
(g74
g55
NtRp1062
(dp1063
g58
(dp1064
sg67
g1049
sg60
(lp1065
g53
(g54
g55
NtRp1066
(dp1067
g58
(dp1068
g66
I4
ssg67
g1062
sg60
(lp1069
S'max-age=0'
p1070
asbasbasbag53
(g69
g55
NtRp1071
(dp1072
g58
(dp1073
sg67
g757
sg60
(lp1074
g53
(g74
g55
NtRp1075
(dp1076
g58
(dp1077
g78
g79
ssg67
g1071
sg60
(lp1078
S'http_connection'
p1079
asbag53
(g74
g55
NtRp1080
(dp1081
g58
(dp1082
g85
g86
ssg67
g1071
sg60
(lp1083
S':'
asbag53
(g74
g55
NtRp1084
(dp1085
g58
(dp1086
sg67
g1071
sg60
(lp1087
g53
(g54
g55
NtRp1088
(dp1089
g58
(dp1090
g66
I4
ssg67
g1084
sg60
(lp1091
S'keep-alive'
p1092
asbasbasbag53
(g69
g55
NtRp1093
(dp1094
g58
(dp1095
sg67
g757
sg60
(lp1096
g53
(g74
g55
NtRp1097
(dp1098
g58
(dp1099
g78
g79
ssg67
g1093
sg60
(lp1100
S'http_content_length'
p1101
asbag53
(g74
g55
NtRp1102
(dp1103
g58
(dp1104
g85
g86
ssg67
g1093
sg60
(lp1105
S':'
asbag53
(g74
g55
NtRp1106
(dp1107
g58
(dp1108
sg67
g1093
sg60
(lp1109
g53
(g54
g55
NtRp1110
(dp1111
g58
(dp1112
g66
I4
ssg67
g1106
sg60
(lp1113
g873
asbasbasbag53
(g69
g55
NtRp1114
(dp1115
g58
(dp1116
sg67
g757
sg60
(lp1117
g53
(g74
g55
NtRp1118
(dp1119
g58
(dp1120
g78
g79
ssg67
g1114
sg60
(lp1121
S'http_content_type'
p1122
asbag53
(g74
g55
NtRp1123
(dp1124
g58
(dp1125
g85
g86
ssg67
g1114
sg60
(lp1126
S':'
asbag53
(g74
g55
NtRp1127
(dp1128
g58
(dp1129
sg67
g1114
sg60
(lp1130
g53
(g54
g55
NtRp1131
(dp1132
g58
(dp1133
g66
I4
ssg67
g1127
sg60
(lp1134
g895
asbasbasbag53
(g69
g55
NtRp1135
(dp1136
g58
(dp1137
sg67
g757
sg60
(lp1138
g53
(g74
g55
NtRp1139
(dp1140
g58
(dp1141
g78
g79
ssg67
g1135
sg60
(lp1142
S'http_cookie'
p1143
asbag53
(g74
g55
NtRp1144
(dp1145
g58
(dp1146
g85
g86
ssg67
g1135
sg60
(lp1147
S':'
asbag53
(g74
g55
NtRp1148
(dp1149
g58
(dp1150
sg67
g1135
sg60
(lp1151
g53
(g54
g55
NtRp1152
(dp1153
g58
(dp1154
g66
I4
ssg67
g1148
sg60
(lp1155
S'session_id_welcome=127.0.0.1-841022b0-55e3-4081-b637-d1f9630f75df; session_id_admin=127.0.0.1-e8923c4c-4d6b-4628-962e-b272279de14c; session_id_iguassupass=127.0.0.1-0ebf5fce-933e-4652-8d87-32a636575dba'
p1156
asbasbasbag53
(g69
g55
NtRp1157
(dp1158
g58
(dp1159
sg67
g757
sg60
(lp1160
g53
(g74
g55
NtRp1161
(dp1162
g58
(dp1163
g78
g79
ssg67
g1157
sg60
(lp1164
S'http_host'
p1165
asbag53
(g74
g55
NtRp1166
(dp1167
g58
(dp1168
g85
g86
ssg67
g1157
sg60
(lp1169
S':'
asbag53
(g74
g55
NtRp1170
(dp1171
g58
(dp1172
sg67
g1157
sg60
(lp1173
g53
(g54
g55
NtRp1174
(dp1175
g58
(dp1176
g66
I4
ssg67
g1170
sg60
(lp1177
S'localhost:8000'
p1178
asbasbasbag53
(g69
g55
NtRp1179
(dp1180
g58
(dp1181
sg67
g757
sg60
(lp1182
g53
(g74
g55
NtRp1183
(dp1184
g58
(dp1185
g78
g79
ssg67
g1179
sg60
(lp1186
S'http_origin'
p1187
asbag53
(g74
g55
NtRp1188
(dp1189
g58
(dp1190
g85
g86
ssg67
g1179
sg60
(lp1191
S':'
asbag53
(g74
g55
NtRp1192
(dp1193
g58
(dp1194
sg67
g1179
sg60
(lp1195
g53
(g54
g55
NtRp1196
(dp1197
g58
(dp1198
g66
I4
ssg67
g1192
sg60
(lp1199
S'http://localhost:8000'
p1200
asbasbasbag53
(g69
g55
NtRp1201
(dp1202
g58
(dp1203
sg67
g757
sg60
(lp1204
g53
(g74
g55
NtRp1205
(dp1206
g58
(dp1207
g78
g79
ssg67
g1201
sg60
(lp1208
S'http_referer'
p1209
asbag53
(g74
g55
NtRp1210
(dp1211
g58
(dp1212
g85
g86
ssg67
g1201
sg60
(lp1213
S':'
asbag53
(g74
g55
NtRp1214
(dp1215
g58
(dp1216
sg67
g1201
sg60
(lp1217
g53
(g54
g55
NtRp1218
(dp1219
g58
(dp1220
g66
I4
ssg67
g1214
sg60
(lp1221
S'http://localhost:8000/IguassuPass/default/atracao_create'
p1222
asbasbasbag53
(g69
g55
NtRp1223
(dp1224
g58
(dp1225
sg67
g757
sg60
(lp1226
g53
(g74
g55
NtRp1227
(dp1228
g58
(dp1229
g78
g79
ssg67
g1223
sg60
(lp1230
S'http_user_agent'
p1231
asbag53
(g74
g55
NtRp1232
(dp1233
g58
(dp1234
g85
g86
ssg67
g1223
sg60
(lp1235
S':'
asbag53
(g74
g55
NtRp1236
(dp1237
g58
(dp1238
sg67
g1223
sg60
(lp1239
g53
(g54
g55
NtRp1240
(dp1241
g58
(dp1242
g66
I4
ssg67
g1236
sg60
(lp1243
S'Mozilla/5.0 (Windows NT 6.1; WOW64) AppleWebKit/537.1 (KHTML, like Gecko) Chrome/21.0.1180.83 Safari/537.1'
p1244
asbasbasbag53
(g69
g55
NtRp1245
(dp1246
g58
(dp1247
sg67
g757
sg60
(lp1248
g53
(g74
g55
NtRp1249
(dp1250
g58
(dp1251
g78
g79
ssg67
g1245
sg60
(lp1252
S'is_jython'
p1253
asbag53
(g74
g55
NtRp1254
(dp1255
g58
(dp1256
g85
g86
ssg67
g1245
sg60
(lp1257
S':'
asbag53
(g74
g55
NtRp1258
(dp1259
g58
(dp1260
sg67
g1245
sg60
(lp1261
g53
(g54
g55
NtRp1262
(dp1263
g58
(dp1264
g66
I4
ssg67
g1258
sg60
(lp1265
g96
asbasbasbag53
(g69
g55
NtRp1266
(dp1267
g58
(dp1268
sg67
g757
sg60
(lp1269
g53
(g74
g55
NtRp1270
(dp1271
g58
(dp1272
g78
g79
ssg67
g1266
sg60
(lp1273
S'is_pypy'
p1274
asbag53
(g74
g55
NtRp1275
(dp1276
g58
(dp1277
g85
g86
ssg67
g1266
sg60
(lp1278
S':'
asbag53
(g74
g55
NtRp1279
(dp1280
g58
(dp1281
sg67
g1266
sg60
(lp1282
g53
(g54
g55
NtRp1283
(dp1284
g58
(dp1285
g66
I4
ssg67
g1279
sg60
(lp1286
g96
asbasbasbag53
(g69
g55
NtRp1287
(dp1288
g58
(dp1289
sg67
g757
sg60
(lp1290
g53
(g74
g55
NtRp1291
(dp1292
g58
(dp1293
g78
g79
ssg67
g1287
sg60
(lp1294
S'path_info'
p1295
asbag53
(g74
g55
NtRp1296
(dp1297
g58
(dp1298
g85
g86
ssg67
g1287
sg60
(lp1299
S':'
asbag53
(g74
g55
NtRp1300
(dp1301
g58
(dp1302
sg67
g1287
sg60
(lp1303
g53
(g54
g55
NtRp1304
(dp1305
g58
(dp1306
g66
I4
ssg67
g1300
sg60
(lp1307
S'/IguassuPass/default/atracao_create'
p1308
asbasbasbag53
(g69
g55
NtRp1309
(dp1310
g58
(dp1311
sg67
g757
sg60
(lp1312
g53
(g74
g55
NtRp1313
(dp1314
g58
(dp1315
g78
g79
ssg67
g1309
sg60
(lp1316
S'query_string'
p1317
asbag53
(g74
g55
NtRp1318
(dp1319
g58
(dp1320
g85
g86
ssg67
g1309
sg60
(lp1321
S':'
asbag53
(g74
g55
NtRp1322
(dp1323
g58
(dp1324
sg67
g1309
sg60
(lp1325
g53
(g54
g55
NtRp1326
(dp1327
g58
(dp1328
g66
I4
ssg67
g1322
sg60
(lp1329
S''
asbasbasbag53
(g69
g55
NtRp1330
(dp1331
g58
(dp1332
sg67
g757
sg60
(lp1333
g53
(g74
g55
NtRp1334
(dp1335
g58
(dp1336
g78
g79
ssg67
g1330
sg60
(lp1337
S'remote_addr'
p1338
asbag53
(g74
g55
NtRp1339
(dp1340
g58
(dp1341
g85
g86
ssg67
g1330
sg60
(lp1342
S':'
asbag53
(g74
g55
NtRp1343
(dp1344
g58
(dp1345
sg67
g1330
sg60
(lp1346
g53
(g54
g55
NtRp1347
(dp1348
g58
(dp1349
g66
I4
ssg67
g1343
sg60
(lp1350
g186
asbasbasbag53
(g69
g55
NtRp1351
(dp1352
g58
(dp1353
sg67
g757
sg60
(lp1354
g53
(g74
g55
NtRp1355
(dp1356
g58
(dp1357
g78
g79
ssg67
g1351
sg60
(lp1358
S'remote_port'
p1359
asbag53
(g74
g55
NtRp1360
(dp1361
g58
(dp1362
g85
g86
ssg67
g1351
sg60
(lp1363
S':'
asbag53
(g74
g55
NtRp1364
(dp1365
g58
(dp1366
sg67
g1351
sg60
(lp1367
g53
(g54
g55
NtRp1368
(dp1369
g58
(dp1370
g66
I4
ssg67
g1364
sg60
(lp1371
S'51053'
p1372
asbasbasbag53
(g69
g55
NtRp1373
(dp1374
g58
(dp1375
sg67
g757
sg60
(lp1376
g53
(g74
g55
NtRp1377
(dp1378
g58
(dp1379
g78
g79
ssg67
g1373
sg60
(lp1380
S'request_method'
p1381
asbag53
(g74
g55
NtRp1382
(dp1383
g58
(dp1384
g85
g86
ssg67
g1373
sg60
(lp1385
S':'
asbag53
(g74
g55
NtRp1386
(dp1387
g58
(dp1388
sg67
g1373
sg60
(lp1389
g53
(g54
g55
NtRp1390
(dp1391
g58
(dp1392
g66
I4
ssg67
g1386
sg60
(lp1393
S'POST'
p1394
asbasbasbag53
(g69
g55
NtRp1395
(dp1396
g58
(dp1397
sg67
g757
sg60
(lp1398
g53
(g74
g55
NtRp1399
(dp1400
g58
(dp1401
g78
g79
ssg67
g1395
sg60
(lp1402
S'script_name'
p1403
asbag53
(g74
g55
NtRp1404
(dp1405
g58
(dp1406
g85
g86
ssg67
g1395
sg60
(lp1407
S':'
asbag53
(g74
g55
NtRp1408
(dp1409
g58
(dp1410
sg67
g1395
sg60
(lp1411
g53
(g54
g55
NtRp1412
(dp1413
g58
(dp1414
g66
I4
ssg67
g1408
sg60
(lp1415
S''
asbasbasbag53
(g69
g55
NtRp1416
(dp1417
g58
(dp1418
sg67
g757
sg60
(lp1419
g53
(g74
g55
NtRp1420
(dp1421
g58
(dp1422
g78
g79
ssg67
g1416
sg60
(lp1423
S'server_name'
p1424
asbag53
(g74
g55
NtRp1425
(dp1426
g58
(dp1427
g85
g86
ssg67
g1416
sg60
(lp1428
S':'
asbag53
(g74
g55
NtRp1429
(dp1430
g58
(dp1431
sg67
g1416
sg60
(lp1432
g53
(g54
g55
NtRp1433
(dp1434
g58
(dp1435
g66
I4
ssg67
g1429
sg60
(lp1436
S'W15869'
p1437
asbasbasbag53
(g69
g55
NtRp1438
(dp1439
g58
(dp1440
sg67
g757
sg60
(lp1441
g53
(g74
g55
NtRp1442
(dp1443
g58
(dp1444
g78
g79
ssg67
g1438
sg60
(lp1445
S'server_port'
p1446
asbag53
(g74
g55
NtRp1447
(dp1448
g58
(dp1449
g85
g86
ssg67
g1438
sg60
(lp1450
S':'
asbag53
(g74
g55
NtRp1451
(dp1452
g58
(dp1453
sg67
g1438
sg60
(lp1454
g53
(g54
g55
NtRp1455
(dp1456
g58
(dp1457
g66
I4
ssg67
g1451
sg60
(lp1458
S'8000'
p1459
asbasbasbag53
(g69
g55
NtRp1460
(dp1461
g58
(dp1462
sg67
g757
sg60
(lp1463
g53
(g74
g55
NtRp1464
(dp1465
g58
(dp1466
g78
g79
ssg67
g1460
sg60
(lp1467
S'server_protocol'
p1468
asbag53
(g74
g55
NtRp1469
(dp1470
g58
(dp1471
g85
g86
ssg67
g1460
sg60
(lp1472
S':'
asbag53
(g74
g55
NtRp1473
(dp1474
g58
(dp1475
sg67
g1460
sg60
(lp1476
g53
(g54
g55
NtRp1477
(dp1478
g58
(dp1479
g66
I4
ssg67
g1473
sg60
(lp1480
S'HTTP/1.1'
p1481
asbasbasbag53
(g69
g55
NtRp1482
(dp1483
g58
(dp1484
sg67
g757
sg60
(lp1485
g53
(g74
g55
NtRp1486
(dp1487
g58
(dp1488
g78
g79
ssg67
g1482
sg60
(lp1489
S'server_software'
p1490
asbag53
(g74
g55
NtRp1491
(dp1492
g58
(dp1493
g85
g86
ssg67
g1482
sg60
(lp1494
S':'
asbag53
(g74
g55
NtRp1495
(dp1496
g58
(dp1497
sg67
g1482
sg60
(lp1498
g53
(g54
g55
NtRp1499
(dp1500
g58
(dp1501
g66
I4
ssg67
g1495
sg60
(lp1502
S'Rocket 1.2.4'
p1503
asbasbasbag53
(g69
g55
NtRp1504
(dp1505
g58
(dp1506
sg67
g757
sg60
(lp1507
g53
(g74
g55
NtRp1508
(dp1509
g58
(dp1510
g78
g79
ssg67
g1504
sg60
(lp1511
S'web2py_crontype'
p1512
asbag53
(g74
g55
NtRp1513
(dp1514
g58
(dp1515
g85
g86
ssg67
g1504
sg60
(lp1516
S':'
asbag53
(g74
g55
NtRp1517
(dp1518
g58
(dp1519
sg67
g1504
sg60
(lp1520
g53
(g54
g55
NtRp1521
(dp1522
g58
(dp1523
g66
I4
ssg67
g1517
sg60
(lp1524
S'hard'
p1525
asbasbasbag53
(g69
g55
NtRp1526
(dp1527
g58
(dp1528
sg67
g757
sg60
(lp1529
g53
(g74
g55
NtRp1530
(dp1531
g58
(dp1532
g78
g79
ssg67
g1526
sg60
(lp1533
S'web2py_path'
p1534
asbag53
(g74
g55
NtRp1535
(dp1536
g58
(dp1537
g85
g86
ssg67
g1526
sg60
(lp1538
S':'
asbag53
(g74
g55
NtRp1539
(dp1540
g58
(dp1541
sg67
g1526
sg60
(lp1542
g53
(g54
g55
NtRp1543
(dp1544
g58
(dp1545
g66
I4
ssg67
g1539
sg60
(lp1546
g804
asbasbasbag53
(g69
g55
NtRp1547
(dp1548
g58
(dp1549
sg67
g757
sg60
(lp1550
g53
(g74
g55
NtRp1551
(dp1552
g58
(dp1553
g78
g79
ssg67
g1547
sg60
(lp1554
S'web2py_version'
p1555
asbag53
(g74
g55
NtRp1556
(dp1557
g58
(dp1558
g85
g86
ssg67
g1547
sg60
(lp1559
S':'
asbag53
(g74
g55
NtRp1560
(dp1561
g58
(dp1562
sg67
g1547
sg60
(lp1563
g53
(g54
g55
NtRp1564
(dp1565
g58
(dp1566
g66
I4
ssg67
g1560
sg60
(lp1567
g53
(g62
g55
NtRp1568
(dp1569
g58
(dp1570
g66
I3
ssg67
Nsg60
(lp1571
g53
(g69
g55
NtRp1572
(dp1573
g58
(dp1574
sg67
g1568
sg60
(lp1575
g53
(g74
g55
NtRp1576
(dp1577
g58
(dp1578
sg67
g1572
sg60
(lp1579
g53
(g54
g55
NtRp1580
(dp1581
g58
(dp1582
g66
I3
ssg67
g1576
sg60
(lp1583
S'1'
asbasbasbag53
(g69
g55
NtRp1584
(dp1585
g58
(dp1586
sg67
g1568
sg60
(lp1587
g53
(g74
g55
NtRp1588
(dp1589
g58
(dp1590
sg67
g1584
sg60
(lp1591
g53
(g54
g55
NtRp1592
(dp1593
g58
(dp1594
g66
I3
ssg67
g1588
sg60
(lp1595
S'99'
p1596
asbasbasbag53
(g69
g55
NtRp1597
(dp1598
g58
(dp1599
sg67
g1568
sg60
(lp1600
g53
(g74
g55
NtRp1601
(dp1602
g58
(dp1603
sg67
g1597
sg60
(lp1604
g53
(g54
g55
NtRp1605
(dp1606
g58
(dp1607
g66
I3
ssg67
g1601
sg60
(lp1608
S'7'
asbasbasbag53
(g69
g55
NtRp1609
(dp1610
g58
(dp1611
sg67
g1568
sg60
(lp1612
g53
(g74
g55
NtRp1613
(dp1614
g58
(dp1615
sg67
g1609
sg60
(lp1616
g53
(g54
g55
NtRp1617
(dp1618
g58
(dp1619
g66
I3
ssg67
g1613
sg60
(lp1620
S'datetime.datetime(2012, 3, 4, 22, 12, 8)'
p1621
asbasbasbag53
(g69
g55
NtRp1622
(dp1623
g58
(dp1624
sg67
g1568
sg60
(lp1625
g53
(g74
g55
NtRp1626
(dp1627
g58
(dp1628
sg67
g1622
sg60
(lp1629
g53
(g54
g55
NtRp1630
(dp1631
g58
(dp1632
g66
I3
ssg67
g1626
sg60
(lp1633
S'stable'
p1634
asbasbasbasbasbasbasbag53
(g69
g55
NtRp1635
(dp1636
g58
(dp1637
sg67
g757
sg60
(lp1638
g53
(g74
g55
NtRp1639
(dp1640
g58
(dp1641
g78
g79
ssg67
g1635
sg60
(lp1642
S'wsgi_errors'
p1643
asbag53
(g74
g55
NtRp1644
(dp1645
g58
(dp1646
g85
g86
ssg67
g1635
sg60
(lp1647
S':'
asbag53
(g74
g55
NtRp1648
(dp1649
g58
(dp1650
sg67
g1635
sg60
(lp1651
g53
(g54
g55
NtRp1652
(dp1653
g58
(dp1654
g66
I4
ssg67
g1648
sg60
(lp1655
S"<open file '<stderr>', mode 'w' at 0x004200B0>"
p1656
asbasbasbag53
(g69
g55
NtRp1657
(dp1658
g58
(dp1659
sg67
g757
sg60
(lp1660
g53
(g74
g55
NtRp1661
(dp1662
g58
(dp1663
g78
g79
ssg67
g1657
sg60
(lp1664
S'wsgi_file_wrapper'
p1665
asbag53
(g74
g55
NtRp1666
(dp1667
g58
(dp1668
g85
g86
ssg67
g1657
sg60
(lp1669
S':'
asbag53
(g74
g55
NtRp1670
(dp1671
g58
(dp1672
sg67
g1657
sg60
(lp1673
g53
(g54
g55
NtRp1674
(dp1675
g58
(dp1676
g66
I4
ssg67
g1670
sg60
(lp1677
S'<class wsgiref.util.FileWrapper at 0x02E6D360>'
p1678
asbasbasbag53
(g69
g55
NtRp1679
(dp1680
g58
(dp1681
sg67
g757
sg60
(lp1682
g53
(g74
g55
NtRp1683
(dp1684
g58
(dp1685
g78
g79
ssg67
g1679
sg60
(lp1686
S'wsgi_input'
p1687
asbag53
(g74
g55
NtRp1688
(dp1689
g58
(dp1690
g85
g86
ssg67
g1679
sg60
(lp1691
S':'
asbag53
(g74
g55
NtRp1692
(dp1693
g58
(dp1694
sg67
g1679
sg60
(lp1695
g53
(g54
g55
NtRp1696
(dp1697
g58
(dp1698
g66
I4
ssg67
g1692
sg60
(lp1699
S'<socket._fileobject object at 0x0748D2B0>'
p1700
asbasbasbag53
(g69
g55
NtRp1701
(dp1702
g58
(dp1703
sg67
g757
sg60
(lp1704
g53
(g74
g55
NtRp1705
(dp1706
g58
(dp1707
g78
g79
ssg67
g1701
sg60
(lp1708
S'wsgi_multiprocess'
p1709
asbag53
(g74
g55
NtRp1710
(dp1711
g58
(dp1712
g85
g86
ssg67
g1701
sg60
(lp1713
S':'
asbag53
(g74
g55
NtRp1714
(dp1715
g58
(dp1716
sg67
g1701
sg60
(lp1717
g53
(g54
g55
NtRp1718
(dp1719
g58
(dp1720
g66
I4
ssg67
g1714
sg60
(lp1721
g96
asbasbasbag53
(g69
g55
NtRp1722
(dp1723
g58
(dp1724
sg67
g757
sg60
(lp1725
g53
(g74
g55
NtRp1726
(dp1727
g58
(dp1728
g78
g79
ssg67
g1722
sg60
(lp1729
S'wsgi_multithread'
p1730
asbag53
(g74
g55
NtRp1731
(dp1732
g58
(dp1733
g85
g86
ssg67
g1722
sg60
(lp1734
S':'
asbag53
(g74
g55
NtRp1735
(dp1736
g58
(dp1737
sg67
g1722
sg60
(lp1738
g53
(g54
g55
NtRp1739
(dp1740
g58
(dp1741
g66
I4
ssg67
g1735
sg60
(lp1742
S'True'
p1743
asbasbasbag53
(g69
g55
NtRp1744
(dp1745
g58
(dp1746
sg67
g757
sg60
(lp1747
g53
(g74
g55
NtRp1748
(dp1749
g58
(dp1750
g78
g79
ssg67
g1744
sg60
(lp1751
S'wsgi_run_once'
p1752
asbag53
(g74
g55
NtRp1753
(dp1754
g58
(dp1755
g85
g86
ssg67
g1744
sg60
(lp1756
S':'
asbag53
(g74
g55
NtRp1757
(dp1758
g58
(dp1759
sg67
g1744
sg60
(lp1760
g53
(g54
g55
NtRp1761
(dp1762
g58
(dp1763
g66
I4
ssg67
g1757
sg60
(lp1764
g96
asbasbasbag53
(g69
g55
NtRp1765
(dp1766
g58
(dp1767
sg67
g757
sg60
(lp1768
g53
(g74
g55
NtRp1769
(dp1770
g58
(dp1771
g78
g79
ssg67
g1765
sg60
(lp1772
S'wsgi_url_scheme'
p1773
asbag53
(g74
g55
NtRp1774
(dp1775
g58
(dp1776
g85
g86
ssg67
g1765
sg60
(lp1777
S':'
asbag53
(g74
g55
NtRp1778
(dp1779
g58
(dp1780
sg67
g1765
sg60
(lp1781
g53
(g54
g55
NtRp1782
(dp1783
g58
(dp1784
g66
I4
ssg67
g1778
sg60
(lp1785
S'http'
p1786
asbasbasbag53
(g69
g55
NtRp1787
(dp1788
g58
(dp1789
sg67
g757
sg60
(lp1790
g53
(g74
g55
NtRp1791
(dp1792
g58
(dp1793
g78
g79
ssg67
g1787
sg60
(lp1794
S'wsgi_version'
p1795
asbag53
(g74
g55
NtRp1796
(dp1797
g58
(dp1798
g85
g86
ssg67
g1787
sg60
(lp1799
S':'
asbag53
(g74
g55
NtRp1800
(dp1801
g58
(dp1802
sg67
g1787
sg60
(lp1803
g53
(g54
g55
NtRp1804
(dp1805
g58
(dp1806
g66
I4
ssg67
g1800
sg60
(lp1807
g53
(g62
g55
NtRp1808
(dp1809
g58
(dp1810
g66
I3
ssg67
Nsg60
(lp1811
g53
(g69
g55
NtRp1812
(dp1813
g58
(dp1814
sg67
g1808
sg60
(lp1815
g53
(g74
g55
NtRp1816
(dp1817
g58
(dp1818
sg67
g1812
sg60
(lp1819
g53
(g54
g55
NtRp1820
(dp1821
g58
(dp1822
g66
I3
ssg67
g1816
sg60
(lp1823
S'1'
asbasbasbag53
(g69
g55
NtRp1824
(dp1825
g58
(dp1826
sg67
g1808
sg60
(lp1827
g53
(g74
g55
NtRp1828
(dp1829
g58
(dp1830
sg67
g1824
sg60
(lp1831
g53
(g54
g55
NtRp1832
(dp1833
g58
(dp1834
g66
I3
ssg67
g1828
sg60
(lp1835
S'0'
asbasbasbasbasbasbasbasbasbasbasbag53
(g69
g55
NtRp1836
(dp1837
g58
(dp1838
sg67
g63
sg60
(lp1839
g53
(g74
g55
NtRp1840
(dp1841
g58
(dp1842
g78
g79
ssg67
g1836
sg60
(lp1843
S'extension'
p1844
asbag53
(g74
g55
NtRp1845
(dp1846
g58
(dp1847
g85
g86
ssg67
g1836
sg60
(lp1848
S':'
asbag53
(g74
g55
NtRp1849
(dp1850
g58
(dp1851
sg67
g1836
sg60
(lp1852
g53
(g54
g55
NtRp1853
(dp1854
g58
(dp1855
g66
I5
ssg67
g1849
sg60
(lp1856
S'html'
p1857
asbasbasbag53
(g69
g55
NtRp1858
(dp1859
g58
(dp1860
sg67
g63
sg60
(lp1861
g53
(g74
g55
NtRp1862
(dp1863
g58
(dp1864
g78
g79
ssg67
g1858
sg60
(lp1865
S'folder'
p1866
asbag53
(g74
g55
NtRp1867
(dp1868
g58
(dp1869
g85
g86
ssg67
g1858
sg60
(lp1870
S':'
asbag53
(g74
g55
NtRp1871
(dp1872
g58
(dp1873
sg67
g1858
sg60
(lp1874
g53
(g54
g55
NtRp1875
(dp1876
g58
(dp1877
g66
I5
ssg67
g1871
sg60
(lp1878
S'C:\\Users\\ceasbpi\\Dropbox\\web2py\\applications\\IguassuPass\\'
p1879
asbasbasbag53
(g69
g55
NtRp1880
(dp1881
g58
(dp1882
sg67
g63
sg60
(lp1883
g53
(g74
g55
NtRp1884
(dp1885
g58
(dp1886
g78
g79
ssg67
g1880
sg60
(lp1887
S'function'
p1888
asbag53
(g74
g55
NtRp1889
(dp1890
g58
(dp1891
g85
g86
ssg67
g1880
sg60
(lp1892
S':'
asbag53
(g74
g55
NtRp1893
(dp1894
g58
(dp1895
sg67
g1880
sg60
(lp1896
g53
(g54
g55
NtRp1897
(dp1898
g58
(dp1899
g66
I5
ssg67
g1893
sg60
(lp1900
S'atracao_create'
p1901
asbasbasbag53
(g69
g55
NtRp1902
(dp1903
g58
(dp1904
sg67
g63
sg60
(lp1905
g53
(g74
g55
NtRp1906
(dp1907
g58
(dp1908
g78
g79
ssg67
g1902
sg60
(lp1909
S'get_vars'
p1910
asbag53
(g74
g55
NtRp1911
(dp1912
g58
(dp1913
g85
g86
ssg67
g1902
sg60
(lp1914
S':'
asbag53
(g74
g55
NtRp1915
(dp1916
g58
(dp1917
sg67
g1902
sg60
(lp1918
g53
(g54
g55
NtRp1919
(dp1920
g58
(dp1921
g66
I5
ssg67
g1915
sg60
(lp1922
g53
(g62
g55
NtRp1923
(dp1924
g58
(dp1925
g66
I4
ssg67
Nsg60
(lp1926
sbasbasbasbag53
(g69
g55
NtRp1927
(dp1928
g58
(dp1929
sg67
g63
sg60
(lp1930
g53
(g74
g55
NtRp1931
(dp1932
g58
(dp1933
g78
g79
ssg67
g1927
sg60
(lp1934
S'global_settings'
p1935
asbag53
(g74
g55
NtRp1936
(dp1937
g58
(dp1938
g85
g86
ssg67
g1927
sg60
(lp1939
S':'
asbag53
(g74
g55
NtRp1940
(dp1941
g58
(dp1942
sg67
g1927
sg60
(lp1943
g53
(g54
g55
NtRp1944
(dp1945
g58
(dp1946
g66
I5
ssg67
g1940
sg60
(lp1947
g53
(g62
g55
NtRp1948
(dp1949
g58
(dp1950
g66
I4
ssg67
Nsg60
(lp1951
g53
(g69
g55
NtRp1952
(dp1953
g58
(dp1954
sg67
g1948
sg60
(lp1955
g53
(g74
g55
NtRp1956
(dp1957
g58
(dp1958
g78
g79
ssg67
g1952
sg60
(lp1959
g769
asbag53
(g74
g55
NtRp1960
(dp1961
g58
(dp1962
g85
g86
ssg67
g1952
sg60
(lp1963
S':'
asbag53
(g74
g55
NtRp1964
(dp1965
g58
(dp1966
sg67
g1952
sg60
(lp1967
g53
(g54
g55
NtRp1968
(dp1969
g58
(dp1970
g66
I4
ssg67
g1964
sg60
(lp1971
S"set(['C:\\\\Users\\\\ceasbpi\\\\Dropbox\\\\web2py\\\\applications\\\\admin\\\\', 'C:\\\\Users\\\\ceasbpi\\\\Dropbox\\\\web2py\\\\applications\\\\IguassuPass\\\\', 'C:\\\\Users\\\\ceasbpi\\\\Dropbox\\\\web2py\\\\applications\\\\iguassupass\\\\', 'C:\\\\Users\\\\ceasbpi\\\\Dropbox\\\\web2py\\\\applications\\\\welcome\\\\'])"
p1972
asbasbasbag53
(g69
g55
NtRp1973
(dp1974
g58
(dp1975
sg67
g1948
sg60
(lp1976
g53
(g74
g55
NtRp1977
(dp1978
g58
(dp1979
g78
g79
ssg67
g1973
sg60
(lp1980
g791
asbag53
(g74
g55
NtRp1981
(dp1982
g58
(dp1983
g85
g86
ssg67
g1973
sg60
(lp1984
S':'
asbag53
(g74
g55
NtRp1985
(dp1986
g58
(dp1987
sg67
g1973
sg60
(lp1988
g53
(g54
g55
NtRp1989
(dp1990
g58
(dp1991
g66
I4
ssg67
g1985
sg60
(lp1992
g804
asbasbasbag53
(g69
g55
NtRp1993
(dp1994
g58
(dp1995
sg67
g1948
sg60
(lp1996
g53
(g74
g55
NtRp1997
(dp1998
g58
(dp1999
g78
g79
ssg67
g1993
sg60
(lp2000
g813
asbag53
(g74
g55
NtRp2001
(dp2002
g58
(dp2003
g85
g86
ssg67
g1993
sg60
(lp2004
S':'
asbag53
(g74
g55
NtRp2005
(dp2006
g58
(dp2007
sg67
g1993
sg60
(lp2008
g53
(g54
g55
NtRp2009
(dp2010
g58
(dp2011
g66
I4
ssg67
g2005
sg60
(lp2012
g53
(g62
g55
NtRp2013
(dp2014
g58
(dp2015
g66
I3
ssg67
Nsg60
(lp2016
sbasbasbasbag53
(g69
g55
NtRp2017
(dp2018
g58
(dp2019
sg67
g1948
sg60
(lp2020
g53
(g74
g55
NtRp2021
(dp2022
g58
(dp2023
g78
g79
ssg67
g2017
sg60
(lp2024
g838
asbag53
(g74
g55
NtRp2025
(dp2026
g58
(dp2027
g85
g86
ssg67
g2017
sg60
(lp2028
S':'
asbag53
(g74
g55
NtRp2029
(dp2030
g58
(dp2031
sg67
g2017
sg60
(lp2032
g53
(g54
g55
NtRp2033
(dp2034
g58
(dp2035
g66
I4
ssg67
g2029
sg60
(lp2036
S"<Values at 0x30fdfd0: {'verbose': False, 'ip': '127.0.0.1', 'shutdown_timeout': 5, 'taskbar': False, 'nocron': False, 'pid_filename': 'httpserver.pid', 'maxthreads': None, 'softcron': False, 'server_name': 'W15869', 'bpython': False, 'nogui': False, 'port': 8000, 'extcron': False, 'debuglevel': 30, 'test': None, 'folder': 'C:\\\\Users\\\\ceasbpi\\\\Dropbox\\\\web2py', 'config': '', 'import_models': False, 'winservice': '', 'shell': None, 'run': '', 'log_filename': 'httpserver.log', 'args': [''], 'socket_timeout': 5, 'ssl_ca_certificate': None, 'scheduler': None, 'profiler_filename': None, 'ssl_private_key': '', 'password': '<ask>', 'request_queue_size': 5, 'ssl_certificate': '', 'cronjob': False, 'numthreads': None, 'quiet': False, 'interfaces': None, 'minthreads': None, 'timeout': 10, 'plain': False, 'nobanner': False}>"
p2037
asbasbasbag53
(g69
g55
NtRp2038
(dp2039
g58
(dp2040
sg67
g1948
sg60
(lp2041
g53
(g74
g55
NtRp2042
(dp2043
g58
(dp2044
g78
g79
ssg67
g2038
sg60
(lp2045
g904
asbag53
(g74
g55
NtRp2046
(dp2047
g58
(dp2048
g85
g86
ssg67
g2038
sg60
(lp2049
S':'
asbag53
(g74
g55
NtRp2050
(dp2051
g58
(dp2052
sg67
g2038
sg60
(lp2053
g53
(g54
g55
NtRp2054
(dp2055
g58
(dp2056
g66
I4
ssg67
g2050
sg60
(lp2057
S'set([])'
p2058
asbasbasbag53
(g69
g55
NtRp2059
(dp2060
g58
(dp2061
sg67
g1948
sg60
(lp2062
g53
(g74
g55
NtRp2063
(dp2064
g58
(dp2065
g78
g79
ssg67
g2059
sg60
(lp2066
g926
asbag53
(g74
g55
NtRp2067
(dp2068
g58
(dp2069
g85
g86
ssg67
g2059
sg60
(lp2070
S':'
asbag53
(g74
g55
NtRp2071
(dp2072
g58
(dp2073
sg67
g2059
sg60
(lp2074
g53
(g54
g55
NtRp2075
(dp2076
g58
(dp2077
g66
I4
ssg67
g2071
sg60
(lp2078
g96
asbasbasbag53
(g69
g55
NtRp2079
(dp2080
g58
(dp2081
sg67
g1948
sg60
(lp2082
g53
(g74
g55
NtRp2083
(dp2084
g58
(dp2085
g78
g79
ssg67
g2079
sg60
(lp2086
g947
asbag53
(g74
g55
NtRp2087
(dp2088
g58
(dp2089
g85
g86
ssg67
g2079
sg60
(lp2090
S':'
asbag53
(g74
g55
NtRp2091
(dp2092
g58
(dp2093
sg67
g2079
sg60
(lp2094
g53
(g54
g55
NtRp2095
(dp2096
g58
(dp2097
g66
I4
ssg67
g2091
sg60
(lp2098
g960
asbasbasbag53
(g69
g55
NtRp2099
(dp2100
g58
(dp2101
sg67
g1948
sg60
(lp2102
g53
(g74
g55
NtRp2103
(dp2104
g58
(dp2105
g78
g79
ssg67
g2099
sg60
(lp2106
g1253
asbag53
(g74
g55
NtRp2107
(dp2108
g58
(dp2109
g85
g86
ssg67
g2099
sg60
(lp2110
S':'
asbag53
(g74
g55
NtRp2111
(dp2112
g58
(dp2113
sg67
g2099
sg60
(lp2114
g53
(g54
g55
NtRp2115
(dp2116
g58
(dp2117
g66
I4
ssg67
g2111
sg60
(lp2118
g96
asbasbasbag53
(g69
g55
NtRp2119
(dp2120
g58
(dp2121
sg67
g1948
sg60
(lp2122
g53
(g74
g55
NtRp2123
(dp2124
g58
(dp2125
g78
g79
ssg67
g2119
sg60
(lp2126
g1274
asbag53
(g74
g55
NtRp2127
(dp2128
g58
(dp2129
g85
g86
ssg67
g2119
sg60
(lp2130
S':'
asbag53
(g74
g55
NtRp2131
(dp2132
g58
(dp2133
sg67
g2119
sg60
(lp2134
g53
(g54
g55
NtRp2135
(dp2136
g58
(dp2137
g66
I4
ssg67
g2131
sg60
(lp2138
g96
asbasbasbag53
(g69
g55
NtRp2139
(dp2140
g58
(dp2141
sg67
g1948
sg60
(lp2142
g53
(g74
g55
NtRp2143
(dp2144
g58
(dp2145
g78
g79
ssg67
g2139
sg60
(lp2146
g1512
asbag53
(g74
g55
NtRp2147
(dp2148
g58
(dp2149
g85
g86
ssg67
g2139
sg60
(lp2150
S':'
asbag53
(g74
g55
NtRp2151
(dp2152
g58
(dp2153
sg67
g2139
sg60
(lp2154
g53
(g54
g55
NtRp2155
(dp2156
g58
(dp2157
g66
I4
ssg67
g2151
sg60
(lp2158
g1525
asbasbasbag53
(g69
g55
NtRp2159
(dp2160
g58
(dp2161
sg67
g1948
sg60
(lp2162
g53
(g74
g55
NtRp2163
(dp2164
g58
(dp2165
g78
g79
ssg67
g2159
sg60
(lp2166
g1555
asbag53
(g74
g55
NtRp2167
(dp2168
g58
(dp2169
g85
g86
ssg67
g2159
sg60
(lp2170
S':'
asbag53
(g74
g55
NtRp2171
(dp2172
g58
(dp2173
sg67
g2159
sg60
(lp2174
g53
(g54
g55
NtRp2175
(dp2176
g58
(dp2177
g66
I4
ssg67
g2171
sg60
(lp2178
g53
(g62
g55
NtRp2179
(dp2180
g58
(dp2181
g66
I3
ssg67
Nsg60
(lp2182
g53
(g69
g55
NtRp2183
(dp2184
g58
(dp2185
sg67
g2179
sg60
(lp2186
g53
(g74
g55
NtRp2187
(dp2188
g58
(dp2189
sg67
g2183
sg60
(lp2190
g53
(g54
g55
NtRp2191
(dp2192
g58
(dp2193
g66
I3
ssg67
g2187
sg60
(lp2194
S'1'
asbasbasbag53
(g69
g55
NtRp2195
(dp2196
g58
(dp2197
sg67
g2179
sg60
(lp2198
g53
(g74
g55
NtRp2199
(dp2200
g58
(dp2201
sg67
g2195
sg60
(lp2202
g53
(g54
g55
NtRp2203
(dp2204
g58
(dp2205
g66
I3
ssg67
g2199
sg60
(lp2206
S'99'
p2207
asbasbasbag53
(g69
g55
NtRp2208
(dp2209
g58
(dp2210
sg67
g2179
sg60
(lp2211
g53
(g74
g55
NtRp2212
(dp2213
g58
(dp2214
sg67
g2208
sg60
(lp2215
g53
(g54
g55
NtRp2216
(dp2217
g58
(dp2218
g66
I3
ssg67
g2212
sg60
(lp2219
S'7'
asbasbasbag53
(g69
g55
NtRp2220
(dp2221
g58
(dp2222
sg67
g2179
sg60
(lp2223
g53
(g74
g55
NtRp2224
(dp2225
g58
(dp2226
sg67
g2220
sg60
(lp2227
g53
(g54
g55
NtRp2228
(dp2229
g58
(dp2230
g66
I3
ssg67
g2224
sg60
(lp2231
S'datetime.datetime(2012, 3, 4, 22, 12, 8)'
p2232
asbasbasbag53
(g69
g55
NtRp2233
(dp2234
g58
(dp2235
sg67
g2179
sg60
(lp2236
g53
(g74
g55
NtRp2237
(dp2238
g58
(dp2239
sg67
g2233
sg60
(lp2240
g53
(g54
g55
NtRp2241
(dp2242
g58
(dp2243
g66
I3
ssg67
g2237
sg60
(lp2244
g1634
asbasbasbasbasbasbasbasbasbasbasbag53
(g69
g55
NtRp2245
(dp2246
g58
(dp2247
sg67
g63
sg60
(lp2248
g53
(g74
g55
NtRp2249
(dp2250
g58
(dp2251
g78
g79
ssg67
g2245
sg60
(lp2252
S'is_https'
p2253
asbag53
(g74
g55
NtRp2254
(dp2255
g58
(dp2256
g85
g86
ssg67
g2245
sg60
(lp2257
S':'
asbag53
(g74
g55
NtRp2258
(dp2259
g58
(dp2260
sg67
g2245
sg60
(lp2261
g53
(g54
g55
NtRp2262
(dp2263
g58
(dp2264
g66
I5
ssg67
g2258
sg60
(lp2265
g96
asbasbasbag53
(g69
g55
NtRp2266
(dp2267
g58
(dp2268
sg67
g63
sg60
(lp2269
g53
(g74
g55
NtRp2270
(dp2271
g58
(dp2272
g78
g79
ssg67
g2266
sg60
(lp2273
S'is_local'
p2274
asbag53
(g74
g55
NtRp2275
(dp2276
g58
(dp2277
g85
g86
ssg67
g2266
sg60
(lp2278
S':'
asbag53
(g74
g55
NtRp2279
(dp2280
g58
(dp2281
sg67
g2266
sg60
(lp2282
g53
(g54
g55
NtRp2283
(dp2284
g58
(dp2285
g66
I5
ssg67
g2279
sg60
(lp2286
g1743
asbasbasbag53
(g69
g55
NtRp2287
(dp2288
g58
(dp2289
sg67
g63
sg60
(lp2290
g53
(g74
g55
NtRp2291
(dp2292
g58
(dp2293
g78
g79
ssg67
g2287
sg60
(lp2294
S'is_restful'
p2295
asbag53
(g74
g55
NtRp2296
(dp2297
g58
(dp2298
g85
g86
ssg67
g2287
sg60
(lp2299
S':'
asbag53
(g74
g55
NtRp2300
(dp2301
g58
(dp2302
sg67
g2287
sg60
(lp2303
g53
(g54
g55
NtRp2304
(dp2305
g58
(dp2306
g66
I5
ssg67
g2300
sg60
(lp2307
g96
asbasbasbag53
(g69
g55
NtRp2308
(dp2309
g58
(dp2310
sg67
g63
sg60
(lp2311
g53
(g74
g55
NtRp2312
(dp2313
g58
(dp2314
g78
g79
ssg67
g2308
sg60
(lp2315
S'now'
p2316
asbag53
(g74
g55
NtRp2317
(dp2318
g58
(dp2319
g85
g86
ssg67
g2308
sg60
(lp2320
S':'
asbag53
(g74
g55
NtRp2321
(dp2322
g58
(dp2323
sg67
g2308
sg60
(lp2324
g53
(g54
g55
NtRp2325
(dp2326
g58
(dp2327
g66
I5
ssg67
g2321
sg60
(lp2328
S'datetime.datetime(2012, 8, 30, 9, 53, 50, 148000)'
p2329
asbasbasbag53
(g69
g55
NtRp2330
(dp2331
g58
(dp2332
sg67
g63
sg60
(lp2333
g53
(g74
g55
NtRp2334
(dp2335
g58
(dp2336
g78
g79
ssg67
g2330
sg60
(lp2337
S'post_vars'
p2338
asbag53
(g74
g55
NtRp2339
(dp2340
g58
(dp2341
g85
g86
ssg67
g2330
sg60
(lp2342
S':'
asbag53
(g74
g55
NtRp2343
(dp2344
g58
(dp2345
sg67
g2330
sg60
(lp2346
g53
(g54
g55
NtRp2347
(dp2348
g58
(dp2349
g66
I5
ssg67
g2343
sg60
(lp2350
g53
(g62
g55
NtRp2351
(dp2352
g58
(dp2353
g66
I4
ssg67
Nsg60
(lp2354
g53
(g69
g55
NtRp2355
(dp2356
g58
(dp2357
sg67
g2351
sg60
(lp2358
g53
(g74
g55
NtRp2359
(dp2360
g58
(dp2361
g78
g79
ssg67
g2355
sg60
(lp2362
S'desc'
p2363
asbag53
(g74
g55
NtRp2364
(dp2365
g58
(dp2366
g85
g86
ssg67
g2355
sg60
(lp2367
S':'
asbag53
(g74
g55
NtRp2368
(dp2369
g58
(dp2370
sg67
g2355
sg60
(lp2371
g53
(g54
g55
NtRp2372
(dp2373
g58
(dp2374
g66
I4
ssg67
g2368
sg60
(lp2375
S'ahahahahaha'
p2376
asbasbasbag53
(g69
g55
NtRp2377
(dp2378
g58
(dp2379
sg67
g2351
sg60
(lp2380
g53
(g74
g55
NtRp2381
(dp2382
g58
(dp2383
g78
g79
ssg67
g2377
sg60
(lp2384
S'nome'
p2385
asbag53
(g74
g55
NtRp2386
(dp2387
g58
(dp2388
g85
g86
ssg67
g2377
sg60
(lp2389
S':'
asbag53
(g74
g55
NtRp2390
(dp2391
g58
(dp2392
sg67
g2377
sg60
(lp2393
g53
(g54
g55
NtRp2394
(dp2395
g58
(dp2396
g66
I4
ssg67
g2390
sg60
(lp2397
S'haha'
p2398
asbasbasbasbasbasbasbag53
(g69
g55
NtRp2399
(dp2400
g58
(dp2401
sg67
g63
sg60
(lp2402
g53
(g74
g55
NtRp2403
(dp2404
g58
(dp2405
g78
g79
ssg67
g2399
sg60
(lp2406
S'url'
p2407
asbag53
(g74
g55
NtRp2408
(dp2409
g58
(dp2410
g85
g86
ssg67
g2399
sg60
(lp2411
S':'
asbag53
(g74
g55
NtRp2412
(dp2413
g58
(dp2414
sg67
g2399
sg60
(lp2415
g53
(g54
g55
NtRp2416
(dp2417
g58
(dp2418
g66
I5
ssg67
g2412
sg60
(lp2419
S'/IguassuPass/default/atracao_create'
p2420
asbasbasbag53
(g69
g55
NtRp2421
(dp2422
g58
(dp2423
sg67
g63
sg60
(lp2424
g53
(g74
g55
NtRp2425
(dp2426
g58
(dp2427
g78
g79
ssg67
g2421
sg60
(lp2428
S'utcnow'
p2429
asbag53
(g74
g55
NtRp2430
(dp2431
g58
(dp2432
g85
g86
ssg67
g2421
sg60
(lp2433
S':'
asbag53
(g74
g55
NtRp2434
(dp2435
g58
(dp2436
sg67
g2421
sg60
(lp2437
g53
(g54
g55
NtRp2438
(dp2439
g58
(dp2440
g66
I5
ssg67
g2434
sg60
(lp2441
S'datetime.datetime(2012, 8, 30, 12, 53, 50, 148000)'
p2442
asbasbasbag53
(g69
g55
NtRp2443
(dp2444
g58
(dp2445
sg67
g63
sg60
(lp2446
g53
(g74
g55
NtRp2447
(dp2448
g58
(dp2449
g78
g79
ssg67
g2443
sg60
(lp2450
S'uuid'
p2451
asbag53
(g74
g55
NtRp2452
(dp2453
g58
(dp2454
g85
g86
ssg67
g2443
sg60
(lp2455
S':'
asbag53
(g74
g55
NtRp2456
(dp2457
g58
(dp2458
sg67
g2443
sg60
(lp2459
g53
(g54
g55
NtRp2460
(dp2461
g58
(dp2462
g66
I5
ssg67
g2456
sg60
(lp2463
S'IguassuPass/127.0.0.1.2012-08-30.09-53-50.6d4cd83e-81e3-42a1-b864-91ab639b82fa'
p2464
asbasbasbag53
(g69
g55
NtRp2465
(dp2466
g58
(dp2467
sg67
g63
sg60
(lp2468
g53
(g74
g55
NtRp2469
(dp2470
g58
(dp2471
g78
g79
ssg67
g2465
sg60
(lp2472
S'vars'
p2473
asbag53
(g74
g55
NtRp2474
(dp2475
g58
(dp2476
g85
g86
ssg67
g2465
sg60
(lp2477
S':'
asbag53
(g74
g55
NtRp2478
(dp2479
g58
(dp2480
sg67
g2465
sg60
(lp2481
g53
(g54
g55
NtRp2482
(dp2483
g58
(dp2484
g66
I5
ssg67
g2478
sg60
(lp2485
g53
(g62
g55
NtRp2486
(dp2487
g58
(dp2488
g66
I4
ssg67
Nsg60
(lp2489
g53
(g69
g55
NtRp2490
(dp2491
g58
(dp2492
sg67
g2486
sg60
(lp2493
g53
(g74
g55
NtRp2494
(dp2495
g58
(dp2496
g78
g79
ssg67
g2490
sg60
(lp2497
g2363
asbag53
(g74
g55
NtRp2498
(dp2499
g58
(dp2500
g85
g86
ssg67
g2490
sg60
(lp2501
S':'
asbag53
(g74
g55
NtRp2502
(dp2503
g58
(dp2504
sg67
g2490
sg60
(lp2505
g53
(g54
g55
NtRp2506
(dp2507
g58
(dp2508
g66
I4
ssg67
g2502
sg60
(lp2509
g2376
asbasbasbag53
(g69
g55
NtRp2510
(dp2511
g58
(dp2512
sg67
g2486
sg60
(lp2513
g53
(g74
g55
NtRp2514
(dp2515
g58
(dp2516
g78
g79
ssg67
g2510
sg60
(lp2517
g2385
asbag53
(g74
g55
NtRp2518
(dp2519
g58
(dp2520
g85
g86
ssg67
g2510
sg60
(lp2521
S':'
asbag53
(g74
g55
NtRp2522
(dp2523
g58
(dp2524
sg67
g2510
sg60
(lp2525
g53
(g54
g55
NtRp2526
(dp2527
g58
(dp2528
g66
I4
ssg67
g2522
sg60
(lp2529
g2398
asbasbasbasbasbasbasbag53
(g69
g55
NtRp2530
(dp2531
g58
(dp2532
sg67
g63
sg60
(lp2533
g53
(g74
g55
NtRp2534
(dp2535
g58
(dp2536
g78
g79
ssg67
g2530
sg60
(lp2537
S'wsgi'
p2538
asbag53
(g74
g55
NtRp2539
(dp2540
g58
(dp2541
g85
g86
ssg67
g2530
sg60
(lp2542
S':'
asbag53
(g74
g55
NtRp2543
(dp2544
g58
(dp2545
sg67
g2530
sg60
(lp2546
g53
(g54
g55
NtRp2547
(dp2548
g58
(dp2549
g66
I5
ssg67
g2543
sg60
(lp2550
g53
(g62
g55
NtRp2551
(dp2552
g58
(dp2553
g66
I4
ssg67
Nsg60
(lp2554
g53
(g69
g55
NtRp2555
(dp2556
g58
(dp2557
sg67
g2551
sg60
(lp2558
g53
(g74
g55
NtRp2559
(dp2560
g58
(dp2561
g78
g79
ssg67
g2555
sg60
(lp2562
S'environ'
p2563
asbag53
(g74
g55
NtRp2564
(dp2565
g58
(dp2566
g85
g86
ssg67
g2555
sg60
(lp2567
S':'
asbag53
(g74
g55
NtRp2568
(dp2569
g58
(dp2570
sg67
g2555
sg60
(lp2571
g53
(g54
g55
NtRp2572
(dp2573
g58
(dp2574
g66
I4
ssg67
g2568
sg60
(lp2575
g53
(g62
g55
NtRp2576
(dp2577
g58
(dp2578
g66
I3
ssg67
Nsg60
(lp2579
g53
(g69
g55
NtRp2580
(dp2581
g58
(dp2582
sg67
g2576
sg60
(lp2583
g53
(g74
g55
NtRp2584
(dp2585
g58
(dp2586
g78
g79
ssg67
g2580
sg60
(lp2587
S'CONTENT_LENGTH'
p2588
asbag53
(g74
g55
NtRp2589
(dp2590
g58
(dp2591
g85
g86
ssg67
g2580
sg60
(lp2592
S':'
asbag53
(g74
g55
NtRp2593
(dp2594
g58
(dp2595
sg67
g2580
sg60
(lp2596
g53
(g54
g55
NtRp2597
(dp2598
g58
(dp2599
g66
I3
ssg67
g2593
sg60
(lp2600
g873
asbasbasbag53
(g69
g55
NtRp2601
(dp2602
g58
(dp2603
sg67
g2576
sg60
(lp2604
g53
(g74
g55
NtRp2605
(dp2606
g58
(dp2607
g78
g79
ssg67
g2601
sg60
(lp2608
S'CONTENT_TYPE'
p2609
asbag53
(g74
g55
NtRp2610
(dp2611
g58
(dp2612
g85
g86
ssg67
g2601
sg60
(lp2613
S':'
asbag53
(g74
g55
NtRp2614
(dp2615
g58
(dp2616
sg67
g2601
sg60
(lp2617
g53
(g54
g55
NtRp2618
(dp2619
g58
(dp2620
g66
I3
ssg67
g2614
sg60
(lp2621
g895
asbasbasbag53
(g69
g55
NtRp2622
(dp2623
g58
(dp2624
sg67
g2576
sg60
(lp2625
g53
(g74
g55
NtRp2626
(dp2627
g58
(dp2628
g78
g79
ssg67
g2622
sg60
(lp2629
S'HTTP_ACCEPT'
p2630
asbag53
(g74
g55
NtRp2631
(dp2632
g58
(dp2633
g85
g86
ssg67
g2622
sg60
(lp2634
S':'
asbag53
(g74
g55
NtRp2635
(dp2636
g58
(dp2637
sg67
g2622
sg60
(lp2638
g53
(g54
g55
NtRp2639
(dp2640
g58
(dp2641
g66
I3
ssg67
g2635
sg60
(lp2642
g982
asbasbasbag53
(g69
g55
NtRp2643
(dp2644
g58
(dp2645
sg67
g2576
sg60
(lp2646
g53
(g74
g55
NtRp2647
(dp2648
g58
(dp2649
g78
g79
ssg67
g2643
sg60
(lp2650
S'HTTP_ACCEPT_CHARSET'
p2651
asbag53
(g74
g55
NtRp2652
(dp2653
g58
(dp2654
g85
g86
ssg67
g2643
sg60
(lp2655
S':'
asbag53
(g74
g55
NtRp2656
(dp2657
g58
(dp2658
sg67
g2643
sg60
(lp2659
g53
(g54
g55
NtRp2660
(dp2661
g58
(dp2662
g66
I3
ssg67
g2656
sg60
(lp2663
g1004
asbasbasbag53
(g69
g55
NtRp2664
(dp2665
g58
(dp2666
sg67
g2576
sg60
(lp2667
g53
(g74
g55
NtRp2668
(dp2669
g58
(dp2670
g78
g79
ssg67
g2664
sg60
(lp2671
S'HTTP_ACCEPT_ENCODING'
p2672
asbag53
(g74
g55
NtRp2673
(dp2674
g58
(dp2675
g85
g86
ssg67
g2664
sg60
(lp2676
S':'
asbag53
(g74
g55
NtRp2677
(dp2678
g58
(dp2679
sg67
g2664
sg60
(lp2680
g53
(g54
g55
NtRp2681
(dp2682
g58
(dp2683
g66
I3
ssg67
g2677
sg60
(lp2684
g1026
asbasbasbag53
(g69
g55
NtRp2685
(dp2686
g58
(dp2687
sg67
g2576
sg60
(lp2688
g53
(g74
g55
NtRp2689
(dp2690
g58
(dp2691
g78
g79
ssg67
g2685
sg60
(lp2692
S'HTTP_ACCEPT_LANGUAGE'
p2693
asbag53
(g74
g55
NtRp2694
(dp2695
g58
(dp2696
g85
g86
ssg67
g2685
sg60
(lp2697
S':'
asbag53
(g74
g55
NtRp2698
(dp2699
g58
(dp2700
sg67
g2685
sg60
(lp2701
g53
(g54
g55
NtRp2702
(dp2703
g58
(dp2704
g66
I3
ssg67
g2698
sg60
(lp2705
g1048
asbasbasbag53
(g69
g55
NtRp2706
(dp2707
g58
(dp2708
sg67
g2576
sg60
(lp2709
g53
(g74
g55
NtRp2710
(dp2711
g58
(dp2712
g78
g79
ssg67
g2706
sg60
(lp2713
S'HTTP_CACHE_CONTROL'
p2714
asbag53
(g74
g55
NtRp2715
(dp2716
g58
(dp2717
g85
g86
ssg67
g2706
sg60
(lp2718
S':'
asbag53
(g74
g55
NtRp2719
(dp2720
g58
(dp2721
sg67
g2706
sg60
(lp2722
g53
(g54
g55
NtRp2723
(dp2724
g58
(dp2725
g66
I3
ssg67
g2719
sg60
(lp2726
g1070
asbasbasbag53
(g69
g55
NtRp2727
(dp2728
g58
(dp2729
sg67
g2576
sg60
(lp2730
g53
(g74
g55
NtRp2731
(dp2732
g58
(dp2733
g78
g79
ssg67
g2727
sg60
(lp2734
S'HTTP_CONNECTION'
p2735
asbag53
(g74
g55
NtRp2736
(dp2737
g58
(dp2738
g85
g86
ssg67
g2727
sg60
(lp2739
S':'
asbag53
(g74
g55
NtRp2740
(dp2741
g58
(dp2742
sg67
g2727
sg60
(lp2743
g53
(g54
g55
NtRp2744
(dp2745
g58
(dp2746
g66
I3
ssg67
g2740
sg60
(lp2747
g1092
asbasbasbag53
(g69
g55
NtRp2748
(dp2749
g58
(dp2750
sg67
g2576
sg60
(lp2751
g53
(g74
g55
NtRp2752
(dp2753
g58
(dp2754
g78
g79
ssg67
g2748
sg60
(lp2755
S'HTTP_CONTENT_LENGTH'
p2756
asbag53
(g74
g55
NtRp2757
(dp2758
g58
(dp2759
g85
g86
ssg67
g2748
sg60
(lp2760
S':'
asbag53
(g74
g55
NtRp2761
(dp2762
g58
(dp2763
sg67
g2748
sg60
(lp2764
g53
(g54
g55
NtRp2765
(dp2766
g58
(dp2767
g66
I3
ssg67
g2761
sg60
(lp2768
g873
asbasbasbag53
(g69
g55
NtRp2769
(dp2770
g58
(dp2771
sg67
g2576
sg60
(lp2772
g53
(g74
g55
NtRp2773
(dp2774
g58
(dp2775
g78
g79
ssg67
g2769
sg60
(lp2776
S'HTTP_CONTENT_TYPE'
p2777
asbag53
(g74
g55
NtRp2778
(dp2779
g58
(dp2780
g85
g86
ssg67
g2769
sg60
(lp2781
S':'
asbag53
(g74
g55
NtRp2782
(dp2783
g58
(dp2784
sg67
g2769
sg60
(lp2785
g53
(g54
g55
NtRp2786
(dp2787
g58
(dp2788
g66
I3
ssg67
g2782
sg60
(lp2789
g895
asbasbasbag53
(g69
g55
NtRp2790
(dp2791
g58
(dp2792
sg67
g2576
sg60
(lp2793
g53
(g74
g55
NtRp2794
(dp2795
g58
(dp2796
g78
g79
ssg67
g2790
sg60
(lp2797
S'HTTP_COOKIE'
p2798
asbag53
(g74
g55
NtRp2799
(dp2800
g58
(dp2801
g85
g86
ssg67
g2790
sg60
(lp2802
S':'
asbag53
(g74
g55
NtRp2803
(dp2804
g58
(dp2805
sg67
g2790
sg60
(lp2806
g53
(g54
g55
NtRp2807
(dp2808
g58
(dp2809
g66
I3
ssg67
g2803
sg60
(lp2810
g1156
asbasbasbag53
(g69
g55
NtRp2811
(dp2812
g58
(dp2813
sg67
g2576
sg60
(lp2814
g53
(g74
g55
NtRp2815
(dp2816
g58
(dp2817
g78
g79
ssg67
g2811
sg60
(lp2818
S'HTTP_HOST'
p2819
asbag53
(g74
g55
NtRp2820
(dp2821
g58
(dp2822
g85
g86
ssg67
g2811
sg60
(lp2823
S':'
asbag53
(g74
g55
NtRp2824
(dp2825
g58
(dp2826
sg67
g2811
sg60
(lp2827
g53
(g54
g55
NtRp2828
(dp2829
g58
(dp2830
g66
I3
ssg67
g2824
sg60
(lp2831
g1178
asbasbasbag53
(g69
g55
NtRp2832
(dp2833
g58
(dp2834
sg67
g2576
sg60
(lp2835
g53
(g74
g55
NtRp2836
(dp2837
g58
(dp2838
g78
g79
ssg67
g2832
sg60
(lp2839
S'HTTP_ORIGIN'
p2840
asbag53
(g74
g55
NtRp2841
(dp2842
g58
(dp2843
g85
g86
ssg67
g2832
sg60
(lp2844
S':'
asbag53
(g74
g55
NtRp2845
(dp2846
g58
(dp2847
sg67
g2832
sg60
(lp2848
g53
(g54
g55
NtRp2849
(dp2850
g58
(dp2851
g66
I3
ssg67
g2845
sg60
(lp2852
g1200
asbasbasbag53
(g69
g55
NtRp2853
(dp2854
g58
(dp2855
sg67
g2576
sg60
(lp2856
g53
(g74
g55
NtRp2857
(dp2858
g58
(dp2859
g78
g79
ssg67
g2853
sg60
(lp2860
S'HTTP_REFERER'
p2861
asbag53
(g74
g55
NtRp2862
(dp2863
g58
(dp2864
g85
g86
ssg67
g2853
sg60
(lp2865
S':'
asbag53
(g74
g55
NtRp2866
(dp2867
g58
(dp2868
sg67
g2853
sg60
(lp2869
g53
(g54
g55
NtRp2870
(dp2871
g58
(dp2872
g66
I3
ssg67
g2866
sg60
(lp2873
g1222
asbasbasbag53
(g69
g55
NtRp2874
(dp2875
g58
(dp2876
sg67
g2576
sg60
(lp2877
g53
(g74
g55
NtRp2878
(dp2879
g58
(dp2880
g78
g79
ssg67
g2874
sg60
(lp2881
S'HTTP_USER_AGENT'
p2882
asbag53
(g74
g55
NtRp2883
(dp2884
g58
(dp2885
g85
g86
ssg67
g2874
sg60
(lp2886
S':'
asbag53
(g74
g55
NtRp2887
(dp2888
g58
(dp2889
sg67
g2874
sg60
(lp2890
g53
(g54
g55
NtRp2891
(dp2892
g58
(dp2893
g66
I3
ssg67
g2887
sg60
(lp2894
g1244
asbasbasbag53
(g69
g55
NtRp2895
(dp2896
g58
(dp2897
sg67
g2576
sg60
(lp2898
g53
(g74
g55
NtRp2899
(dp2900
g58
(dp2901
g78
g79
ssg67
g2895
sg60
(lp2902
S'PATH_INFO'
p2903
asbag53
(g74
g55
NtRp2904
(dp2905
g58
(dp2906
g85
g86
ssg67
g2895
sg60
(lp2907
S':'
asbag53
(g74
g55
NtRp2908
(dp2909
g58
(dp2910
sg67
g2895
sg60
(lp2911
g53
(g54
g55
NtRp2912
(dp2913
g58
(dp2914
g66
I3
ssg67
g2908
sg60
(lp2915
g1308
asbasbasbag53
(g69
g55
NtRp2916
(dp2917
g58
(dp2918
sg67
g2576
sg60
(lp2919
g53
(g74
g55
NtRp2920
(dp2921
g58
(dp2922
g78
g79
ssg67
g2916
sg60
(lp2923
S'QUERY_STRING'
p2924
asbag53
(g74
g55
NtRp2925
(dp2926
g58
(dp2927
g85
g86
ssg67
g2916
sg60
(lp2928
S':'
asbag53
(g74
g55
NtRp2929
(dp2930
g58
(dp2931
sg67
g2916
sg60
(lp2932
g53
(g54
g55
NtRp2933
(dp2934
g58
(dp2935
g66
I3
ssg67
g2929
sg60
(lp2936
S''
asbasbasbag53
(g69
g55
NtRp2937
(dp2938
g58
(dp2939
sg67
g2576
sg60
(lp2940
g53
(g74
g55
NtRp2941
(dp2942
g58
(dp2943
g78
g79
ssg67
g2937
sg60
(lp2944
S'REMOTE_ADDR'
p2945
asbag53
(g74
g55
NtRp2946
(dp2947
g58
(dp2948
g85
g86
ssg67
g2937
sg60
(lp2949
S':'
asbag53
(g74
g55
NtRp2950
(dp2951
g58
(dp2952
sg67
g2937
sg60
(lp2953
g53
(g54
g55
NtRp2954
(dp2955
g58
(dp2956
g66
I3
ssg67
g2950
sg60
(lp2957
g186
asbasbasbag53
(g69
g55
NtRp2958
(dp2959
g58
(dp2960
sg67
g2576
sg60
(lp2961
g53
(g74
g55
NtRp2962
(dp2963
g58
(dp2964
g78
g79
ssg67
g2958
sg60
(lp2965
S'REMOTE_PORT'
p2966
asbag53
(g74
g55
NtRp2967
(dp2968
g58
(dp2969
g85
g86
ssg67
g2958
sg60
(lp2970
S':'
asbag53
(g74
g55
NtRp2971
(dp2972
g58
(dp2973
sg67
g2958
sg60
(lp2974
g53
(g54
g55
NtRp2975
(dp2976
g58
(dp2977
g66
I3
ssg67
g2971
sg60
(lp2978
g1372
asbasbasbag53
(g69
g55
NtRp2979
(dp2980
g58
(dp2981
sg67
g2576
sg60
(lp2982
g53
(g74
g55
NtRp2983
(dp2984
g58
(dp2985
g78
g79
ssg67
g2979
sg60
(lp2986
S'REQUEST_METHOD'
p2987
asbag53
(g74
g55
NtRp2988
(dp2989
g58
(dp2990
g85
g86
ssg67
g2979
sg60
(lp2991
S':'
asbag53
(g74
g55
NtRp2992
(dp2993
g58
(dp2994
sg67
g2979
sg60
(lp2995
g53
(g54
g55
NtRp2996
(dp2997
g58
(dp2998
g66
I3
ssg67
g2992
sg60
(lp2999
g1394
asbasbasbag53
(g69
g55
NtRp3000
(dp3001
g58
(dp3002
sg67
g2576
sg60
(lp3003
g53
(g74
g55
NtRp3004
(dp3005
g58
(dp3006
g78
g79
ssg67
g3000
sg60
(lp3007
S'SCRIPT_NAME'
p3008
asbag53
(g74
g55
NtRp3009
(dp3010
g58
(dp3011
g85
g86
ssg67
g3000
sg60
(lp3012
S':'
asbag53
(g74
g55
NtRp3013
(dp3014
g58
(dp3015
sg67
g3000
sg60
(lp3016
g53
(g54
g55
NtRp3017
(dp3018
g58
(dp3019
g66
I3
ssg67
g3013
sg60
(lp3020
S''
asbasbasbag53
(g69
g55
NtRp3021
(dp3022
g58
(dp3023
sg67
g2576
sg60
(lp3024
g53
(g74
g55
NtRp3025
(dp3026
g58
(dp3027
g78
g79
ssg67
g3021
sg60
(lp3028
S'SERVER_NAME'
p3029
asbag53
(g74
g55
NtRp3030
(dp3031
g58
(dp3032
g85
g86
ssg67
g3021
sg60
(lp3033
S':'
asbag53
(g74
g55
NtRp3034
(dp3035
g58
(dp3036
sg67
g3021
sg60
(lp3037
g53
(g54
g55
NtRp3038
(dp3039
g58
(dp3040
g66
I3
ssg67
g3034
sg60
(lp3041
g1437
asbasbasbag53
(g69
g55
NtRp3042
(dp3043
g58
(dp3044
sg67
g2576
sg60
(lp3045
g53
(g74
g55
NtRp3046
(dp3047
g58
(dp3048
g78
g79
ssg67
g3042
sg60
(lp3049
S'SERVER_PORT'
p3050
asbag53
(g74
g55
NtRp3051
(dp3052
g58
(dp3053
g85
g86
ssg67
g3042
sg60
(lp3054
S':'
asbag53
(g74
g55
NtRp3055
(dp3056
g58
(dp3057
sg67
g3042
sg60
(lp3058
g53
(g54
g55
NtRp3059
(dp3060
g58
(dp3061
g66
I3
ssg67
g3055
sg60
(lp3062
g1459
asbasbasbag53
(g69
g55
NtRp3063
(dp3064
g58
(dp3065
sg67
g2576
sg60
(lp3066
g53
(g74
g55
NtRp3067
(dp3068
g58
(dp3069
g78
g79
ssg67
g3063
sg60
(lp3070
S'SERVER_PROTOCOL'
p3071
asbag53
(g74
g55
NtRp3072
(dp3073
g58
(dp3074
g85
g86
ssg67
g3063
sg60
(lp3075
S':'
asbag53
(g74
g55
NtRp3076
(dp3077
g58
(dp3078
sg67
g3063
sg60
(lp3079
g53
(g54
g55
NtRp3080
(dp3081
g58
(dp3082
g66
I3
ssg67
g3076
sg60
(lp3083
g1481
asbasbasbag53
(g69
g55
NtRp3084
(dp3085
g58
(dp3086
sg67
g2576
sg60
(lp3087
g53
(g74
g55
NtRp3088
(dp3089
g58
(dp3090
g78
g79
ssg67
g3084
sg60
(lp3091
S'SERVER_SOFTWARE'
p3092
asbag53
(g74
g55
NtRp3093
(dp3094
g58
(dp3095
g85
g86
ssg67
g3084
sg60
(lp3096
S':'
asbag53
(g74
g55
NtRp3097
(dp3098
g58
(dp3099
sg67
g3084
sg60
(lp3100
g53
(g54
g55
NtRp3101
(dp3102
g58
(dp3103
g66
I3
ssg67
g3097
sg60
(lp3104
g1503
asbasbasbag53
(g69
g55
NtRp3105
(dp3106
g58
(dp3107
sg67
g2576
sg60
(lp3108
g53
(g74
g55
NtRp3109
(dp3110
g58
(dp3111
g78
g79
ssg67
g3105
sg60
(lp3112
S'wsgi.errors'
p3113
asbag53
(g74
g55
NtRp3114
(dp3115
g58
(dp3116
g85
g86
ssg67
g3105
sg60
(lp3117
S':'
asbag53
(g74
g55
NtRp3118
(dp3119
g58
(dp3120
sg67
g3105
sg60
(lp3121
g53
(g54
g55
NtRp3122
(dp3123
g58
(dp3124
g66
I3
ssg67
g3118
sg60
(lp3125
S"<open file '<stderr>', mode 'w' at 0x004200B0>"
p3126
asbasbasbag53
(g69
g55
NtRp3127
(dp3128
g58
(dp3129
sg67
g2576
sg60
(lp3130
g53
(g74
g55
NtRp3131
(dp3132
g58
(dp3133
g78
g79
ssg67
g3127
sg60
(lp3134
S'wsgi.file_wrapper'
p3135
asbag53
(g74
g55
NtRp3136
(dp3137
g58
(dp3138
g85
g86
ssg67
g3127
sg60
(lp3139
S':'
asbag53
(g74
g55
NtRp3140
(dp3141
g58
(dp3142
sg67
g3127
sg60
(lp3143
g53
(g54
g55
NtRp3144
(dp3145
g58
(dp3146
g66
I3
ssg67
g3140
sg60
(lp3147
S'<class wsgiref.util.FileWrapper at 0x02E6D360>'
p3148
asbasbasbag53
(g69
g55
NtRp3149
(dp3150
g58
(dp3151
sg67
g2576
sg60
(lp3152
g53
(g74
g55
NtRp3153
(dp3154
g58
(dp3155
g78
g79
ssg67
g3149
sg60
(lp3156
S'wsgi.input'
p3157
asbag53
(g74
g55
NtRp3158
(dp3159
g58
(dp3160
g85
g86
ssg67
g3149
sg60
(lp3161
S':'
asbag53
(g74
g55
NtRp3162
(dp3163
g58
(dp3164
sg67
g3149
sg60
(lp3165
g53
(g54
g55
NtRp3166
(dp3167
g58
(dp3168
g66
I3
ssg67
g3162
sg60
(lp3169
S"<open file '<fdopen>', mode 'w+b' at 0x071FE5C0>"
p3170
asbasbasbag53
(g69
g55
NtRp3171
(dp3172
g58
(dp3173
sg67
g2576
sg60
(lp3174
g53
(g74
g55
NtRp3175
(dp3176
g58
(dp3177
g78
g79
ssg67
g3171
sg60
(lp3178
S'wsgi.multiprocess'
p3179
asbag53
(g74
g55
NtRp3180
(dp3181
g58
(dp3182
g85
g86
ssg67
g3171
sg60
(lp3183
S':'
asbag53
(g74
g55
NtRp3184
(dp3185
g58
(dp3186
sg67
g3171
sg60
(lp3187
g53
(g54
g55
NtRp3188
(dp3189
g58
(dp3190
g66
I3
ssg67
g3184
sg60
(lp3191
g96
asbasbasbag53
(g69
g55
NtRp3192
(dp3193
g58
(dp3194
sg67
g2576
sg60
(lp3195
g53
(g74
g55
NtRp3196
(dp3197
g58
(dp3198
g78
g79
ssg67
g3192
sg60
(lp3199
S'wsgi.multithread'
p3200
asbag53
(g74
g55
NtRp3201
(dp3202
g58
(dp3203
g85
g86
ssg67
g3192
sg60
(lp3204
S':'
asbag53
(g74
g55
NtRp3205
(dp3206
g58
(dp3207
sg67
g3192
sg60
(lp3208
g53
(g54
g55
NtRp3209
(dp3210
g58
(dp3211
g66
I3
ssg67
g3205
sg60
(lp3212
g1743
asbasbasbag53
(g69
g55
NtRp3213
(dp3214
g58
(dp3215
sg67
g2576
sg60
(lp3216
g53
(g74
g55
NtRp3217
(dp3218
g58
(dp3219
g78
g79
ssg67
g3213
sg60
(lp3220
S'wsgi.run_once'
p3221
asbag53
(g74
g55
NtRp3222
(dp3223
g58
(dp3224
g85
g86
ssg67
g3213
sg60
(lp3225
S':'
asbag53
(g74
g55
NtRp3226
(dp3227
g58
(dp3228
sg67
g3213
sg60
(lp3229
g53
(g54
g55
NtRp3230
(dp3231
g58
(dp3232
g66
I3
ssg67
g3226
sg60
(lp3233
g96
asbasbasbag53
(g69
g55
NtRp3234
(dp3235
g58
(dp3236
sg67
g2576
sg60
(lp3237
g53
(g74
g55
NtRp3238
(dp3239
g58
(dp3240
g78
g79
ssg67
g3234
sg60
(lp3241
S'wsgi.url_scheme'
p3242
asbag53
(g74
g55
NtRp3243
(dp3244
g58
(dp3245
g85
g86
ssg67
g3234
sg60
(lp3246
S':'
asbag53
(g74
g55
NtRp3247
(dp3248
g58
(dp3249
sg67
g3234
sg60
(lp3250
g53
(g54
g55
NtRp3251
(dp3252
g58
(dp3253
g66
I3
ssg67
g3247
sg60
(lp3254
g1786
asbasbasbag53
(g69
g55
NtRp3255
(dp3256
g58
(dp3257
sg67
g2576
sg60
(lp3258
g53
(g74
g55
NtRp3259
(dp3260
g58
(dp3261
g78
g79
ssg67
g3255
sg60
(lp3262
S'wsgi.version'
p3263
asbag53
(g74
g55
NtRp3264
(dp3265
g58
(dp3266
g85
g86
ssg67
g3255
sg60
(lp3267
S':'
asbag53
(g74
g55
NtRp3268
(dp3269
g58
(dp3270
sg67
g3255
sg60
(lp3271
g53
(g54
g55
NtRp3272
(dp3273
g58
(dp3274
g66
I3
ssg67
g3268
sg60
(lp3275
S'1'
asbasbasbasbasbasbasbasbasbasbasbasbasbsS'frames'
p3276
(lp3277
(dp3278
S'file'
p3279
S'C:\\Users\\ceasbpi\\Dropbox\\web2py\\gluon\\restricted.py'
p3280
sS'dump'
p3281
(dp3282
sS'lnum'
p3283
I205
sS'lines'
p3284
(dp3285
sS'call'
p3286
S"(code='# -*- coding: utf-8 -*-\\n# this file is released ...\\nresponse._vars=response._caller(atracao_create)\\n', environment={'A': <class 'gluon.html.A'>, 'Auth': <class 'gluon.tools.Auth'>, 'B': <class 'gluon.html.B'>, 'BEAUTIFY': <class 'gluon.html.BEAUTIFY'>, 'BODY': <class 'gluon.html.BODY'>, 'BR': <class 'gluon.html.BR'>, 'BUTTON': <class 'gluon.html.BUTTON'>, 'CAT': <class 'gluon.html.CAT'>, 'CENTER': <class 'gluon.html.CENTER'>, 'CLEANUP': <class 'gluon.validators.CLEANUP'>, ...}, layer=r'C:\\Users\\ceasbpi\\Dropbox\\web2py\\applications\\IguassuPass\\controllers/default.py')"
p3287
sS'func'
p3288
S'restricted'
p3289
sa(dp3290
g3279
S'C:\\Users\\ceasbpi\\Dropbox\\web2py\\applications\\IguassuPass\\controllers\\default.py'
p3291
sg3281
(dp3292
sg3283
I111
sg3284
(dp3293
I100
S'def multimedia_create():'
p3294
sI101
S'    db.multimedia.atracao.default = request.args(0)'
p3295
sI102
S'    form = crud.create(db.multimedia)'
p3296
sI103
S'    return locals()'
p3297
sI104
S''
sI105
S'@auth.requires_login()'
p3298
sI106
S'def multimedia_edit():'
p3299
sI107
S"    multimedia = db.multimedia(request.args(0)) or redirect(URL('atracoes'))"
p3300
sI108
S'    form = crud.update(db.multimedia, multimedia)'
p3301
sI109
S'    return locals()'
p3302
ssg3286
S'()'
p3303
sg3288
S'<module>'
p3304
sa(dp3305
g3279
S'C:\\Users\\ceasbpi\\Dropbox\\web2py\\gluon\\globals.py'
p3306
sg3281
(dp3307
sg3283
I173
sg3284
(dp3308
sg3286
S'(f=<function atracao_create at 0x07701D70>)'
p3309
sg3288
S'<lambda>'
p3310
sa(dp3311
g3279
S'C:\\Users\\ceasbpi\\Dropbox\\web2py\\gluon\\tools.py'
p3312
sg3281
(dp3313
sg3283
I2575
sg3284
(dp3314
sg3286
S'(*a=(), **b={})'
p3315
sg3288
S'f'
sa(dp3316
g3279
S'C:\\Users\\ceasbpi\\Dropbox\\web2py\\applications\\IguassuPass\\controllers\\default.py'
p3317
sg3281
(dp3318
sg3283
I90
sg3284
(dp3319
I85
S'    multimedia = db(db.multimedia.atracoes == atracoes.id).select(orderby= db.multimedia.src)'
p3320
sI86
S'    return locals()'
p3321
sI87
S''
sI88
S'@auth.requires_login()'
p3322
sI89
S'def atracao_create():'
p3323
sI90
S"    form= crud.create(db.atracao, next='atracoes')"
p3324
sI91
S'    return locals()'
p3325
sI92
S''
sI93
S'@auth.requires_login()'
p3326
sI94
S'def atracao_edit():'
p3327
ssg3286
S'()'
p3328
sg3288
S'atracao_create'
p3329
sa(dp3330
g3279
S'C:\\Users\\ceasbpi\\Dropbox\\web2py\\gluon\\tools.py'
p3331
sg3281
(dp3332
sg3283
I3172
sg3284
(dp3333
sg3286
S"(self=<gluon.tools.Crud object at 0x07A1F690>, table=<Table {'ALL': <gluon.dal.SQLALL object at 0x07A... 'desc': <gluon.dal.Field object at 0x07A249F0>}>, next='atracoes', onvalidation=<Storage {}>, onaccept=<Storage {}>, log='Record %(id)s created', message='Record Created', formname=<function <lambda> at 0x03115F30>)"
p3334
sg3288
S'create'
p3335
sa(dp3336
g3279
S'C:\\Users\\ceasbpi\\Dropbox\\web2py\\gluon\\tools.py'
p3337
sg3281
(dp3338
sg3283
I3115
sg3284
(dp3339
sg3286
S"(self=<gluon.tools.Crud object at 0x07A1F690>, table=<Table {'ALL': <gluon.dal.SQLALL object at 0x07A... 'desc': <gluon.dal.Field object at 0x07A249F0>}>, record=None, next='atracoes', onvalidation=[], onaccept=<Storage {}>, ondelete=<Storage {}>, log='Record %(id)s created', message='Record Created', deletable=False, formname=<function <lambda> at 0x03115F30>)"
p3340
sg3288
S'update'
p3341
sa(dp3342
g3279
S'C:\\Users\\ceasbpi\\Dropbox\\web2py\\gluon\\sqlhtml.py'
p3343
sg3281
(dp3344
sg3283
I1089
sg3284
(dp3345
sg3286
S"(self=<gluon.sqlhtml.SQLFORM object at 0x07A88990>, request_vars=<Storage {'nome': 'haha', '_formkey': 'e0ce0cda-..._formname': 'atracao/None', '_next': 'atracoes'}>, session=<Storage {'_formkey[register]': '9f77e4df-b7e0-4...login]': '5a9a6fa5-f963-4e10-8845-00331d366ebc'}>, formname='atracao/None', keepvalues=False, onvalidation=[], dbio=True, hideerror=False, detect_record_change=True)"
p3346
sg3288
S'accepts'
p3347
sa(dp3348
g3279
S'C:\\Users\\ceasbpi\\Dropbox\\web2py\\gluon\\html.py'
p3349
sg3281
(dp3350
sg3283
I1841
sg3284
(dp3351
sg3286
S"(self=<gluon.sqlhtml.SQLFORM object at 0x07A88990>, request_vars=<Storage {'nome': 'haha', '_formkey': 'e0ce0cda-..._formname': 'atracao/None', '_next': 'atracoes'}>, session=<Storage {'_formkey[register]': '9f77e4df-b7e0-4...login]': '5a9a6fa5-f963-4e10-8845-00331d366ebc'}>, formname='atracao/None', keepvalues=False, onvalidation=[], hideerror=False, **kwargs={})"
p3352
sg3288
g3347
sa(dp3353
g3279
S'C:\\Users\\ceasbpi\\Dropbox\\web2py\\gluon\\html.py'
p3354
sg3281
(dp3355
sg3283
I781
sg3284
(dp3356
sg3286
S'(self=<gluon.sqlhtml.SQLFORM object at 0x07A88990>, status=True, hideerror=False)'
p3357
sg3288
S'_traverse'
p3358
sa(dp3359
g3279
S'C:\\Users\\ceasbpi\\Dropbox\\web2py\\gluon\\html.py'
p3360
sg3281
(dp3361
sg3283
I781
sg3284
(dp3362
sg3286
S'(self=<gluon.html.TABLE object at 0x07A88750>, status=True, hideerror=False)'
p3363
sg3288
g3358
sa(dp3364
g3279
S'C:\\Users\\ceasbpi\\Dropbox\\web2py\\gluon\\html.py'
p3365
sg3281
(dp3366
sg3283
I781
sg3284
(dp3367
sg3286
S'(self=<gluon.html.TR object at 0x07A881B0>, status=True, hideerror=False)'
p3368
sg3288
g3358
sa(dp3369
g3279
S'C:\\Users\\ceasbpi\\Dropbox\\web2py\\gluon\\html.py'
p3370
sg3281
(dp3371
sg3283
I781
sg3284
(dp3372
sg3286
S'(self=<gluon.html.TD object at 0x07A88F90>, status=True, hideerror=False)'
p3373
sg3288
g3358
sa(dp3374
g3279
S'C:\\Users\\ceasbpi\\Dropbox\\web2py\\gluon\\html.py'
p3375
sg3281
(dp3376
sg3283
I788
sg3284
(dp3377
sg3286
S'(self=<gluon.html.INPUT object at 0x07A88D50>, status=True, hideerror=False)'
p3378
sg3288
g3358
sa(dp3379
g3279
S'C:\\Users\\ceasbpi\\Dropbox\\web2py\\gluon\\html.py'
p3380
sg3281
(dp3381
sg3283
I1606
sg3284
(dp3382
sg3286
S'(self=<gluon.html.INPUT object at 0x07A88D50>)'
p3383
sg3288
S'_validate'
p3384
sa(dp3385
g3279
S'C:\\Users\\ceasbpi\\Dropbox\\web2py\\gluon\\validators.py'
p3386
sg3281
(dp3387
sg3283
I546
sg3284
(dp3388
sg3286
S"(self=<gluon.validators.IS_NOT_IN_DB object at 0x07A249D0>, value='haha')"
p3389
sg3288
S'__call__'
p3390
sa(dp3391
g3279
S'C:\\Users\\ceasbpi\\Dropbox\\web2py\\gluon\\dal.py'
p3392
sg3281
(dp3393
sg3283
I7578
sg3284
(dp3394
sg3286
S"(self=<gluon.dal.Set object at 0x07A885B0>, *fields=[<gluon.dal.Field object at 0x07A24610>, <gluon.dal.Field object at 0x07A24AF0>, <gluon.dal.Field object at 0x07A249F0>], **attributes={'limitby': (0, 1)})"
p3395
sg3288
S'select'
p3396
sa(dp3397
g3279
S'C:\\Users\\ceasbpi\\Dropbox\\web2py\\gluon\\dal.py'
p3398
sg3281
(dp3399
sg3283
I1315
sg3284
(dp3400
sg3286
S"(self=<gluon.dal.SQLiteAdapter object at 0x07A1FEB0>, query=<gluon.dal.Query object at 0x07A888D0>, fields=[<gluon.dal.Field object at 0x07A24610>, <gluon.dal.Field object at 0x07A24AF0>, <gluon.dal.Field object at 0x07A249F0>], attributes={'limitby': (0, 1)})"
p3401
sg3288
g3396
sa(dp3402
g3279
S'C:\\Users\\ceasbpi\\Dropbox\\web2py\\gluon\\dal.py'
p3403
sg3281
(dp3404
sg3283
I1305
sg3284
(dp3405
sg3286
S'(sql="SELECT  atracao.id, atracao.nome, atracao.desc F...e = \'haha\') ORDER BY atracao.id LIMIT 1 OFFSET 0;")'
p3406
sg3288
S'response'
p3407
sa(dp3408
g3279
S'C:\\Users\\ceasbpi\\Dropbox\\web2py\\gluon\\dal.py'
p3409
sg3281
(dp3410
sg3283
I1392
sg3284
(dp3411
sg3286
S'(self=<gluon.dal.SQLiteAdapter object at 0x07A1FEB0>, *a=("SELECT  atracao.id, atracao.nome, atracao.desc F...e = \'haha\') ORDER BY atracao.id LIMIT 1 OFFSET 0;",), **b={})'
p3412
sg3288
S'execute'
p3413
sa(dp3414
g3279
S'C:\\Users\\ceasbpi\\Dropbox\\web2py\\gluon\\dal.py'
p3415
sg3281
(dp3416
sg3283
I1386
sg3284
(dp3417
sg3286
S'(self=<gluon.dal.SQLiteAdapter object at 0x07A1FEB0>, *a=("SELECT  atracao.id, atracao.nome, atracao.desc F...e = \'haha\') ORDER BY atracao.id LIMIT 1 OFFSET 0;",), **b={})'
p3418
sg3288
S'log_execute'
p3419
sasS'pyver'
p3420
S'Python 2.5.4: C:\\Users\\ceasbpi\\Dropbox\\web2py\\web2py.exe'
p3421
sS'session'
p3422
g53
(g54
g55
NtRp3423
(dp3424
g58
(dp3425
sg60
(lp3426
g53
(g62
g55
NtRp3427
(dp3428
g58
(dp3429
g66
I5
ssg67
Nsg60
(lp3430
g53
(g69
g55
NtRp3431
(dp3432
g58
(dp3433
sg67
g3427
sg60
(lp3434
g53
(g74
g55
NtRp3435
(dp3436
g58
(dp3437
g78
g79
ssg67
g3431
sg60
(lp3438
S'auth'
p3439
asbag53
(g74
g55
NtRp3440
(dp3441
g58
(dp3442
g85
g86
ssg67
g3431
sg60
(lp3443
S':'
asbag53
(g74
g55
NtRp3444
(dp3445
g58
(dp3446
sg67
g3431
sg60
(lp3447
g53
(g54
g55
NtRp3448
(dp3449
g58
(dp3450
g66
I5
ssg67
g3444
sg60
(lp3451
g53
(g62
g55
NtRp3452
(dp3453
g58
(dp3454
g66
I4
ssg67
Nsg60
(lp3455
g53
(g69
g55
NtRp3456
(dp3457
g58
(dp3458
sg67
g3452
sg60
(lp3459
g53
(g74
g55
NtRp3460
(dp3461
g58
(dp3462
g78
g79
ssg67
g3456
sg60
(lp3463
S'expiration'
p3464
asbag53
(g74
g55
NtRp3465
(dp3466
g58
(dp3467
g85
g86
ssg67
g3456
sg60
(lp3468
S':'
asbag53
(g74
g55
NtRp3469
(dp3470
g58
(dp3471
sg67
g3456
sg60
(lp3472
g53
(g54
g55
NtRp3473
(dp3474
g58
(dp3475
g66
I4
ssg67
g3469
sg60
(lp3476
S'3600'
p3477
asbasbasbag53
(g69
g55
NtRp3478
(dp3479
g58
(dp3480
sg67
g3452
sg60
(lp3481
g53
(g74
g55
NtRp3482
(dp3483
g58
(dp3484
g78
g79
ssg67
g3478
sg60
(lp3485
S'hmac_key'
p3486
asbag53
(g74
g55
NtRp3487
(dp3488
g58
(dp3489
g85
g86
ssg67
g3478
sg60
(lp3490
S':'
asbag53
(g74
g55
NtRp3491
(dp3492
g58
(dp3493
sg67
g3478
sg60
(lp3494
g53
(g54
g55
NtRp3495
(dp3496
g58
(dp3497
g66
I4
ssg67
g3491
sg60
(lp3498
S'8fe52114-4a16-4d34-86ee-07e1ef1b8084'
p3499
asbasbasbag53
(g69
g55
NtRp3500
(dp3501
g58
(dp3502
sg67
g3452
sg60
(lp3503
g53
(g74
g55
NtRp3504
(dp3505
g58
(dp3506
g78
g79
ssg67
g3500
sg60
(lp3507
S'last_visit'
p3508
asbag53
(g74
g55
NtRp3509
(dp3510
g58
(dp3511
g85
g86
ssg67
g3500
sg60
(lp3512
S':'
asbag53
(g74
g55
NtRp3513
(dp3514
g58
(dp3515
sg67
g3500
sg60
(lp3516
g53
(g54
g55
NtRp3517
(dp3518
g58
(dp3519
g66
I4
ssg67
g3513
sg60
(lp3520
S'datetime.datetime(2012, 8, 30, 9, 53, 38, 601000)'
p3521
asbasbasbag53
(g69
g55
NtRp3522
(dp3523
g58
(dp3524
sg67
g3452
sg60
(lp3525
g53
(g74
g55
NtRp3526
(dp3527
g58
(dp3528
g78
g79
ssg67
g3522
sg60
(lp3529
S'user'
p3530
asbag53
(g74
g55
NtRp3531
(dp3532
g58
(dp3533
g85
g86
ssg67
g3522
sg60
(lp3534
S':'
asbag53
(g74
g55
NtRp3535
(dp3536
g58
(dp3537
sg67
g3522
sg60
(lp3538
g53
(g54
g55
NtRp3539
(dp3540
g58
(dp3541
g66
I4
ssg67
g3535
sg60
(lp3542
g53
(g62
g55
NtRp3543
(dp3544
g58
(dp3545
g66
I3
ssg67
Nsg60
(lp3546
g53
(g69
g55
NtRp3547
(dp3548
g58
(dp3549
sg67
g3543
sg60
(lp3550
g53
(g74
g55
NtRp3551
(dp3552
g58
(dp3553
g78
g79
ssg67
g3547
sg60
(lp3554
S'email'
p3555
asbag53
(g74
g55
NtRp3556
(dp3557
g58
(dp3558
g85
g86
ssg67
g3547
sg60
(lp3559
S':'
asbag53
(g74
g55
NtRp3560
(dp3561
g58
(dp3562
sg67
g3547
sg60
(lp3563
g53
(g54
g55
NtRp3564
(dp3565
g58
(dp3566
g66
I3
ssg67
g3560
sg60
(lp3567
S'admin@admin.com'
p3568
asbasbasbag53
(g69
g55
NtRp3569
(dp3570
g58
(dp3571
sg67
g3543
sg60
(lp3572
g53
(g74
g55
NtRp3573
(dp3574
g58
(dp3575
g78
g79
ssg67
g3569
sg60
(lp3576
S'first_name'
p3577
asbag53
(g74
g55
NtRp3578
(dp3579
g58
(dp3580
g85
g86
ssg67
g3569
sg60
(lp3581
S':'
asbag53
(g74
g55
NtRp3582
(dp3583
g58
(dp3584
sg67
g3569
sg60
(lp3585
g53
(g54
g55
NtRp3586
(dp3587
g58
(dp3588
g66
I3
ssg67
g3582
sg60
(lp3589
S'admin'
p3590
asbasbasbag53
(g69
g55
NtRp3591
(dp3592
g58
(dp3593
sg67
g3543
sg60
(lp3594
g53
(g74
g55
NtRp3595
(dp3596
g58
(dp3597
g78
g79
ssg67
g3591
sg60
(lp3598
S'id'
p3599
asbag53
(g74
g55
NtRp3600
(dp3601
g58
(dp3602
g85
g86
ssg67
g3591
sg60
(lp3603
S':'
asbag53
(g74
g55
NtRp3604
(dp3605
g58
(dp3606
sg67
g3591
sg60
(lp3607
g53
(g54
g55
NtRp3608
(dp3609
g58
(dp3610
g66
I3
ssg67
g3604
sg60
(lp3611
S'2'
asbasbasbag53
(g69
g55
NtRp3612
(dp3613
g58
(dp3614
sg67
g3543
sg60
(lp3615
g53
(g74
g55
NtRp3616
(dp3617
g58
(dp3618
g78
g79
ssg67
g3612
sg60
(lp3619
S'last_name'
p3620
asbag53
(g74
g55
NtRp3621
(dp3622
g58
(dp3623
g85
g86
ssg67
g3612
sg60
(lp3624
S':'
asbag53
(g74
g55
NtRp3625
(dp3626
g58
(dp3627
sg67
g3612
sg60
(lp3628
g53
(g54
g55
NtRp3629
(dp3630
g58
(dp3631
g66
I3
ssg67
g3625
sg60
(lp3632
S'de oliveira'
p3633
asbasbasbag53
(g69
g55
NtRp3634
(dp3635
g58
(dp3636
sg67
g3543
sg60
(lp3637
g53
(g74
g55
NtRp3638
(dp3639
g58
(dp3640
g78
g79
ssg67
g3634
sg60
(lp3641
S'password'
p3642
asbag53
(g74
g55
NtRp3643
(dp3644
g58
(dp3645
g85
g86
ssg67
g3634
sg60
(lp3646
S':'
asbag53
(g74
g55
NtRp3647
(dp3648
g58
(dp3649
sg67
g3634
sg60
(lp3650
g53
(g54
g55
NtRp3651
(dp3652
g58
(dp3653
g66
I3
ssg67
g3647
sg60
(lp3654
S'7fbb689eb65efc2020735b0b71b00247'
p3655
asbasbasbag53
(g69
g55
NtRp3656
(dp3657
g58
(dp3658
sg67
g3543
sg60
(lp3659
g53
(g74
g55
NtRp3660
(dp3661
g58
(dp3662
g78
g79
ssg67
g3656
sg60
(lp3663
S'registration_id'
p3664
asbag53
(g74
g55
NtRp3665
(dp3666
g58
(dp3667
g85
g86
ssg67
g3656
sg60
(lp3668
S':'
asbag53
(g74
g55
NtRp3669
(dp3670
g58
(dp3671
sg67
g3656
sg60
(lp3672
g53
(g54
g55
NtRp3673
(dp3674
g58
(dp3675
g66
I3
ssg67
g3669
sg60
(lp3676
S''
asbasbasbag53
(g69
g55
NtRp3677
(dp3678
g58
(dp3679
sg67
g3543
sg60
(lp3680
g53
(g74
g55
NtRp3681
(dp3682
g58
(dp3683
g78
g79
ssg67
g3677
sg60
(lp3684
S'registration_key'
p3685
asbag53
(g74
g55
NtRp3686
(dp3687
g58
(dp3688
g85
g86
ssg67
g3677
sg60
(lp3689
S':'
asbag53
(g74
g55
NtRp3690
(dp3691
g58
(dp3692
sg67
g3677
sg60
(lp3693
g53
(g54
g55
NtRp3694
(dp3695
g58
(dp3696
g66
I3
ssg67
g3690
sg60
(lp3697
S''
asbasbasbag53
(g69
g55
NtRp3698
(dp3699
g58
(dp3700
sg67
g3543
sg60
(lp3701
g53
(g74
g55
NtRp3702
(dp3703
g58
(dp3704
g78
g79
ssg67
g3698
sg60
(lp3705
S'reset_password_key'
p3706
asbag53
(g74
g55
NtRp3707
(dp3708
g58
(dp3709
g85
g86
ssg67
g3698
sg60
(lp3710
S':'
asbag53
(g74
g55
NtRp3711
(dp3712
g58
(dp3713
sg67
g3698
sg60
(lp3714
g53
(g54
g55
NtRp3715
(dp3716
g58
(dp3717
g66
I3
ssg67
g3711
sg60
(lp3718
S''
asbasbasbasbasbasbasbag53
(g69
g55
NtRp3719
(dp3720
g58
(dp3721
sg67
g3452
sg60
(lp3722
g53
(g74
g55
NtRp3723
(dp3724
g58
(dp3725
g78
g79
ssg67
g3719
sg60
(lp3726
S'user_groups'
p3727
asbag53
(g74
g55
NtRp3728
(dp3729
g58
(dp3730
g85
g86
ssg67
g3719
sg60
(lp3731
S':'
asbag53
(g74
g55
NtRp3732
(dp3733
g58
(dp3734
sg67
g3719
sg60
(lp3735
g53
(g54
g55
NtRp3736
(dp3737
g58
(dp3738
g66
I4
ssg67
g3732
sg60
(lp3739
g53
(g62
g55
NtRp3740
(dp3741
g58
(dp3742
g66
I3
ssg67
Nsg60
(lp3743
g53
(g69
g55
NtRp3744
(dp3745
g58
(dp3746
sg67
g3740
sg60
(lp3747
g53
(g74
g55
NtRp3748
(dp3749
g58
(dp3750
g78
g79
ssg67
g3744
sg60
(lp3751
S'2'
asbag53
(g74
g55
NtRp3752
(dp3753
g58
(dp3754
g85
g86
ssg67
g3744
sg60
(lp3755
S':'
asbag53
(g74
g55
NtRp3756
(dp3757
g58
(dp3758
sg67
g3744
sg60
(lp3759
g53
(g54
g55
NtRp3760
(dp3761
g58
(dp3762
g66
I3
ssg67
g3756
sg60
(lp3763
S'user_2'
p3764
asbasbasbasbasbasbasbasbasbasbasbasbasbsS'etype'
p3765
S"<class 'sqlite3.OperationalError'>"
p3766
sS'date'
p3767
S'Thu Aug 30 09:53:50 2012'
p3768
sg3407
g53
(g54
g55
NtRp3769
(dp3770
g58
(dp3771
sg60
(lp3772
g53
(g62
g55
NtRp3773
(dp3774
g58
(dp3775
g66
I5
ssg67
Nsg60
(lp3776
g53
(g69
g55
NtRp3777
(dp3778
g58
(dp3779
sg67
g3773
sg60
(lp3780
g53
(g74
g55
NtRp3781
(dp3782
g58
(dp3783
g78
g79
ssg67
g3777
sg60
(lp3784
g151
asbag53
(g74
g55
NtRp3785
(dp3786
g58
(dp3787
g85
g86
ssg67
g3777
sg60
(lp3788
S':'
asbag53
(g74
g55
NtRp3789
(dp3790
g58
(dp3791
sg67
g3777
sg60
(lp3792
g53
(g54
g55
NtRp3793
(dp3794
g58
(dp3795
g66
I5
ssg67
g3789
sg60
(lp3796
S'<cStringIO.StringO object at 0x07A78960>'
p3797
asbasbasbag53
(g69
g55
NtRp3798
(dp3799
g58
(dp3800
sg67
g3773
sg60
(lp3801
g53
(g74
g55
NtRp3802
(dp3803
g58
(dp3804
g78
g79
ssg67
g3798
sg60
(lp3805
g217
asbag53
(g74
g55
NtRp3806
(dp3807
g58
(dp3808
g85
g86
ssg67
g3798
sg60
(lp3809
S':'
asbag53
(g74
g55
NtRp3810
(dp3811
g58
(dp3812
sg67
g3798
sg60
(lp3813
g53
(g54
g55
NtRp3814
(dp3815
g58
(dp3816
g66
I5
ssg67
g3810
sg60
(lp3817
g53
(g62
g55
NtRp3818
(dp3819
g58
(dp3820
g66
I4
ssg67
Nsg60
(lp3821
g53
(g69
g55
NtRp3822
(dp3823
g58
(dp3824
sg67
g3818
sg60
(lp3825
g53
(g74
g55
NtRp3826
(dp3827
g58
(dp3828
g78
g79
ssg67
g3822
sg60
(lp3829
S'session_id_iguassupass'
p3830
asbag53
(g74
g55
NtRp3831
(dp3832
g58
(dp3833
g85
g86
ssg67
g3822
sg60
(lp3834
S':'
asbag53
(g74
g55
NtRp3835
(dp3836
g58
(dp3837
sg67
g3822
sg60
(lp3838
g53
(g54
g55
NtRp3839
(dp3840
g58
(dp3841
g66
I4
ssg67
g3835
sg60
(lp3842
g53
(g62
g55
NtRp3843
(dp3844
g58
(dp3845
g66
I3
ssg67
Nsg60
(lp3846
g53
(g69
g55
NtRp3847
(dp3848
g58
(dp3849
sg67
g3843
sg60
(lp3850
g53
(g74
g55
NtRp3851
(dp3852
g58
(dp3853
g78
g79
ssg67
g3847
sg60
(lp3854
g267
asbag53
(g74
g55
NtRp3855
(dp3856
g58
(dp3857
g85
g86
ssg67
g3847
sg60
(lp3858
S':'
asbag53
(g74
g55
NtRp3859
(dp3860
g58
(dp3861
sg67
g3847
sg60
(lp3862
g53
(g54
g55
NtRp3863
(dp3864
g58
(dp3865
g66
I3
ssg67
g3859
sg60
(lp3866
S''
asbasbasbag53
(g69
g55
NtRp3867
(dp3868
g58
(dp3869
sg67
g3843
sg60
(lp3870
g53
(g74
g55
NtRp3871
(dp3872
g58
(dp3873
g78
g79
ssg67
g3867
sg60
(lp3874
g288
asbag53
(g74
g55
NtRp3875
(dp3876
g58
(dp3877
g85
g86
ssg67
g3867
sg60
(lp3878
S':'
asbag53
(g74
g55
NtRp3879
(dp3880
g58
(dp3881
sg67
g3867
sg60
(lp3882
g53
(g54
g55
NtRp3883
(dp3884
g58
(dp3885
g66
I3
ssg67
g3879
sg60
(lp3886
S''
asbasbasbag53
(g69
g55
NtRp3887
(dp3888
g58
(dp3889
sg67
g3843
sg60
(lp3890
g53
(g74
g55
NtRp3891
(dp3892
g58
(dp3893
g78
g79
ssg67
g3887
sg60
(lp3894
g309
asbag53
(g74
g55
NtRp3895
(dp3896
g58
(dp3897
g85
g86
ssg67
g3887
sg60
(lp3898
S':'
asbag53
(g74
g55
NtRp3899
(dp3900
g58
(dp3901
sg67
g3887
sg60
(lp3902
g53
(g54
g55
NtRp3903
(dp3904
g58
(dp3905
g66
I3
ssg67
g3899
sg60
(lp3906
S''
asbasbasbag53
(g69
g55
NtRp3907
(dp3908
g58
(dp3909
sg67
g3843
sg60
(lp3910
g53
(g74
g55
NtRp3911
(dp3912
g58
(dp3913
g78
g79
ssg67
g3907
sg60
(lp3914
g330
asbag53
(g74
g55
NtRp3915
(dp3916
g58
(dp3917
g85
g86
ssg67
g3907
sg60
(lp3918
S':'
asbag53
(g74
g55
NtRp3919
(dp3920
g58
(dp3921
sg67
g3907
sg60
(lp3922
g53
(g54
g55
NtRp3923
(dp3924
g58
(dp3925
g66
I3
ssg67
g3919
sg60
(lp3926
S''
asbasbasbag53
(g69
g55
NtRp3927
(dp3928
g58
(dp3929
sg67
g3843
sg60
(lp3930
g53
(g74
g55
NtRp3931
(dp3932
g58
(dp3933
g78
g79
ssg67
g3927
sg60
(lp3934
g351
asbag53
(g74
g55
NtRp3935
(dp3936
g58
(dp3937
g85
g86
ssg67
g3927
sg60
(lp3938
S':'
asbag53
(g74
g55
NtRp3939
(dp3940
g58
(dp3941
sg67
g3927
sg60
(lp3942
g53
(g54
g55
NtRp3943
(dp3944
g58
(dp3945
g66
I3
ssg67
g3939
sg60
(lp3946
S'/'
asbasbasbag53
(g69
g55
NtRp3947
(dp3948
g58
(dp3949
sg67
g3843
sg60
(lp3950
g53
(g74
g55
NtRp3951
(dp3952
g58
(dp3953
g78
g79
ssg67
g3947
sg60
(lp3954
g372
asbag53
(g74
g55
NtRp3955
(dp3956
g58
(dp3957
g85
g86
ssg67
g3947
sg60
(lp3958
S':'
asbag53
(g74
g55
NtRp3959
(dp3960
g58
(dp3961
sg67
g3947
sg60
(lp3962
g53
(g54
g55
NtRp3963
(dp3964
g58
(dp3965
g66
I3
ssg67
g3959
sg60
(lp3966
S''
asbasbasbag53
(g69
g55
NtRp3967
(dp3968
g58
(dp3969
sg67
g3843
sg60
(lp3970
g53
(g74
g55
NtRp3971
(dp3972
g58
(dp3973
g78
g79
ssg67
g3967
sg60
(lp3974
g393
asbag53
(g74
g55
NtRp3975
(dp3976
g58
(dp3977
g85
g86
ssg67
g3967
sg60
(lp3978
S':'
asbag53
(g74
g55
NtRp3979
(dp3980
g58
(dp3981
sg67
g3967
sg60
(lp3982
g53
(g54
g55
NtRp3983
(dp3984
g58
(dp3985
g66
I3
ssg67
g3979
sg60
(lp3986
S''
asbasbasbasbasbasbasbasbasbasbasbag53
(g69
g55
NtRp3987
(dp3988
g58
(dp3989
sg67
g3773
sg60
(lp3990
g53
(g74
g55
NtRp3991
(dp3992
g58
(dp3993
g78
g79
ssg67
g3987
sg60
(lp3994
S'delimiters'
p3995
asbag53
(g74
g55
NtRp3996
(dp3997
g58
(dp3998
g85
g86
ssg67
g3987
sg60
(lp3999
S':'
asbag53
(g74
g55
NtRp4000
(dp4001
g58
(dp4002
sg67
g3987
sg60
(lp4003
g53
(g54
g55
NtRp4004
(dp4005
g58
(dp4006
g66
I5
ssg67
g4000
sg60
(lp4007
g53
(g62
g55
NtRp4008
(dp4009
g58
(dp4010
g66
I4
ssg67
Nsg60
(lp4011
g53
(g69
g55
NtRp4012
(dp4013
g58
(dp4014
sg67
g4008
sg60
(lp4015
g53
(g74
g55
NtRp4016
(dp4017
g58
(dp4018
sg67
g4012
sg60
(lp4019
g53
(g54
g55
NtRp4020
(dp4021
g58
(dp4022
g66
I4
ssg67
g4016
sg60
(lp4023
S'{{'
p4024
asbasbasbag53
(g69
g55
NtRp4025
(dp4026
g58
(dp4027
sg67
g4008
sg60
(lp4028
g53
(g74
g55
NtRp4029
(dp4030
g58
(dp4031
sg67
g4025
sg60
(lp4032
g53
(g54
g55
NtRp4033
(dp4034
g58
(dp4035
g66
I4
ssg67
g4029
sg60
(lp4036
S'}}'
p4037
asbasbasbasbasbasbasbag53
(g69
g55
NtRp4038
(dp4039
g58
(dp4040
sg67
g3773
sg60
(lp4041
g53
(g74
g55
NtRp4042
(dp4043
g58
(dp4044
g78
g79
ssg67
g4038
sg60
(lp4045
S'files'
p4046
asbag53
(g74
g55
NtRp4047
(dp4048
g58
(dp4049
g85
g86
ssg67
g4038
sg60
(lp4050
S':'
asbag53
(g74
g55
NtRp4051
(dp4052
g58
(dp4053
sg67
g4038
sg60
(lp4054
g53
(g54
g55
NtRp4055
(dp4056
g58
(dp4057
g66
I5
ssg67
g4051
sg60
(lp4058
g53
(g62
g55
NtRp4059
(dp4060
g58
(dp4061
g66
I4
ssg67
Nsg60
(lp4062
sbasbasbasbag53
(g69
g55
NtRp4063
(dp4064
g58
(dp4065
sg67
g3773
sg60
(lp4066
g53
(g74
g55
NtRp4067
(dp4068
g58
(dp4069
g78
g79
ssg67
g4063
sg60
(lp4070
S'flash'
p4071
asbag53
(g74
g55
NtRp4072
(dp4073
g58
(dp4074
g85
g86
ssg67
g4063
sg60
(lp4075
S':'
asbag53
(g74
g55
NtRp4076
(dp4077
g58
(dp4078
sg67
g4063
sg60
(lp4079
g53
(g54
g55
NtRp4080
(dp4081
g58
(dp4082
g66
I5
ssg67
g4076
sg60
(lp4083
S''
asbasbasbag53
(g69
g55
NtRp4084
(dp4085
g58
(dp4086
sg67
g3773
sg60
(lp4087
g53
(g74
g55
NtRp4088
(dp4089
g58
(dp4090
g78
g79
ssg67
g4084
sg60
(lp4091
S'generic_patterns'
p4092
asbag53
(g74
g55
NtRp4093
(dp4094
g58
(dp4095
g85
g86
ssg67
g4084
sg60
(lp4096
S':'
asbag53
(g74
g55
NtRp4097
(dp4098
g58
(dp4099
sg67
g4084
sg60
(lp4100
g53
(g54
g55
NtRp4101
(dp4102
g58
(dp4103
g66
I5
ssg67
g4097
sg60
(lp4104
g53
(g62
g55
NtRp4105
(dp4106
g58
(dp4107
g66
I4
ssg67
Nsg60
(lp4108
g53
(g69
g55
NtRp4109
(dp4110
g58
(dp4111
sg67
g4105
sg60
(lp4112
g53
(g74
g55
NtRp4113
(dp4114
g58
(dp4115
sg67
g4109
sg60
(lp4116
g53
(g54
g55
NtRp4117
(dp4118
g58
(dp4119
g66
I4
ssg67
g4113
sg60
(lp4120
S'*'
asbasbasbasbasbasbasbag53
(g69
g55
NtRp4121
(dp4122
g58
(dp4123
sg67
g3773
sg60
(lp4124
g53
(g74
g55
NtRp4125
(dp4126
g58
(dp4127
g78
g79
ssg67
g4121
sg60
(lp4128
S'headers'
p4129
asbag53
(g74
g55
NtRp4130
(dp4131
g58
(dp4132
g85
g86
ssg67
g4121
sg60
(lp4133
S':'
asbag53
(g74
g55
NtRp4134
(dp4135
g58
(dp4136
sg67
g4121
sg60
(lp4137
g53
(g54
g55
NtRp4138
(dp4139
g58
(dp4140
g66
I5
ssg67
g4134
sg60
(lp4141
g53
(g62
g55
NtRp4142
(dp4143
g58
(dp4144
g66
I4
ssg67
Nsg60
(lp4145
g53
(g69
g55
NtRp4146
(dp4147
g58
(dp4148
sg67
g4142
sg60
(lp4149
g53
(g74
g55
NtRp4150
(dp4151
g58
(dp4152
g78
g79
ssg67
g4146
sg60
(lp4153
S'Cache-Control'
p4154
asbag53
(g74
g55
NtRp4155
(dp4156
g58
(dp4157
g85
g86
ssg67
g4146
sg60
(lp4158
S':'
asbag53
(g74
g55
NtRp4159
(dp4160
g58
(dp4161
sg67
g4146
sg60
(lp4162
g53
(g54
g55
NtRp4163
(dp4164
g58
(dp4165
g66
I4
ssg67
g4159
sg60
(lp4166
S'no-store, no-cache, must-revalidate, post-check=0, pre-check=0'
p4167
asbasbasbag53
(g69
g55
NtRp4168
(dp4169
g58
(dp4170
sg67
g4142
sg60
(lp4171
g53
(g74
g55
NtRp4172
(dp4173
g58
(dp4174
g78
g79
ssg67
g4168
sg60
(lp4175
S'Content-Type'
p4176
asbag53
(g74
g55
NtRp4177
(dp4178
g58
(dp4179
g85
g86
ssg67
g4168
sg60
(lp4180
S':'
asbag53
(g74
g55
NtRp4181
(dp4182
g58
(dp4183
sg67
g4168
sg60
(lp4184
g53
(g54
g55
NtRp4185
(dp4186
g58
(dp4187
g66
I4
ssg67
g4181
sg60
(lp4188
S'text/html; charset=utf-8'
p4189
asbasbasbag53
(g69
g55
NtRp4190
(dp4191
g58
(dp4192
sg67
g4142
sg60
(lp4193
g53
(g74
g55
NtRp4194
(dp4195
g58
(dp4196
g78
g79
ssg67
g4190
sg60
(lp4197
S'Expires'
p4198
asbag53
(g74
g55
NtRp4199
(dp4200
g58
(dp4201
g85
g86
ssg67
g4190
sg60
(lp4202
S':'
asbag53
(g74
g55
NtRp4203
(dp4204
g58
(dp4205
sg67
g4190
sg60
(lp4206
g53
(g54
g55
NtRp4207
(dp4208
g58
(dp4209
g66
I4
ssg67
g4203
sg60
(lp4210
S'Thu, 30 Aug 2012 12:53:50 GMT'
p4211
asbasbasbag53
(g69
g55
NtRp4212
(dp4213
g58
(dp4214
sg67
g4142
sg60
(lp4215
g53
(g74
g55
NtRp4216
(dp4217
g58
(dp4218
g78
g79
ssg67
g4212
sg60
(lp4219
S'Pragma'
p4220
asbag53
(g74
g55
NtRp4221
(dp4222
g58
(dp4223
g85
g86
ssg67
g4212
sg60
(lp4224
S':'
asbag53
(g74
g55
NtRp4225
(dp4226
g58
(dp4227
sg67
g4212
sg60
(lp4228
g53
(g54
g55
NtRp4229
(dp4230
g58
(dp4231
g66
I4
ssg67
g4225
sg60
(lp4232
S'no-cache'
p4233
asbasbasbag53
(g69
g55
NtRp4234
(dp4235
g58
(dp4236
sg67
g4142
sg60
(lp4237
g53
(g74
g55
NtRp4238
(dp4239
g58
(dp4240
g78
g79
ssg67
g4234
sg60
(lp4241
S'X-Powered-By'
p4242
asbag53
(g74
g55
NtRp4243
(dp4244
g58
(dp4245
g85
g86
ssg67
g4234
sg60
(lp4246
S':'
asbag53
(g74
g55
NtRp4247
(dp4248
g58
(dp4249
sg67
g4234
sg60
(lp4250
g53
(g54
g55
NtRp4251
(dp4252
g58
(dp4253
g66
I4
ssg67
g4247
sg60
(lp4254
S'web2py'
p4255
asbasbasbasbasbasbasbag53
(g69
g55
NtRp4256
(dp4257
g58
(dp4258
sg67
g3773
sg60
(lp4259
g53
(g74
g55
NtRp4260
(dp4261
g58
(dp4262
g78
g79
ssg67
g4256
sg60
(lp4263
S'menu'
p4264
asbag53
(g74
g55
NtRp4265
(dp4266
g58
(dp4267
g85
g86
ssg67
g4256
sg60
(lp4268
S':'
asbag53
(g74
g55
NtRp4269
(dp4270
g58
(dp4271
sg67
g4256
sg60
(lp4272
g53
(g54
g55
NtRp4273
(dp4274
g58
(dp4275
g66
I5
ssg67
g4269
sg60
(lp4276
g53
(g62
g55
NtRp4277
(dp4278
g58
(dp4279
g66
I4
ssg67
Nsg60
(lp4280
g53
(g69
g55
NtRp4281
(dp4282
g58
(dp4283
sg67
g4277
sg60
(lp4284
g53
(g74
g55
NtRp4285
(dp4286
g58
(dp4287
sg67
g4281
sg60
(lp4288
g53
(g54
g55
NtRp4289
(dp4290
g58
(dp4291
g66
I4
ssg67
g4285
sg60
(lp4292
g53
(g62
g55
NtRp4293
(dp4294
g58
(dp4295
g66
I3
ssg67
Nsg60
(lp4296
g53
(g69
g55
NtRp4297
(dp4298
g58
(dp4299
sg67
g4293
sg60
(lp4300
g53
(g74
g55
NtRp4301
(dp4302
g58
(dp4303
sg67
g4297
sg60
(lp4304
g53
(g54
g55
NtRp4305
(dp4306
g58
(dp4307
g66
I3
ssg67
g4301
sg60
(lp4308
cgluon.languages
lazyT_unpickle
p4309
(S't\x04\x00\x00\x00Home'
tRp4310
asbasbasbag53
(g69
g55
NtRp4311
(dp4312
g58
(dp4313
sg67
g4293
sg60
(lp4314
g53
(g74
g55
NtRp4315
(dp4316
g58
(dp4317
sg67
g4311
sg60
(lp4318
g53
(g54
g55
NtRp4319
(dp4320
g58
(dp4321
g66
I3
ssg67
g4315
sg60
(lp4322
g96
asbasbasbag53
(g69
g55
NtRp4323
(dp4324
g58
(dp4325
sg67
g4293
sg60
(lp4326
g53
(g74
g55
NtRp4327
(dp4328
g58
(dp4329
sg67
g4323
sg60
(lp4330
g53
(g54
g55
NtRp4331
(dp4332
g58
(dp4333
g66
I3
ssg67
g4327
sg60
(lp4334
S'/IguassuPass/default/index'
p4335
asbasbasbag53
(g69
g55
NtRp4336
(dp4337
g58
(dp4338
sg67
g4293
sg60
(lp4339
g53
(g74
g55
NtRp4340
(dp4341
g58
(dp4342
sg67
g4336
sg60
(lp4343
g53
(g54
g55
NtRp4344
(dp4345
g58
(dp4346
g66
I3
ssg67
g4340
sg60
(lp4347
g53
(g62
g55
NtRp4348
(dp4349
g58
(dp4350
g66
I2
ssg67
Nsg60
(lp4351
sbasbasbasbasbasbasbasbag53
(g69
g55
NtRp4352
(dp4353
g58
(dp4354
sg67
g4277
sg60
(lp4355
g53
(g74
g55
NtRp4356
(dp4357
g58
(dp4358
sg67
g4352
sg60
(lp4359
g53
(g54
g55
NtRp4360
(dp4361
g58
(dp4362
g66
I4
ssg67
g4356
sg60
(lp4363
g53
(g62
g55
NtRp4364
(dp4365
g58
(dp4366
g66
I3
ssg67
Nsg60
(lp4367
g53
(g69
g55
NtRp4368
(dp4369
g58
(dp4370
sg67
g4364
sg60
(lp4371
g53
(g74
g55
NtRp4372
(dp4373
g58
(dp4374
sg67
g4368
sg60
(lp4375
g53
(g54
g55
NtRp4376
(dp4377
g58
(dp4378
g66
I3
ssg67
g4372
sg60
(lp4379
g53
(cgluon.html
SPAN
p4380
g55
NtRp4381
(dp4382
g58
(dp4383
g78
S'color:yellow'
p4384
ssg67
Nsg60
(lp4385
g4255
asbasbasbasbag53
(g69
g55
NtRp4386
(dp4387
g58
(dp4388
sg67
g4364
sg60
(lp4389
g53
(g74
g55
NtRp4390
(dp4391
g58
(dp4392
sg67
g4386
sg60
(lp4393
g53
(g54
g55
NtRp4394
(dp4395
g58
(dp4396
g66
I3
ssg67
g4390
sg60
(lp4397
g96
asbasbasbag53
(g69
g55
NtRp4398
(dp4399
g58
(dp4400
sg67
g4364
sg60
(lp4401
g53
(g74
g55
NtRp4402
(dp4403
g58
(dp4404
sg67
g4398
sg60
(lp4405
g53
(g54
g55
NtRp4406
(dp4407
g58
(dp4408
g66
I3
ssg67
g4402
sg60
(lp4409
S'None'
p4410
asbasbasbag53
(g69
g55
NtRp4411
(dp4412
g58
(dp4413
sg67
g4364
sg60
(lp4414
g53
(g74
g55
NtRp4415
(dp4416
g58
(dp4417
sg67
g4411
sg60
(lp4418
g53
(g54
g55
NtRp4419
(dp4420
g58
(dp4421
g66
I3
ssg67
g4415
sg60
(lp4422
g53
(g62
g55
NtRp4423
(dp4424
g58
(dp4425
g66
I2
ssg67
Nsg60
(lp4426
g53
(g69
g55
NtRp4427
(dp4428
g58
(dp4429
sg67
g4423
sg60
(lp4430
g53
(g74
g55
NtRp4431
(dp4432
g58
(dp4433
sg67
g4427
sg60
(lp4434
g53
(g54
g55
NtRp4435
(dp4436
g58
(dp4437
g66
I2
ssg67
g4431
sg60
(lp4438
g53
(g62
g55
NtRp4439
(dp4440
g58
(dp4441
g66
I1
ssg67
Nsg60
(lp4442
g53
(g69
g55
NtRp4443
(dp4444
g58
(dp4445
sg67
g4439
sg60
(lp4446
g53
(g74
g55
NtRp4447
(dp4448
g58
(dp4449
sg67
g4443
sg60
(lp4450
g53
(g54
g55
NtRp4451
(dp4452
g58
(dp4453
g66
I1
ssg67
g4447
sg60
(lp4454
g4309
(S's\x08\x00\x00\x00My Sites'
tRp4455
asbasbasbag53
(g69
g55
NtRp4456
(dp4457
g58
(dp4458
sg67
g4439
sg60
(lp4459
g53
(g74
g55
NtRp4460
(dp4461
g58
(dp4462
sg67
g4456
sg60
(lp4463
g53
(g54
g55
NtRp4464
(dp4465
g58
(dp4466
g66
I1
ssg67
g4460
sg60
(lp4467
I00
asbasbasbag53
(g69
g55
NtRp4468
(dp4469
g58
(dp4470
sg67
g4439
sg60
(lp4471
g53
(g74
g55
NtRp4472
(dp4473
g58
(dp4474
sg67
g4468
sg60
(lp4475
g53
(g54
g55
NtRp4476
(dp4477
g58
(dp4478
g66
I1
ssg67
g4472
sg60
(lp4479
S'/admin/default/site'
p4480
asbasbasbasbasbasbasbag53
(g69
g55
NtRp4481
(dp4482
g58
(dp4483
sg67
g4423
sg60
(lp4484
g53
(g74
g55
NtRp4485
(dp4486
g58
(dp4487
sg67
g4481
sg60
(lp4488
g53
(g54
g55
NtRp4489
(dp4490
g58
(dp4491
g66
I2
ssg67
g4485
sg60
(lp4492
g53
(g62
g55
NtRp4493
(dp4494
g58
(dp4495
g66
I1
ssg67
Nsg60
(lp4496
g53
(g69
g55
NtRp4497
(dp4498
g58
(dp4499
sg67
g4493
sg60
(lp4500
g53
(g74
g55
NtRp4501
(dp4502
g58
(dp4503
sg67
g4497
sg60
(lp4504
g53
(g54
g55
NtRp4505
(dp4506
g58
(dp4507
g66
I1
ssg67
g4501
sg60
(lp4508
g4309
(S's\x08\x00\x00\x00This App'
tRp4509
asbasbasbag53
(g69
g55
NtRp4510
(dp4511
g58
(dp4512
sg67
g4493
sg60
(lp4513
g53
(g74
g55
NtRp4514
(dp4515
g58
(dp4516
sg67
g4510
sg60
(lp4517
g53
(g54
g55
NtRp4518
(dp4519
g58
(dp4520
g66
I1
ssg67
g4514
sg60
(lp4521
I00
asbasbasbag53
(g69
g55
NtRp4522
(dp4523
g58
(dp4524
sg67
g4493
sg60
(lp4525
g53
(g74
g55
NtRp4526
(dp4527
g58
(dp4528
sg67
g4522
sg60
(lp4529
g53
(g54
g55
NtRp4530
(dp4531
g58
(dp4532
g66
I1
ssg67
g4526
sg60
(lp4533
S'/admin/default/design/IguassuPass'
p4534
asbasbasbag53
(g69
g55
NtRp4535
(dp4536
g58
(dp4537
sg67
g4493
sg60
(lp4538
g53
(g74
g55
NtRp4539
(dp4540
g58
(dp4541
sg67
g4535
sg60
(lp4542
g53
(g54
g55
NtRp4543
(dp4544
g58
(dp4545
g66
I1
ssg67
g4539
sg60
(lp4546
(lp4547
(g4309
(S't\n\x00\x00\x00Controller'
tRp4548
I00
S'/admin/default/edit/IguassuPass/controllers/default.py'
tp4549
a(g4309
(S't\x04\x00\x00\x00View'
tRp4550
I00
S'/admin/default/edit/IguassuPass/views/default/atracao_create.html'
tp4551
a(g4309
(S't\x06\x00\x00\x00Layout'
tRp4552
I00
S'/admin/default/edit/IguassuPass/views/layout.html'
tp4553
a(g4309
(S't\n\x00\x00\x00Stylesheet'
tRp4554
I00
S'/admin/default/edit/IguassuPass/static/css/web2py.css'
tp4555
a(g4309
(S's\x08\x00\x00\x00DB Model'
tRp4556
I00
S'/admin/default/edit/IguassuPass/models/db.py'
tp4557
a(g4309
(S's\n\x00\x00\x00Menu Model'
tRp4558
I00
S'/admin/default/edit/IguassuPass/models/menu.py'
tp4559
a(g4309
(S't\x08\x00\x00\x00Database'
tRp4560
I00
S'/IguassuPass/appadmin/index'
tp4561
a(g4309
(S't\x06\x00\x00\x00Errors'
tRp4562
I00
S'/admin/default/errors/IguassuPass'
tp4563
a(g4309
(S't\x05\x00\x00\x00About'
tRp4564
I00
S'/admin/default/about/IguassuPass'
tp4565
aasbasbasbasbasbasbasbag53
(g69
g55
NtRp4566
(dp4567
g58
(dp4568
sg67
g4423
sg60
(lp4569
g53
(g74
g55
NtRp4570
(dp4571
g58
(dp4572
sg67
g4566
sg60
(lp4573
g53
(g54
g55
NtRp4574
(dp4575
g58
(dp4576
g66
I2
ssg67
g4570
sg60
(lp4577
g53
(g62
g55
NtRp4578
(dp4579
g58
(dp4580
g66
I1
ssg67
Nsg60
(lp4581
g53
(g69
g55
NtRp4582
(dp4583
g58
(dp4584
sg67
g4578
sg60
(lp4585
g53
(g74
g55
NtRp4586
(dp4587
g58
(dp4588
sg67
g4582
sg60
(lp4589
g53
(g54
g55
NtRp4590
(dp4591
g58
(dp4592
g66
I1
ssg67
g4586
sg60
(lp4593
S'web2py.com'
p4594
asbasbasbag53
(g69
g55
NtRp4595
(dp4596
g58
(dp4597
sg67
g4578
sg60
(lp4598
g53
(g74
g55
NtRp4599
(dp4600
g58
(dp4601
sg67
g4595
sg60
(lp4602
g53
(g54
g55
NtRp4603
(dp4604
g58
(dp4605
g66
I1
ssg67
g4599
sg60
(lp4606
I00
asbasbasbag53
(g69
g55
NtRp4607
(dp4608
g58
(dp4609
sg67
g4578
sg60
(lp4610
g53
(g74
g55
NtRp4611
(dp4612
g58
(dp4613
sg67
g4607
sg60
(lp4614
g53
(g54
g55
NtRp4615
(dp4616
g58
(dp4617
g66
I1
ssg67
g4611
sg60
(lp4618
S'http://www.web2py.com'
p4619
asbasbasbag53
(g69
g55
NtRp4620
(dp4621
g58
(dp4622
sg67
g4578
sg60
(lp4623
g53
(g74
g55
NtRp4624
(dp4625
g58
(dp4626
sg67
g4620
sg60
(lp4627
g53
(g54
g55
NtRp4628
(dp4629
g58
(dp4630
g66
I1
ssg67
g4624
sg60
(lp4631
(lp4632
(g4309
(S't\x08\x00\x00\x00Download'
tRp4633
I00
S'http://www.web2py.com/examples/default/download'
p4634
tp4635
a(g4309
(S't\x07\x00\x00\x00Support'
tRp4636
I00
S'http://www.web2py.com/examples/default/support'
p4637
tp4638
a(g4309
(S't\x04\x00\x00\x00Demo'
tRp4639
I00
S'http://web2py.com/demo_admin'
p4640
tp4641
a(g4309
(S's\x0e\x00\x00\x00Quick Examples'
tRp4642
I00
S'http://web2py.com/examples/default/examples'
p4643
tp4644
a(g4309
(S't\x03\x00\x00\x00FAQ'
tRp4645
I00
S'http://web2py.com/AlterEgo'
p4646
tp4647
a(g4309
(S't\x06\x00\x00\x00Videos'
tRp4648
I00
S'http://www.web2py.com/examples/default/videos/'
p4649
tp4650
a(g4309
(S's\x11\x00\x00\x00Free Applications'
tRp4651
I00
S'http://web2py.com/appliances'
p4652
tp4653
a(g4309
(S't\x07\x00\x00\x00Plugins'
tRp4654
I00
S'http://web2py.com/plugins'
p4655
tp4656
a(g4309
(S't\x07\x00\x00\x00Layouts'
tRp4657
I00
S'http://web2py.com/layouts'
p4658
tp4659
a(g4309
(S't\x07\x00\x00\x00Recipes'
tRp4660
I00
S'http://web2pyslices.com/'
p4661
tp4662
a(g4309
(S't\x08\x00\x00\x00Semantic'
tRp4663
I00
S'http://web2py.com/semantic'
p4664
tp4665
aasbasbasbasbasbasbasbag53
(g69
g55
NtRp4666
(dp4667
g58
(dp4668
sg67
g4423
sg60
(lp4669
g53
(g74
g55
NtRp4670
(dp4671
g58
(dp4672
sg67
g4666
sg60
(lp4673
g53
(g54
g55
NtRp4674
(dp4675
g58
(dp4676
g66
I2
ssg67
g4670
sg60
(lp4677
g53
(g62
g55
NtRp4678
(dp4679
g58
(dp4680
g66
I1
ssg67
Nsg60
(lp4681
g53
(g69
g55
NtRp4682
(dp4683
g58
(dp4684
sg67
g4678
sg60
(lp4685
g53
(g74
g55
NtRp4686
(dp4687
g58
(dp4688
sg67
g4682
sg60
(lp4689
g53
(g54
g55
NtRp4690
(dp4691
g58
(dp4692
g66
I1
ssg67
g4686
sg60
(lp4693
g4309
(S't\r\x00\x00\x00Documentation'
tRp4694
asbasbasbag53
(g69
g55
NtRp4695
(dp4696
g58
(dp4697
sg67
g4678
sg60
(lp4698
g53
(g74
g55
NtRp4699
(dp4700
g58
(dp4701
sg67
g4695
sg60
(lp4702
g53
(g54
g55
NtRp4703
(dp4704
g58
(dp4705
g66
I1
ssg67
g4699
sg60
(lp4706
I00
asbasbasbag53
(g69
g55
NtRp4707
(dp4708
g58
(dp4709
sg67
g4678
sg60
(lp4710
g53
(g74
g55
NtRp4711
(dp4712
g58
(dp4713
sg67
g4707
sg60
(lp4714
g53
(g54
g55
NtRp4715
(dp4716
g58
(dp4717
g66
I1
ssg67
g4711
sg60
(lp4718
S'http://www.web2py.com/book'
p4719
asbasbasbag53
(g69
g55
NtRp4720
(dp4721
g58
(dp4722
sg67
g4678
sg60
(lp4723
g53
(g74
g55
NtRp4724
(dp4725
g58
(dp4726
sg67
g4720
sg60
(lp4727
g53
(g54
g55
NtRp4728
(dp4729
g58
(dp4730
g66
I1
ssg67
g4724
sg60
(lp4731
(lp4732
(g4309
(S't\x07\x00\x00\x00Preface'
tRp4733
I00
S'http://www.web2py.com/book/default/chapter/00'
p4734
tp4735
a(g4309
(S't\x0c\x00\x00\x00Introduction'
tRp4736
I00
S'http://www.web2py.com/book/default/chapter/01'
p4737
tp4738
a(g4309
(S't\x06\x00\x00\x00Python'
tRp4739
I00
S'http://www.web2py.com/book/default/chapter/02'
p4740
tp4741
a(g4309
(S't\x08\x00\x00\x00Overview'
tRp4742
I00
S'http://www.web2py.com/book/default/chapter/03'
p4743
tp4744
a(g4309
(S's\x08\x00\x00\x00The Core'
tRp4745
I00
S'http://www.web2py.com/book/default/chapter/04'
p4746
tp4747
a(g4309
(S's\t\x00\x00\x00The Views'
tRp4748
I00
S'http://www.web2py.com/book/default/chapter/05'
p4749
tp4750
a(g4309
(S't\x08\x00\x00\x00Database'
tRp4751
I00
S'http://www.web2py.com/book/default/chapter/06'
p4752
tp4753
a(g4309
(S's\x14\x00\x00\x00Forms and Validators'
tRp4754
I00
S'http://www.web2py.com/book/default/chapter/07'
p4755
tp4756
a(g4309
(S's\r\x00\x00\x00Email and SMS'
tRp4757
I00
S'http://www.web2py.com/book/default/chapter/08'
p4758
tp4759
a(g4309
(S's\x0e\x00\x00\x00Access Control'
tRp4760
I00
S'http://www.web2py.com/book/default/chapter/09'
p4761
tp4762
a(g4309
(S't\x08\x00\x00\x00Services'
tRp4763
I00
S'http://www.web2py.com/book/default/chapter/10'
p4764
tp4765
a(g4309
(S's\x0c\x00\x00\x00Ajax Recipes'
tRp4766
I00
S'http://www.web2py.com/book/default/chapter/11'
p4767
tp4768
a(g4309
(S's\x16\x00\x00\x00Components and Plugins'
tRp4769
I00
S'http://www.web2py.com/book/default/chapter/12'
p4770
tp4771
a(g4309
(S's\x12\x00\x00\x00Deployment Recipes'
tRp4772
I00
S'http://www.web2py.com/book/default/chapter/13'
p4773
tp4774
a(g4309
(S's\r\x00\x00\x00Other Recipes'
tRp4775
I00
S'http://www.web2py.com/book/default/chapter/14'
p4776
tp4777
a(g4309
(S's\r\x00\x00\x00Buy this book'
tRp4778
I00
S'http://stores.lulu.com/web2py'
p4779
tp4780
aasbasbasbasbasbasbasbag53
(g69
g55
NtRp4781
(dp4782
g58
(dp4783
sg67
g4423
sg60
(lp4784
g53
(g74
g55
NtRp4785
(dp4786
g58
(dp4787
sg67
g4781
sg60
(lp4788
g53
(g54
g55
NtRp4789
(dp4790
g58
(dp4791
g66
I2
ssg67
g4785
sg60
(lp4792
g53
(g62
g55
NtRp4793
(dp4794
g58
(dp4795
g66
I1
ssg67
Nsg60
(lp4796
g53
(g69
g55
NtRp4797
(dp4798
g58
(dp4799
sg67
g4793
sg60
(lp4800
g53
(g74
g55
NtRp4801
(dp4802
g58
(dp4803
sg67
g4797
sg60
(lp4804
g53
(g54
g55
NtRp4805
(dp4806
g58
(dp4807
g66
I1
ssg67
g4801
sg60
(lp4808
g4309
(S't\t\x00\x00\x00Community'
tRp4809
asbasbasbag53
(g69
g55
NtRp4810
(dp4811
g58
(dp4812
sg67
g4793
sg60
(lp4813
g53
(g74
g55
NtRp4814
(dp4815
g58
(dp4816
sg67
g4810
sg60
(lp4817
g53
(g54
g55
NtRp4818
(dp4819
g58
(dp4820
g66
I1
ssg67
g4814
sg60
(lp4821
I00
asbasbasbag53
(g69
g55
NtRp4822
(dp4823
g58
(dp4824
sg67
g4793
sg60
(lp4825
g53
(g74
g55
NtRp4826
(dp4827
g58
(dp4828
sg67
g4822
sg60
(lp4829
g53
(g54
g55
NtRp4830
(dp4831
g58
(dp4832
g66
I1
ssg67
g4826
sg60
(lp4833
Nasbasbasbag53
(g69
g55
NtRp4834
(dp4835
g58
(dp4836
sg67
g4793
sg60
(lp4837
g53
(g74
g55
NtRp4838
(dp4839
g58
(dp4840
sg67
g4834
sg60
(lp4841
g53
(g54
g55
NtRp4842
(dp4843
g58
(dp4844
g66
I1
ssg67
g4838
sg60
(lp4845
(lp4846
(g4309
(S't\x06\x00\x00\x00Groups'
tRp4847
I00
S'http://www.web2py.com/examples/default/usergroups'
p4848
tp4849
a(g4309
(S't\x07\x00\x00\x00Twitter'
tRp4850
I00
S'http://twitter.com/web2py'
p4851
tp4852
a(g4309
(S's\t\x00\x00\x00Live Chat'
tRp4853
I00
S'http://webchat.freenode.net/?channels=web2py'
p4854
tp4855
aasbasbasbasbasbasbasbag53
(g69
g55
NtRp4856
(dp4857
g58
(dp4858
sg67
g4423
sg60
(lp4859
g53
(g74
g55
NtRp4860
(dp4861
g58
(dp4862
sg67
g4856
sg60
(lp4863
g53
(g54
g55
NtRp4864
(dp4865
g58
(dp4866
g66
I2
ssg67
g4860
sg60
(lp4867
g53
(g62
g55
NtRp4868
(dp4869
g58
(dp4870
g66
I1
ssg67
Nsg60
(lp4871
g53
(g69
g55
NtRp4872
(dp4873
g58
(dp4874
sg67
g4868
sg60
(lp4875
g53
(g74
g55
NtRp4876
(dp4877
g58
(dp4878
sg67
g4872
sg60
(lp4879
g53
(g54
g55
NtRp4880
(dp4881
g58
(dp4882
g66
I1
ssg67
g4876
sg60
(lp4883
g4309
(S't\x07\x00\x00\x00Plugins'
tRp4884
asbasbasbag53
(g69
g55
NtRp4885
(dp4886
g58
(dp4887
sg67
g4868
sg60
(lp4888
g53
(g74
g55
NtRp4889
(dp4890
g58
(dp4891
sg67
g4885
sg60
(lp4892
g53
(g54
g55
NtRp4893
(dp4894
g58
(dp4895
g66
I1
ssg67
g4889
sg60
(lp4896
I00
asbasbasbag53
(g69
g55
NtRp4897
(dp4898
g58
(dp4899
sg67
g4868
sg60
(lp4900
g53
(g74
g55
NtRp4901
(dp4902
g58
(dp4903
sg67
g4897
sg60
(lp4904
g53
(g54
g55
NtRp4905
(dp4906
g58
(dp4907
g66
I1
ssg67
g4901
sg60
(lp4908
Nasbasbasbag53
(g69
g55
NtRp4909
(dp4910
g58
(dp4911
sg67
g4868
sg60
(lp4912
g53
(g74
g55
NtRp4913
(dp4914
g58
(dp4915
sg67
g4909
sg60
(lp4916
g53
(g54
g55
NtRp4917
(dp4918
g58
(dp4919
g66
I1
ssg67
g4913
sg60
(lp4920
(lp4921
(S'plugin_wiki'
p4922
I00
S'http://web2py.com/examples/default/download'
p4923
tp4924
a(g4309
(S's\r\x00\x00\x00Other Plugins'
tRp4925
I00
g4655
tp4926
a(g4309
(S's\x0e\x00\x00\x00Layout Plugins'
tRp4927
I00
g4658
tp4928
aasbasbasbasbasbasbasbasbasbasbasbasbasbasbasbasbasbasbasbag53
(g69
g55
NtRp4929
(dp4930
g58
(dp4931
sg67
g3773
sg60
(lp4932
g53
(g74
g55
NtRp4933
(dp4934
g58
(dp4935
g78
g79
ssg67
g4929
sg60
(lp4936
S'meta'
p4937
asbag53
(g74
g55
NtRp4938
(dp4939
g58
(dp4940
g85
g86
ssg67
g4929
sg60
(lp4941
S':'
asbag53
(g74
g55
NtRp4942
(dp4943
g58
(dp4944
sg67
g4929
sg60
(lp4945
g53
(g54
g55
NtRp4946
(dp4947
g58
(dp4948
g66
I5
ssg67
g4942
sg60
(lp4949
g53
(g62
g55
NtRp4950
(dp4951
g58
(dp4952
g66
I4
ssg67
Nsg60
(lp4953
g53
(g69
g55
NtRp4954
(dp4955
g58
(dp4956
sg67
g4950
sg60
(lp4957
g53
(g74
g55
NtRp4958
(dp4959
g58
(dp4960
g78
g79
ssg67
g4954
sg60
(lp4961
S'author'
p4962
asbag53
(g74
g55
NtRp4963
(dp4964
g58
(dp4965
g85
g86
ssg67
g4954
sg60
(lp4966
S':'
asbag53
(g74
g55
NtRp4967
(dp4968
g58
(dp4969
sg67
g4954
sg60
(lp4970
g53
(g54
g55
NtRp4971
(dp4972
g58
(dp4973
g66
I4
ssg67
g4967
sg60
(lp4974
S'Your Name <you@example.com>'
p4975
asbasbasbag53
(g69
g55
NtRp4976
(dp4977
g58
(dp4978
sg67
g4950
sg60
(lp4979
g53
(g74
g55
NtRp4980
(dp4981
g58
(dp4982
g78
g79
ssg67
g4976
sg60
(lp4983
S'copyright'
p4984
asbag53
(g74
g55
NtRp4985
(dp4986
g58
(dp4987
g85
g86
ssg67
g4976
sg60
(lp4988
S':'
asbag53
(g74
g55
NtRp4989
(dp4990
g58
(dp4991
sg67
g4976
sg60
(lp4992
g53
(g54
g55
NtRp4993
(dp4994
g58
(dp4995
g66
I4
ssg67
g4989
sg60
(lp4996
S'Copyright 2011'
p4997
asbasbasbag53
(g69
g55
NtRp4998
(dp4999
g58
(dp5000
sg67
g4950
sg60
(lp5001
g53
(g74
g55
NtRp5002
(dp5003
g58
(dp5004
g78
g79
ssg67
g4998
sg60
(lp5005
S'description'
p5006
asbag53
(g74
g55
NtRp5007
(dp5008
g58
(dp5009
g85
g86
ssg67
g4998
sg60
(lp5010
S':'
asbag53
(g74
g55
NtRp5011
(dp5012
g58
(dp5013
sg67
g4998
sg60
(lp5014
g53
(g54
g55
NtRp5015
(dp5016
g58
(dp5017
g66
I4
ssg67
g5011
sg60
(lp5018
S'a cool new app'
p5019
asbasbasbag53
(g69
g55
NtRp5020
(dp5021
g58
(dp5022
sg67
g4950
sg60
(lp5023
g53
(g74
g55
NtRp5024
(dp5025
g58
(dp5026
g78
g79
ssg67
g5020
sg60
(lp5027
S'generator'
p5028
asbag53
(g74
g55
NtRp5029
(dp5030
g58
(dp5031
g85
g86
ssg67
g5020
sg60
(lp5032
S':'
asbag53
(g74
g55
NtRp5033
(dp5034
g58
(dp5035
sg67
g5020
sg60
(lp5036
g53
(g54
g55
NtRp5037
(dp5038
g58
(dp5039
g66
I4
ssg67
g5033
sg60
(lp5040
S'Web2py Web Framework'
p5041
asbasbasbag53
(g69
g55
NtRp5042
(dp5043
g58
(dp5044
sg67
g4950
sg60
(lp5045
g53
(g74
g55
NtRp5046
(dp5047
g58
(dp5048
g78
g79
ssg67
g5042
sg60
(lp5049
S'keywords'
p5050
asbag53
(g74
g55
NtRp5051
(dp5052
g58
(dp5053
g85
g86
ssg67
g5042
sg60
(lp5054
S':'
asbag53
(g74
g55
NtRp5055
(dp5056
g58
(dp5057
sg67
g5042
sg60
(lp5058
g53
(g54
g55
NtRp5059
(dp5060
g58
(dp5061
g66
I4
ssg67
g5055
sg60
(lp5062
S'web2py, python, framework'
p5063
asbasbasbasbasbasbasbag53
(g69
g55
NtRp5064
(dp5065
g58
(dp5066
sg67
g3773
sg60
(lp5067
g53
(g74
g55
NtRp5068
(dp5069
g58
(dp5070
g78
g79
ssg67
g5064
sg60
(lp5071
S'postprocessing'
p5072
asbag53
(g74
g55
NtRp5073
(dp5074
g58
(dp5075
g85
g86
ssg67
g5064
sg60
(lp5076
S':'
asbag53
(g74
g55
NtRp5077
(dp5078
g58
(dp5079
sg67
g5064
sg60
(lp5080
g53
(g54
g55
NtRp5081
(dp5082
g58
(dp5083
g66
I5
ssg67
g5077
sg60
(lp5084
g53
(g62
g55
NtRp5085
(dp5086
g58
(dp5087
g66
I4
ssg67
Nsg60
(lp5088
sbasbasbasbag53
(g69
g55
NtRp5089
(dp5090
g58
(dp5091
sg67
g3773
sg60
(lp5092
g53
(g74
g55
NtRp5093
(dp5094
g58
(dp5095
g78
g79
ssg67
g5089
sg60
(lp5096
S'session_file'
p5097
asbag53
(g74
g55
NtRp5098
(dp5099
g58
(dp5100
g85
g86
ssg67
g5089
sg60
(lp5101
S':'
asbag53
(g74
g55
NtRp5102
(dp5103
g58
(dp5104
sg67
g5089
sg60
(lp5105
g53
(g54
g55
NtRp5106
(dp5107
g58
(dp5108
g66
I5
ssg67
g5102
sg60
(lp5109
S"<open file 'C:\\Users\\ceasbpi\\Dropbox\\web2py\\applications\\IguassuPass\\sessions\\127.0.0.1-0ebf5fce-933e-4652-8d87-32a636575dba', mode 'rb+' at 0x032EC020>"
p5110
asbasbasbag53
(g69
g55
NtRp5111
(dp5112
g58
(dp5113
sg67
g3773
sg60
(lp5114
g53
(g74
g55
NtRp5115
(dp5116
g58
(dp5117
g78
g79
ssg67
g5111
sg60
(lp5118
S'session_filename'
p5119
asbag53
(g74
g55
NtRp5120
(dp5121
g58
(dp5122
g85
g86
ssg67
g5111
sg60
(lp5123
S':'
asbag53
(g74
g55
NtRp5124
(dp5125
g58
(dp5126
sg67
g5111
sg60
(lp5127
g53
(g54
g55
NtRp5128
(dp5129
g58
(dp5130
g66
I5
ssg67
g5124
sg60
(lp5131
S'C:\\Users\\ceasbpi\\Dropbox\\web2py\\applications\\IguassuPass\\sessions\\127.0.0.1-0ebf5fce-933e-4652-8d87-32a636575dba'
p5132
asbasbasbag53
(g69
g55
NtRp5133
(dp5134
g58
(dp5135
sg67
g3773
sg60
(lp5136
g53
(g74
g55
NtRp5137
(dp5138
g58
(dp5139
g78
g79
ssg67
g5133
sg60
(lp5140
S'session_id'
p5141
asbag53
(g74
g55
NtRp5142
(dp5143
g58
(dp5144
g85
g86
ssg67
g5133
sg60
(lp5145
S':'
asbag53
(g74
g55
NtRp5146
(dp5147
g58
(dp5148
sg67
g5133
sg60
(lp5149
g53
(g54
g55
NtRp5150
(dp5151
g58
(dp5152
g66
I5
ssg67
g5146
sg60
(lp5153
S'127.0.0.1-0ebf5fce-933e-4652-8d87-32a636575dba'
p5154
asbasbasbag53
(g69
g55
NtRp5155
(dp5156
g58
(dp5157
sg67
g3773
sg60
(lp5158
g53
(g74
g55
NtRp5159
(dp5160
g58
(dp5161
g78
g79
ssg67
g5155
sg60
(lp5162
S'session_id_name'
p5163
asbag53
(g74
g55
NtRp5164
(dp5165
g58
(dp5166
g85
g86
ssg67
g5155
sg60
(lp5167
S':'
asbag53
(g74
g55
NtRp5168
(dp5169
g58
(dp5170
sg67
g5155
sg60
(lp5171
g53
(g54
g55
NtRp5172
(dp5173
g58
(dp5174
g66
I5
ssg67
g5168
sg60
(lp5175
g3830
asbasbasbag53
(g69
g55
NtRp5176
(dp5177
g58
(dp5178
sg67
g3773
sg60
(lp5179
g53
(g74
g55
NtRp5180
(dp5181
g58
(dp5182
g78
g79
ssg67
g5176
sg60
(lp5183
S'session_locked'
p5184
asbag53
(g74
g55
NtRp5185
(dp5186
g58
(dp5187
g85
g86
ssg67
g5176
sg60
(lp5188
S':'
asbag53
(g74
g55
NtRp5189
(dp5190
g58
(dp5191
sg67
g5176
sg60
(lp5192
g53
(g54
g55
NtRp5193
(dp5194
g58
(dp5195
g66
I5
ssg67
g5189
sg60
(lp5196
g1743
asbasbasbag53
(g69
g55
NtRp5197
(dp5198
g58
(dp5199
sg67
g3773
sg60
(lp5200
g53
(g74
g55
NtRp5201
(dp5202
g58
(dp5203
g78
g79
ssg67
g5197
sg60
(lp5204
S'session_new'
p5205
asbag53
(g74
g55
NtRp5206
(dp5207
g58
(dp5208
g85
g86
ssg67
g5197
sg60
(lp5209
S':'
asbag53
(g74
g55
NtRp5210
(dp5211
g58
(dp5212
sg67
g5197
sg60
(lp5213
g53
(g54
g55
NtRp5214
(dp5215
g58
(dp5216
g66
I5
ssg67
g5210
sg60
(lp5217
g96
asbasbasbag53
(g69
g55
NtRp5218
(dp5219
g58
(dp5220
sg67
g3773
sg60
(lp5221
g53
(g74
g55
NtRp5222
(dp5223
g58
(dp5224
g78
g79
ssg67
g5218
sg60
(lp5225
S'status'
p5226
asbag53
(g74
g55
NtRp5227
(dp5228
g58
(dp5229
g85
g86
ssg67
g5218
sg60
(lp5230
S':'
asbag53
(g74
g55
NtRp5231
(dp5232
g58
(dp5233
sg67
g5218
sg60
(lp5234
g53
(g54
g55
NtRp5235
(dp5236
g58
(dp5237
g66
I5
ssg67
g5231
sg60
(lp5238
S'200'
p5239
asbasbasbag53
(g69
g55
NtRp5240
(dp5241
g58
(dp5242
sg67
g3773
sg60
(lp5243
g53
(g74
g55
NtRp5244
(dp5245
g58
(dp5246
g78
g79
ssg67
g5240
sg60
(lp5247
S'subtitle'
p5248
asbag53
(g74
g55
NtRp5249
(dp5250
g58
(dp5251
g85
g86
ssg67
g5240
sg60
(lp5252
S':'
asbag53
(g74
g55
NtRp5253
(dp5254
g58
(dp5255
sg67
g5240
sg60
(lp5256
g53
(g54
g55
NtRp5257
(dp5258
g58
(dp5259
g66
I5
ssg67
g5253
sg60
(lp5260
g4309
(S's\r\x00\x00\x00customize me!'
tRp5261
asbasbasbag53
(g69
g55
NtRp5262
(dp5263
g58
(dp5264
sg67
g3773
sg60
(lp5265
g53
(g74
g55
NtRp5266
(dp5267
g58
(dp5268
g78
g79
ssg67
g5262
sg60
(lp5269
S'title'
p5270
asbag53
(g74
g55
NtRp5271
(dp5272
g58
(dp5273
g85
g86
ssg67
g5262
sg60
(lp5274
S':'
asbag53
(g74
g55
NtRp5275
(dp5276
g58
(dp5277
sg67
g5262
sg60
(lp5278
g53
(g54
g55
NtRp5279
(dp5280
g58
(dp5281
g66
I5
ssg67
g5275
sg60
(lp5282
S'Iguassupass'
p5283
asbasbasbag53
(g69
g55
NtRp5284
(dp5285
g58
(dp5286
sg67
g3773
sg60
(lp5287
g53
(g74
g55
NtRp5288
(dp5289
g58
(dp5290
g78
g79
ssg67
g5284
sg60
(lp5291
g2451
asbag53
(g74
g55
NtRp5292
(dp5293
g58
(dp5294
g85
g86
ssg67
g5284
sg60
(lp5295
S':'
asbag53
(g74
g55
NtRp5296
(dp5297
g58
(dp5298
sg67
g5284
sg60
(lp5299
g53
(g54
g55
NtRp5300
(dp5301
g58
(dp5302
g66
I5
ssg67
g5296
sg60
(lp5303
g2464
asbasbasbag53
(g69
g55
NtRp5304
(dp5305
g58
(dp5306
sg67
g3773
sg60
(lp5307
g53
(g74
g55
NtRp5308
(dp5309
g58
(dp5310
g78
g79
ssg67
g5304
sg60
(lp5311
S'view'
p5312
asbag53
(g74
g55
NtRp5313
(dp5314
g58
(dp5315
g85
g86
ssg67
g5304
sg60
(lp5316
S':'
asbag53
(g74
g55
NtRp5317
(dp5318
g58
(dp5319
sg67
g5304
sg60
(lp5320
g53
(g54
g55
NtRp5321
(dp5322
g58
(dp5323
g66
I5
ssg67
g5317
sg60
(lp5324
S'default/atracao_create.html'
p5325
asbasbasbasbasbsS'locals'
p5326
(dp5327
S'a'
S'("SELECT  atracao.id, atracao.nome, atracao.desc F...e = \'haha\') ORDER BY atracao.id LIMIT 1 OFFSET 0;",)'
p5328
sS'self'
p5329
S'<gluon.dal.SQLiteAdapter object at 0x07A1FEB0>'
p5330
sS'b'
g41
sS't0'
p5331
S'1346331230.1730001'
p5332
sssS'traceback'
p5333
S'Traceback (most recent call last):\n  File "gluon/restricted.py", line 205, in restricted\n  File "C:\\Users\\ceasbpi\\Dropbox\\web2py\\applications\\IguassuPass\\controllers/default.py", line 111, in <module>\n  File "gluon/globals.py", line 173, in <lambda>\n  File "gluon/tools.py", line 2575, in f\n  File "C:\\Users\\ceasbpi\\Dropbox\\web2py\\applications\\IguassuPass\\controllers/default.py", line 90, in atracao_create\n  File "gluon/tools.py", line 3172, in create\n  File "gluon/tools.py", line 3115, in update\n  File "gluon/sqlhtml.py", line 1089, in accepts\n  File "gluon/html.py", line 1841, in accepts\n  File "gluon/html.py", line 781, in _traverse\n  File "gluon/html.py", line 781, in _traverse\n  File "gluon/html.py", line 781, in _traverse\n  File "gluon/html.py", line 781, in _traverse\n  File "gluon/html.py", line 788, in _traverse\n  File "gluon/html.py", line 1606, in _validate\n  File "gluon/validators.py", line 546, in __call__\n  File "gluon/dal.py", line 7578, in select\n  File "gluon/dal.py", line 1315, in select\n  File "gluon/dal.py", line 1305, in response\n  File "gluon/dal.py", line 1392, in execute\n  File "gluon/dal.py", line 1386, in log_execute\nOperationalError: no such table: atracao\n'
p5334
s.