(dp1
S'output'
p2
S"<type 'exceptions.TypeError'> int() argument must be a string or a number, not 'Rows'"
p3
sS'layer'
p4
S'C:\\Users\\ceasbpi\\Dropbox\\web2py\\applications\\IguassuPass\\controllers/default.py'
p5
sS'code'
p6
S'# -*- coding: utf-8 -*-\n# this file is released under public domain and you can use without limitations\n\n#########################################################################\n## This is a samples controller\n## - index is the default action of any application\n## - user is required for authentication and authorization\n## - download is for downloading files uploaded in the db (does streaming)\n## - call exposes all registered services (none by default)\n#########################################################################\n\ndef index():\n    """\n    example action using the internationalization operator T and flash\n    rendered by views/default/index.html or views/generic.html\n    """\n    response.flash = "Welcome to web2py!"\n    return dict(message=T(\'Hello World\'))\n\ndef user():\n    """\n    exposes:\n    http://..../[app]/default/user/login\n    http://..../[app]/default/user/logout\n    http://..../[app]/default/user/register\n    http://..../[app]/default/user/profile\n    http://..../[app]/default/user/retrieve_password\n    http://..../[app]/default/user/change_password\n    use @auth.requires_login()\n        @auth.requires_membership(\'group name\')\n        @auth.requires_permission(\'read\',\'table name\',record_id)\n    to decorate functions that need access control\n    """\n    return dict(form=auth())\n\ndef getstarted():\n \n    return (dict(message=T(\'GetStarted\')))\n\ndef customersfeedback():\n\n    return(dict(message=T(\'feedback\')))\n\ndef download():\n    """\n    allows downloading of uploaded files\n    http://..../[app]/default/download/[filename]\n    """\n    return response.download(request,db)\n\n\ndef call():\n    """\n    exposes services. for example:\n    http://..../[app]/default/call/jsonrpc\n    decorate with @services.jsonrpc the functions to expose\n    supports xml, json, xmlrpc, jsonrpc, amfrpc, rss, csv\n    """\n    return service()\n\n\n@auth.requires_signature()\ndef data():\n    """\n    http://..../[app]/default/data/tables\n    http://..../[app]/default/data/create/[table]\n    http://..../[app]/default/data/read/[table]/[id]\n    http://..../[app]/default/data/update/[table]/[id]\n    http://..../[app]/default/data/delete/[table]/[id]\n    http://..../[app]/default/data/select/[table]\n    http://..../[app]/default/data/search/[table]\n    but URLs must be signed, i.e. linked with\n      A(\'table\',_href=URL(\'data/tables\',user_signature=True))\n    or with the signed load operator\n      LOAD(\'default\',\'data.load\',args=\'tables\',ajax=True,user_signature=True)\n    """\n    return dict(form=crud())\n\ndef atracoes():\n    atracoes = db(db.atracao).select(orderby=db.atracao.nome)\n    multimedias = db(db.multimedia.atracao == atracoes).select(orderby= db.multimedia.id)\n    return locals()\n\n@auth.requires_login()\ndef atracao_create():\n    form= crud.create(db.atracao, next=\'atracoes\')\n    return locals()\n\n@auth.requires_login()\ndef atracao_edit():\n    atracao = db.atracao(request.args(0)) or redirect(URL(\'atracoes\'))\n    form = crud.update(db.atracao, atracao, next=\'atracoes\')\n    return locals()\n\n@auth.requires_login()\ndef multimedia_create():\n    #db.multimedia.atracao.default = request.args(0)\n    form = crud.create(db.multimedia)\n    return locals()\n\n@auth.requires_login()\ndef multimedia_edit():\n    multimedia = db.multimedia(request.args(0)) or redirect(URL(\'atracoes\'))\n    form = crud.update(db.multimedia, multimedia)\n    return locals()\n\nresponse._vars=response._caller(atracoes)\n'
p7
sS'snapshot'
p8
(dp9
S'exception'
p10
(dp11
S'__hash__'
p12
S"<method-wrapper '__hash__' of exceptions.TypeError object at 0x075D5F58>"
p13
sS'__setattr__'
p14
S"<method-wrapper '__setattr__' of exceptions.TypeError object at 0x075D5F58>"
p15
sS'__reduce_ex__'
p16
S'<built-in method __reduce_ex__ of exceptions.TypeError object at 0x075D5F58>'
p17
sS'__getslice__'
p18
S"<method-wrapper '__getslice__' of exceptions.TypeError object at 0x075D5F58>"
p19
sS'__getitem__'
p20
S"<method-wrapper '__getitem__' of exceptions.TypeError object at 0x075D5F58>"
p21
sS'__setstate__'
p22
S'<built-in method __setstate__ of exceptions.TypeError object at 0x075D5F58>'
p23
sS'__reduce__'
p24
S'<built-in method __reduce__ of exceptions.TypeError object at 0x075D5F58>'
p25
sS'__str__'
p26
S"<method-wrapper '__str__' of exceptions.TypeError object at 0x075D5F58>"
p27
sS'args'
p28
S'("int() argument must be a string or a number, not \'Rows\'",)'
p29
sS'__getattribute__'
p30
S"<method-wrapper '__getattribute__' of exceptions.TypeError object at 0x075D5F58>"
p31
sS'__class__'
p32
S"<type 'exceptions.TypeError'>"
p33
sS'__delattr__'
p34
S"<method-wrapper '__delattr__' of exceptions.TypeError object at 0x075D5F58>"
p35
sS'__repr__'
p36
S"<method-wrapper '__repr__' of exceptions.TypeError object at 0x075D5F58>"
p37
sS'__dict__'
p38
S'{}'
p39
sS'__doc__'
p40
S"'Inappropriate argument type.'"
p41
sS'__init__'
p42
S"<method-wrapper '__init__' of exceptions.TypeError object at 0x075D5F58>"
p43
sS'__new__'
p44
S'<built-in method __new__ of type object at 0x1E1CCD78>'
p45
ssS'evalue'
p46
S"int() argument must be a string or a number, not 'Rows'"
p47
sS'request'
p48
ccopy_reg
_reconstructor
p49
(cgluon.html
BEAUTIFY
p50
c__builtin__
object
p51
NtRp52
(dp53
S'attributes'
p54
(dp55
sS'components'
p56
(lp57
g49
(cgluon.html
TABLE
p58
g51
NtRp59
(dp60
g54
(dp61
S'level'
p62
I5
ssS'parent'
p63
Nsg56
(lp64
g49
(cgluon.html
TR
p65
g51
NtRp66
(dp67
g54
(dp68
sg63
g59
sg56
(lp69
g49
(cgluon.html
TD
p70
g51
NtRp71
(dp72
g54
(dp73
S'_style'
p74
S'font-weight:bold;vertical-align:top'
p75
ssg63
g66
sg56
(lp76
S'ajax'
p77
asbag49
(g70
g51
NtRp78
(dp79
g54
(dp80
S'_valign'
p81
S'top'
p82
ssg63
g66
sg56
(lp83
S':'
asbag49
(g70
g51
NtRp84
(dp85
g54
(dp86
sg63
g66
sg56
(lp87
g49
(g50
g51
NtRp88
(dp89
g54
(dp90
g62
I5
ssg63
g84
sg56
(lp91
S'False'
p92
asbasbasbag49
(g65
g51
NtRp93
(dp94
g54
(dp95
sg63
g59
sg56
(lp96
g49
(g70
g51
NtRp97
(dp98
g54
(dp99
g74
g75
ssg63
g93
sg56
(lp100
S'application'
p101
asbag49
(g70
g51
NtRp102
(dp103
g54
(dp104
g81
g82
ssg63
g93
sg56
(lp105
S':'
asbag49
(g70
g51
NtRp106
(dp107
g54
(dp108
sg63
g93
sg56
(lp109
g49
(g50
g51
NtRp110
(dp111
g54
(dp112
g62
I5
ssg63
g106
sg56
(lp113
S'IguassuPass'
p114
asbasbasbag49
(g65
g51
NtRp115
(dp116
g54
(dp117
sg63
g59
sg56
(lp118
g49
(g70
g51
NtRp119
(dp120
g54
(dp121
g74
g75
ssg63
g115
sg56
(lp122
g28
asbag49
(g70
g51
NtRp123
(dp124
g54
(dp125
g81
g82
ssg63
g115
sg56
(lp126
S':'
asbag49
(g70
g51
NtRp127
(dp128
g54
(dp129
sg63
g115
sg56
(lp130
g49
(g50
g51
NtRp131
(dp132
g54
(dp133
g62
I5
ssg63
g127
sg56
(lp134
g49
(g58
g51
NtRp135
(dp136
g54
(dp137
g62
I4
ssg63
Nsg56
(lp138
sbasbasbasbag49
(g65
g51
NtRp139
(dp140
g54
(dp141
sg63
g59
sg56
(lp142
g49
(g70
g51
NtRp143
(dp144
g54
(dp145
g74
g75
ssg63
g139
sg56
(lp146
S'body'
p147
asbag49
(g70
g51
NtRp148
(dp149
g54
(dp150
g81
g82
ssg63
g139
sg56
(lp151
S':'
asbag49
(g70
g51
NtRp152
(dp153
g54
(dp154
sg63
g139
sg56
(lp155
g49
(g50
g51
NtRp156
(dp157
g54
(dp158
g62
I5
ssg63
g152
sg56
(lp159
S'<cStringIO.StringO object at 0x074CCE20>'
p160
asbasbasbag49
(g65
g51
NtRp161
(dp162
g54
(dp163
sg63
g59
sg56
(lp164
g49
(g70
g51
NtRp165
(dp166
g54
(dp167
g74
g75
ssg63
g161
sg56
(lp168
S'client'
p169
asbag49
(g70
g51
NtRp170
(dp171
g54
(dp172
g81
g82
ssg63
g161
sg56
(lp173
S':'
asbag49
(g70
g51
NtRp174
(dp175
g54
(dp176
sg63
g161
sg56
(lp177
g49
(g50
g51
NtRp178
(dp179
g54
(dp180
g62
I5
ssg63
g174
sg56
(lp181
S'127.0.0.1'
p182
asbasbasbag49
(g65
g51
NtRp183
(dp184
g54
(dp185
sg63
g59
sg56
(lp186
g49
(g70
g51
NtRp187
(dp188
g54
(dp189
g74
g75
ssg63
g183
sg56
(lp190
S'controller'
p191
asbag49
(g70
g51
NtRp192
(dp193
g54
(dp194
g81
g82
ssg63
g183
sg56
(lp195
S':'
asbag49
(g70
g51
NtRp196
(dp197
g54
(dp198
sg63
g183
sg56
(lp199
g49
(g50
g51
NtRp200
(dp201
g54
(dp202
g62
I5
ssg63
g196
sg56
(lp203
S'default'
p204
asbasbasbag49
(g65
g51
NtRp205
(dp206
g54
(dp207
sg63
g59
sg56
(lp208
g49
(g70
g51
NtRp209
(dp210
g54
(dp211
g74
g75
ssg63
g205
sg56
(lp212
S'cookies'
p213
asbag49
(g70
g51
NtRp214
(dp215
g54
(dp216
g81
g82
ssg63
g205
sg56
(lp217
S':'
asbag49
(g70
g51
NtRp218
(dp219
g54
(dp220
sg63
g205
sg56
(lp221
g49
(g50
g51
NtRp222
(dp223
g54
(dp224
g62
I5
ssg63
g218
sg56
(lp225
g49
(g58
g51
NtRp226
(dp227
g54
(dp228
g62
I4
ssg63
Nsg56
(lp229
g49
(g65
g51
NtRp230
(dp231
g54
(dp232
sg63
g226
sg56
(lp233
g49
(g70
g51
NtRp234
(dp235
g54
(dp236
g74
g75
ssg63
g230
sg56
(lp237
S'session_id_admin'
p238
asbag49
(g70
g51
NtRp239
(dp240
g54
(dp241
g81
g82
ssg63
g230
sg56
(lp242
S':'
asbag49
(g70
g51
NtRp243
(dp244
g54
(dp245
sg63
g230
sg56
(lp246
g49
(g50
g51
NtRp247
(dp248
g54
(dp249
g62
I4
ssg63
g243
sg56
(lp250
g49
(g58
g51
NtRp251
(dp252
g54
(dp253
g62
I3
ssg63
Nsg56
(lp254
g49
(g65
g51
NtRp255
(dp256
g54
(dp257
sg63
g251
sg56
(lp258
g49
(g70
g51
NtRp259
(dp260
g54
(dp261
g74
g75
ssg63
g255
sg56
(lp262
S'comment'
p263
asbag49
(g70
g51
NtRp264
(dp265
g54
(dp266
g81
g82
ssg63
g255
sg56
(lp267
S':'
asbag49
(g70
g51
NtRp268
(dp269
g54
(dp270
sg63
g255
sg56
(lp271
g49
(g50
g51
NtRp272
(dp273
g54
(dp274
g62
I3
ssg63
g268
sg56
(lp275
S''
asbasbasbag49
(g65
g51
NtRp276
(dp277
g54
(dp278
sg63
g251
sg56
(lp279
g49
(g70
g51
NtRp280
(dp281
g54
(dp282
g74
g75
ssg63
g276
sg56
(lp283
S'domain'
p284
asbag49
(g70
g51
NtRp285
(dp286
g54
(dp287
g81
g82
ssg63
g276
sg56
(lp288
S':'
asbag49
(g70
g51
NtRp289
(dp290
g54
(dp291
sg63
g276
sg56
(lp292
g49
(g50
g51
NtRp293
(dp294
g54
(dp295
g62
I3
ssg63
g289
sg56
(lp296
S''
asbasbasbag49
(g65
g51
NtRp297
(dp298
g54
(dp299
sg63
g251
sg56
(lp300
g49
(g70
g51
NtRp301
(dp302
g54
(dp303
g74
g75
ssg63
g297
sg56
(lp304
S'expires'
p305
asbag49
(g70
g51
NtRp306
(dp307
g54
(dp308
g81
g82
ssg63
g297
sg56
(lp309
S':'
asbag49
(g70
g51
NtRp310
(dp311
g54
(dp312
sg63
g297
sg56
(lp313
g49
(g50
g51
NtRp314
(dp315
g54
(dp316
g62
I3
ssg63
g310
sg56
(lp317
S''
asbasbasbag49
(g65
g51
NtRp318
(dp319
g54
(dp320
sg63
g251
sg56
(lp321
g49
(g70
g51
NtRp322
(dp323
g54
(dp324
g74
g75
ssg63
g318
sg56
(lp325
S'max-age'
p326
asbag49
(g70
g51
NtRp327
(dp328
g54
(dp329
g81
g82
ssg63
g318
sg56
(lp330
S':'
asbag49
(g70
g51
NtRp331
(dp332
g54
(dp333
sg63
g318
sg56
(lp334
g49
(g50
g51
NtRp335
(dp336
g54
(dp337
g62
I3
ssg63
g331
sg56
(lp338
S''
asbasbasbag49
(g65
g51
NtRp339
(dp340
g54
(dp341
sg63
g251
sg56
(lp342
g49
(g70
g51
NtRp343
(dp344
g54
(dp345
g74
g75
ssg63
g339
sg56
(lp346
S'path'
p347
asbag49
(g70
g51
NtRp348
(dp349
g54
(dp350
g81
g82
ssg63
g339
sg56
(lp351
S':'
asbag49
(g70
g51
NtRp352
(dp353
g54
(dp354
sg63
g339
sg56
(lp355
g49
(g50
g51
NtRp356
(dp357
g54
(dp358
g62
I3
ssg63
g352
sg56
(lp359
S''
asbasbasbag49
(g65
g51
NtRp360
(dp361
g54
(dp362
sg63
g251
sg56
(lp363
g49
(g70
g51
NtRp364
(dp365
g54
(dp366
g74
g75
ssg63
g360
sg56
(lp367
S'secure'
p368
asbag49
(g70
g51
NtRp369
(dp370
g54
(dp371
g81
g82
ssg63
g360
sg56
(lp372
S':'
asbag49
(g70
g51
NtRp373
(dp374
g54
(dp375
sg63
g360
sg56
(lp376
g49
(g50
g51
NtRp377
(dp378
g54
(dp379
g62
I3
ssg63
g373
sg56
(lp380
S''
asbasbasbag49
(g65
g51
NtRp381
(dp382
g54
(dp383
sg63
g251
sg56
(lp384
g49
(g70
g51
NtRp385
(dp386
g54
(dp387
g74
g75
ssg63
g381
sg56
(lp388
S'version'
p389
asbag49
(g70
g51
NtRp390
(dp391
g54
(dp392
g81
g82
ssg63
g381
sg56
(lp393
S':'
asbag49
(g70
g51
NtRp394
(dp395
g54
(dp396
sg63
g381
sg56
(lp397
g49
(g50
g51
NtRp398
(dp399
g54
(dp400
g62
I3
ssg63
g394
sg56
(lp401
S''
asbasbasbasbasbasbasbag49
(g65
g51
NtRp402
(dp403
g54
(dp404
sg63
g226
sg56
(lp405
g49
(g70
g51
NtRp406
(dp407
g54
(dp408
g74
g75
ssg63
g402
sg56
(lp409
S'session_id_iguassupass'
p410
asbag49
(g70
g51
NtRp411
(dp412
g54
(dp413
g81
g82
ssg63
g402
sg56
(lp414
S':'
asbag49
(g70
g51
NtRp415
(dp416
g54
(dp417
sg63
g402
sg56
(lp418
g49
(g50
g51
NtRp419
(dp420
g54
(dp421
g62
I4
ssg63
g415
sg56
(lp422
g49
(g58
g51
NtRp423
(dp424
g54
(dp425
g62
I3
ssg63
Nsg56
(lp426
g49
(g65
g51
NtRp427
(dp428
g54
(dp429
sg63
g423
sg56
(lp430
g49
(g70
g51
NtRp431
(dp432
g54
(dp433
g74
g75
ssg63
g427
sg56
(lp434
g263
asbag49
(g70
g51
NtRp435
(dp436
g54
(dp437
g81
g82
ssg63
g427
sg56
(lp438
S':'
asbag49
(g70
g51
NtRp439
(dp440
g54
(dp441
sg63
g427
sg56
(lp442
g49
(g50
g51
NtRp443
(dp444
g54
(dp445
g62
I3
ssg63
g439
sg56
(lp446
S''
asbasbasbag49
(g65
g51
NtRp447
(dp448
g54
(dp449
sg63
g423
sg56
(lp450
g49
(g70
g51
NtRp451
(dp452
g54
(dp453
g74
g75
ssg63
g447
sg56
(lp454
g284
asbag49
(g70
g51
NtRp455
(dp456
g54
(dp457
g81
g82
ssg63
g447
sg56
(lp458
S':'
asbag49
(g70
g51
NtRp459
(dp460
g54
(dp461
sg63
g447
sg56
(lp462
g49
(g50
g51
NtRp463
(dp464
g54
(dp465
g62
I3
ssg63
g459
sg56
(lp466
S''
asbasbasbag49
(g65
g51
NtRp467
(dp468
g54
(dp469
sg63
g423
sg56
(lp470
g49
(g70
g51
NtRp471
(dp472
g54
(dp473
g74
g75
ssg63
g467
sg56
(lp474
g305
asbag49
(g70
g51
NtRp475
(dp476
g54
(dp477
g81
g82
ssg63
g467
sg56
(lp478
S':'
asbag49
(g70
g51
NtRp479
(dp480
g54
(dp481
sg63
g467
sg56
(lp482
g49
(g50
g51
NtRp483
(dp484
g54
(dp485
g62
I3
ssg63
g479
sg56
(lp486
S''
asbasbasbag49
(g65
g51
NtRp487
(dp488
g54
(dp489
sg63
g423
sg56
(lp490
g49
(g70
g51
NtRp491
(dp492
g54
(dp493
g74
g75
ssg63
g487
sg56
(lp494
g326
asbag49
(g70
g51
NtRp495
(dp496
g54
(dp497
g81
g82
ssg63
g487
sg56
(lp498
S':'
asbag49
(g70
g51
NtRp499
(dp500
g54
(dp501
sg63
g487
sg56
(lp502
g49
(g50
g51
NtRp503
(dp504
g54
(dp505
g62
I3
ssg63
g499
sg56
(lp506
S''
asbasbasbag49
(g65
g51
NtRp507
(dp508
g54
(dp509
sg63
g423
sg56
(lp510
g49
(g70
g51
NtRp511
(dp512
g54
(dp513
g74
g75
ssg63
g507
sg56
(lp514
g347
asbag49
(g70
g51
NtRp515
(dp516
g54
(dp517
g81
g82
ssg63
g507
sg56
(lp518
S':'
asbag49
(g70
g51
NtRp519
(dp520
g54
(dp521
sg63
g507
sg56
(lp522
g49
(g50
g51
NtRp523
(dp524
g54
(dp525
g62
I3
ssg63
g519
sg56
(lp526
S''
asbasbasbag49
(g65
g51
NtRp527
(dp528
g54
(dp529
sg63
g423
sg56
(lp530
g49
(g70
g51
NtRp531
(dp532
g54
(dp533
g74
g75
ssg63
g527
sg56
(lp534
g368
asbag49
(g70
g51
NtRp535
(dp536
g54
(dp537
g81
g82
ssg63
g527
sg56
(lp538
S':'
asbag49
(g70
g51
NtRp539
(dp540
g54
(dp541
sg63
g527
sg56
(lp542
g49
(g50
g51
NtRp543
(dp544
g54
(dp545
g62
I3
ssg63
g539
sg56
(lp546
S''
asbasbasbag49
(g65
g51
NtRp547
(dp548
g54
(dp549
sg63
g423
sg56
(lp550
g49
(g70
g51
NtRp551
(dp552
g54
(dp553
g74
g75
ssg63
g547
sg56
(lp554
g389
asbag49
(g70
g51
NtRp555
(dp556
g54
(dp557
g81
g82
ssg63
g547
sg56
(lp558
S':'
asbag49
(g70
g51
NtRp559
(dp560
g54
(dp561
sg63
g547
sg56
(lp562
g49
(g50
g51
NtRp563
(dp564
g54
(dp565
g62
I3
ssg63
g559
sg56
(lp566
S''
asbasbasbasbasbasbasbag49
(g65
g51
NtRp567
(dp568
g54
(dp569
sg63
g226
sg56
(lp570
g49
(g70
g51
NtRp571
(dp572
g54
(dp573
g74
g75
ssg63
g567
sg56
(lp574
S'session_id_welcome'
p575
asbag49
(g70
g51
NtRp576
(dp577
g54
(dp578
g81
g82
ssg63
g567
sg56
(lp579
S':'
asbag49
(g70
g51
NtRp580
(dp581
g54
(dp582
sg63
g567
sg56
(lp583
g49
(g50
g51
NtRp584
(dp585
g54
(dp586
g62
I4
ssg63
g580
sg56
(lp587
g49
(g58
g51
NtRp588
(dp589
g54
(dp590
g62
I3
ssg63
Nsg56
(lp591
g49
(g65
g51
NtRp592
(dp593
g54
(dp594
sg63
g588
sg56
(lp595
g49
(g70
g51
NtRp596
(dp597
g54
(dp598
g74
g75
ssg63
g592
sg56
(lp599
g263
asbag49
(g70
g51
NtRp600
(dp601
g54
(dp602
g81
g82
ssg63
g592
sg56
(lp603
S':'
asbag49
(g70
g51
NtRp604
(dp605
g54
(dp606
sg63
g592
sg56
(lp607
g49
(g50
g51
NtRp608
(dp609
g54
(dp610
g62
I3
ssg63
g604
sg56
(lp611
S''
asbasbasbag49
(g65
g51
NtRp612
(dp613
g54
(dp614
sg63
g588
sg56
(lp615
g49
(g70
g51
NtRp616
(dp617
g54
(dp618
g74
g75
ssg63
g612
sg56
(lp619
g284
asbag49
(g70
g51
NtRp620
(dp621
g54
(dp622
g81
g82
ssg63
g612
sg56
(lp623
S':'
asbag49
(g70
g51
NtRp624
(dp625
g54
(dp626
sg63
g612
sg56
(lp627
g49
(g50
g51
NtRp628
(dp629
g54
(dp630
g62
I3
ssg63
g624
sg56
(lp631
S''
asbasbasbag49
(g65
g51
NtRp632
(dp633
g54
(dp634
sg63
g588
sg56
(lp635
g49
(g70
g51
NtRp636
(dp637
g54
(dp638
g74
g75
ssg63
g632
sg56
(lp639
g305
asbag49
(g70
g51
NtRp640
(dp641
g54
(dp642
g81
g82
ssg63
g632
sg56
(lp643
S':'
asbag49
(g70
g51
NtRp644
(dp645
g54
(dp646
sg63
g632
sg56
(lp647
g49
(g50
g51
NtRp648
(dp649
g54
(dp650
g62
I3
ssg63
g644
sg56
(lp651
S''
asbasbasbag49
(g65
g51
NtRp652
(dp653
g54
(dp654
sg63
g588
sg56
(lp655
g49
(g70
g51
NtRp656
(dp657
g54
(dp658
g74
g75
ssg63
g652
sg56
(lp659
g326
asbag49
(g70
g51
NtRp660
(dp661
g54
(dp662
g81
g82
ssg63
g652
sg56
(lp663
S':'
asbag49
(g70
g51
NtRp664
(dp665
g54
(dp666
sg63
g652
sg56
(lp667
g49
(g50
g51
NtRp668
(dp669
g54
(dp670
g62
I3
ssg63
g664
sg56
(lp671
S''
asbasbasbag49
(g65
g51
NtRp672
(dp673
g54
(dp674
sg63
g588
sg56
(lp675
g49
(g70
g51
NtRp676
(dp677
g54
(dp678
g74
g75
ssg63
g672
sg56
(lp679
g347
asbag49
(g70
g51
NtRp680
(dp681
g54
(dp682
g81
g82
ssg63
g672
sg56
(lp683
S':'
asbag49
(g70
g51
NtRp684
(dp685
g54
(dp686
sg63
g672
sg56
(lp687
g49
(g50
g51
NtRp688
(dp689
g54
(dp690
g62
I3
ssg63
g684
sg56
(lp691
S''
asbasbasbag49
(g65
g51
NtRp692
(dp693
g54
(dp694
sg63
g588
sg56
(lp695
g49
(g70
g51
NtRp696
(dp697
g54
(dp698
g74
g75
ssg63
g692
sg56
(lp699
g368
asbag49
(g70
g51
NtRp700
(dp701
g54
(dp702
g81
g82
ssg63
g692
sg56
(lp703
S':'
asbag49
(g70
g51
NtRp704
(dp705
g54
(dp706
sg63
g692
sg56
(lp707
g49
(g50
g51
NtRp708
(dp709
g54
(dp710
g62
I3
ssg63
g704
sg56
(lp711
S''
asbasbasbag49
(g65
g51
NtRp712
(dp713
g54
(dp714
sg63
g588
sg56
(lp715
g49
(g70
g51
NtRp716
(dp717
g54
(dp718
g74
g75
ssg63
g712
sg56
(lp719
g389
asbag49
(g70
g51
NtRp720
(dp721
g54
(dp722
g81
g82
ssg63
g712
sg56
(lp723
S':'
asbag49
(g70
g51
NtRp724
(dp725
g54
(dp726
sg63
g712
sg56
(lp727
g49
(g50
g51
NtRp728
(dp729
g54
(dp730
g62
I3
ssg63
g724
sg56
(lp731
S''
asbasbasbasbasbasbasbasbasbasbasbag49
(g65
g51
NtRp732
(dp733
g54
(dp734
sg63
g59
sg56
(lp735
g49
(g70
g51
NtRp736
(dp737
g54
(dp738
g74
g75
ssg63
g732
sg56
(lp739
S'env'
p740
asbag49
(g70
g51
NtRp741
(dp742
g54
(dp743
g81
g82
ssg63
g732
sg56
(lp744
S':'
asbag49
(g70
g51
NtRp745
(dp746
g54
(dp747
sg63
g732
sg56
(lp748
g49
(g50
g51
NtRp749
(dp750
g54
(dp751
g62
I5
ssg63
g745
sg56
(lp752
g49
(g58
g51
NtRp753
(dp754
g54
(dp755
g62
I4
ssg63
Nsg56
(lp756
g49
(g65
g51
NtRp757
(dp758
g54
(dp759
sg63
g753
sg56
(lp760
g49
(g70
g51
NtRp761
(dp762
g54
(dp763
g74
g75
ssg63
g757
sg56
(lp764
S'app_folders'
p765
asbag49
(g70
g51
NtRp766
(dp767
g54
(dp768
g81
g82
ssg63
g757
sg56
(lp769
S':'
asbag49
(g70
g51
NtRp770
(dp771
g54
(dp772
sg63
g757
sg56
(lp773
g49
(g50
g51
NtRp774
(dp775
g54
(dp776
g62
I4
ssg63
g770
sg56
(lp777
S"set(['C:\\\\Users\\\\ceasbpi\\\\Dropbox\\\\web2py\\\\applications\\\\admin\\\\', 'C:\\\\Users\\\\ceasbpi\\\\Dropbox\\\\web2py\\\\applications\\\\iguassupass\\\\', 'C:\\\\Users\\\\ceasbpi\\\\Dropbox\\\\web2py\\\\applications\\\\IguassuPass\\\\', 'C:\\\\Users\\\\ceasbpi\\\\Dropbox\\\\web2py\\\\applications\\\\welcome\\\\'])"
p778
asbasbasbag49
(g65
g51
NtRp779
(dp780
g54
(dp781
sg63
g753
sg56
(lp782
g49
(g70
g51
NtRp783
(dp784
g54
(dp785
g74
g75
ssg63
g779
sg56
(lp786
S'applications_parent'
p787
asbag49
(g70
g51
NtRp788
(dp789
g54
(dp790
g81
g82
ssg63
g779
sg56
(lp791
S':'
asbag49
(g70
g51
NtRp792
(dp793
g54
(dp794
sg63
g779
sg56
(lp795
g49
(g50
g51
NtRp796
(dp797
g54
(dp798
g62
I4
ssg63
g792
sg56
(lp799
S'C:\\Users\\ceasbpi\\Dropbox\\web2py'
p800
asbasbasbag49
(g65
g51
NtRp801
(dp802
g54
(dp803
sg63
g753
sg56
(lp804
g49
(g70
g51
NtRp805
(dp806
g54
(dp807
g74
g75
ssg63
g801
sg56
(lp808
S'cmd_args'
p809
asbag49
(g70
g51
NtRp810
(dp811
g54
(dp812
g81
g82
ssg63
g801
sg56
(lp813
S':'
asbag49
(g70
g51
NtRp814
(dp815
g54
(dp816
sg63
g801
sg56
(lp817
g49
(g50
g51
NtRp818
(dp819
g54
(dp820
g62
I4
ssg63
g814
sg56
(lp821
g49
(g58
g51
NtRp822
(dp823
g54
(dp824
g62
I3
ssg63
Nsg56
(lp825
sbasbasbasbag49
(g65
g51
NtRp826
(dp827
g54
(dp828
sg63
g753
sg56
(lp829
g49
(g70
g51
NtRp830
(dp831
g54
(dp832
g74
g75
ssg63
g826
sg56
(lp833
S'cmd_options'
p834
asbag49
(g70
g51
NtRp835
(dp836
g54
(dp837
g81
g82
ssg63
g826
sg56
(lp838
S':'
asbag49
(g70
g51
NtRp839
(dp840
g54
(dp841
sg63
g826
sg56
(lp842
g49
(g50
g51
NtRp843
(dp844
g54
(dp845
g62
I4
ssg63
g839
sg56
(lp846
S"<Values at 0x311dfd0: {'verbose': False, 'ip': '127.0.0.1', 'shutdown_timeout': 5, 'taskbar': False, 'nocron': False, 'pid_filename': 'httpserver.pid', 'maxthreads': None, 'softcron': False, 'server_name': 'W15869', 'bpython': False, 'nogui': False, 'port': 8000, 'extcron': False, 'debuglevel': 30, 'test': None, 'folder': 'C:\\\\Users\\\\ceasbpi\\\\Dropbox\\\\web2py', 'config': '', 'import_models': False, 'winservice': '', 'shell': None, 'run': '', 'log_filename': 'httpserver.log', 'args': [''], 'socket_timeout': 5, 'ssl_ca_certificate': None, 'scheduler': None, 'profiler_filename': None, 'ssl_private_key': '', 'password': '<ask>', 'request_queue_size': 5, 'ssl_certificate': '', 'cronjob': False, 'numthreads': None, 'quiet': False, 'interfaces': None, 'minthreads': None, 'timeout': 10, 'plain': False, 'nobanner': False}>"
p847
asbasbasbag49
(g65
g51
NtRp848
(dp849
g54
(dp850
sg63
g753
sg56
(lp851
g49
(g70
g51
NtRp852
(dp853
g54
(dp854
g74
g75
ssg63
g848
sg56
(lp855
S'db_sessions'
p856
asbag49
(g70
g51
NtRp857
(dp858
g54
(dp859
g81
g82
ssg63
g848
sg56
(lp860
S':'
asbag49
(g70
g51
NtRp861
(dp862
g54
(dp863
sg63
g848
sg56
(lp864
g49
(g50
g51
NtRp865
(dp866
g54
(dp867
g62
I4
ssg63
g861
sg56
(lp868
S'set([])'
p869
asbasbasbag49
(g65
g51
NtRp870
(dp871
g54
(dp872
sg63
g753
sg56
(lp873
g49
(g70
g51
NtRp874
(dp875
g54
(dp876
g74
g75
ssg63
g870
sg56
(lp877
S'debugging'
p878
asbag49
(g70
g51
NtRp879
(dp880
g54
(dp881
g81
g82
ssg63
g870
sg56
(lp882
S':'
asbag49
(g70
g51
NtRp883
(dp884
g54
(dp885
sg63
g870
sg56
(lp886
g49
(g50
g51
NtRp887
(dp888
g54
(dp889
g62
I4
ssg63
g883
sg56
(lp890
g92
asbasbasbag49
(g65
g51
NtRp891
(dp892
g54
(dp893
sg63
g753
sg56
(lp894
g49
(g70
g51
NtRp895
(dp896
g54
(dp897
g74
g75
ssg63
g891
sg56
(lp898
S'gluon_parent'
p899
asbag49
(g70
g51
NtRp900
(dp901
g54
(dp902
g81
g82
ssg63
g891
sg56
(lp903
S':'
asbag49
(g70
g51
NtRp904
(dp905
g54
(dp906
sg63
g891
sg56
(lp907
g49
(g50
g51
NtRp908
(dp909
g54
(dp910
g62
I4
ssg63
g904
sg56
(lp911
S'C:\\Users\\ceasbpi\\Dropbox\\web2py'
p912
asbasbasbag49
(g65
g51
NtRp913
(dp914
g54
(dp915
sg63
g753
sg56
(lp916
g49
(g70
g51
NtRp917
(dp918
g54
(dp919
g74
g75
ssg63
g913
sg56
(lp920
S'http_accept'
p921
asbag49
(g70
g51
NtRp922
(dp923
g54
(dp924
g81
g82
ssg63
g913
sg56
(lp925
S':'
asbag49
(g70
g51
NtRp926
(dp927
g54
(dp928
sg63
g913
sg56
(lp929
g49
(g50
g51
NtRp930
(dp931
g54
(dp932
g62
I4
ssg63
g926
sg56
(lp933
S'text/html,application/xhtml+xml,application/xml;q=0.9,*/*;q=0.8'
p934
asbasbasbag49
(g65
g51
NtRp935
(dp936
g54
(dp937
sg63
g753
sg56
(lp938
g49
(g70
g51
NtRp939
(dp940
g54
(dp941
g74
g75
ssg63
g935
sg56
(lp942
S'http_accept_charset'
p943
asbag49
(g70
g51
NtRp944
(dp945
g54
(dp946
g81
g82
ssg63
g935
sg56
(lp947
S':'
asbag49
(g70
g51
NtRp948
(dp949
g54
(dp950
sg63
g935
sg56
(lp951
g49
(g50
g51
NtRp952
(dp953
g54
(dp954
g62
I4
ssg63
g948
sg56
(lp955
S'ISO-8859-1,utf-8;q=0.7,*;q=0.3'
p956
asbasbasbag49
(g65
g51
NtRp957
(dp958
g54
(dp959
sg63
g753
sg56
(lp960
g49
(g70
g51
NtRp961
(dp962
g54
(dp963
g74
g75
ssg63
g957
sg56
(lp964
S'http_accept_encoding'
p965
asbag49
(g70
g51
NtRp966
(dp967
g54
(dp968
g81
g82
ssg63
g957
sg56
(lp969
S':'
asbag49
(g70
g51
NtRp970
(dp971
g54
(dp972
sg63
g957
sg56
(lp973
g49
(g50
g51
NtRp974
(dp975
g54
(dp976
g62
I4
ssg63
g970
sg56
(lp977
S'gzip,deflate,sdch'
p978
asbasbasbag49
(g65
g51
NtRp979
(dp980
g54
(dp981
sg63
g753
sg56
(lp982
g49
(g70
g51
NtRp983
(dp984
g54
(dp985
g74
g75
ssg63
g979
sg56
(lp986
S'http_accept_language'
p987
asbag49
(g70
g51
NtRp988
(dp989
g54
(dp990
g81
g82
ssg63
g979
sg56
(lp991
S':'
asbag49
(g70
g51
NtRp992
(dp993
g54
(dp994
sg63
g979
sg56
(lp995
g49
(g50
g51
NtRp996
(dp997
g54
(dp998
g62
I4
ssg63
g992
sg56
(lp999
S'pt-BR,pt;q=0.8,en-US;q=0.6,en;q=0.4'
p1000
asbasbasbag49
(g65
g51
NtRp1001
(dp1002
g54
(dp1003
sg63
g753
sg56
(lp1004
g49
(g70
g51
NtRp1005
(dp1006
g54
(dp1007
g74
g75
ssg63
g1001
sg56
(lp1008
S'http_cache_control'
p1009
asbag49
(g70
g51
NtRp1010
(dp1011
g54
(dp1012
g81
g82
ssg63
g1001
sg56
(lp1013
S':'
asbag49
(g70
g51
NtRp1014
(dp1015
g54
(dp1016
sg63
g1001
sg56
(lp1017
g49
(g50
g51
NtRp1018
(dp1019
g54
(dp1020
g62
I4
ssg63
g1014
sg56
(lp1021
S'max-age=0'
p1022
asbasbasbag49
(g65
g51
NtRp1023
(dp1024
g54
(dp1025
sg63
g753
sg56
(lp1026
g49
(g70
g51
NtRp1027
(dp1028
g54
(dp1029
g74
g75
ssg63
g1023
sg56
(lp1030
S'http_connection'
p1031
asbag49
(g70
g51
NtRp1032
(dp1033
g54
(dp1034
g81
g82
ssg63
g1023
sg56
(lp1035
S':'
asbag49
(g70
g51
NtRp1036
(dp1037
g54
(dp1038
sg63
g1023
sg56
(lp1039
g49
(g50
g51
NtRp1040
(dp1041
g54
(dp1042
g62
I4
ssg63
g1036
sg56
(lp1043
S'keep-alive'
p1044
asbasbasbag49
(g65
g51
NtRp1045
(dp1046
g54
(dp1047
sg63
g753
sg56
(lp1048
g49
(g70
g51
NtRp1049
(dp1050
g54
(dp1051
g74
g75
ssg63
g1045
sg56
(lp1052
S'http_cookie'
p1053
asbag49
(g70
g51
NtRp1054
(dp1055
g54
(dp1056
g81
g82
ssg63
g1045
sg56
(lp1057
S':'
asbag49
(g70
g51
NtRp1058
(dp1059
g54
(dp1060
sg63
g1045
sg56
(lp1061
g49
(g50
g51
NtRp1062
(dp1063
g54
(dp1064
g62
I4
ssg63
g1058
sg56
(lp1065
S'session_id_welcome=127.0.0.1-841022b0-55e3-4081-b637-d1f9630f75df; session_id_iguassupass=127.0.0.1-0ebf5fce-933e-4652-8d87-32a636575dba; session_id_admin=127.0.0.1-e8923c4c-4d6b-4628-962e-b272279de14c'
p1066
asbasbasbag49
(g65
g51
NtRp1067
(dp1068
g54
(dp1069
sg63
g753
sg56
(lp1070
g49
(g70
g51
NtRp1071
(dp1072
g54
(dp1073
g74
g75
ssg63
g1067
sg56
(lp1074
S'http_host'
p1075
asbag49
(g70
g51
NtRp1076
(dp1077
g54
(dp1078
g81
g82
ssg63
g1067
sg56
(lp1079
S':'
asbag49
(g70
g51
NtRp1080
(dp1081
g54
(dp1082
sg63
g1067
sg56
(lp1083
g49
(g50
g51
NtRp1084
(dp1085
g54
(dp1086
g62
I4
ssg63
g1080
sg56
(lp1087
S'localhost:8000'
p1088
asbasbasbag49
(g65
g51
NtRp1089
(dp1090
g54
(dp1091
sg63
g753
sg56
(lp1092
g49
(g70
g51
NtRp1093
(dp1094
g54
(dp1095
g74
g75
ssg63
g1089
sg56
(lp1096
S'http_user_agent'
p1097
asbag49
(g70
g51
NtRp1098
(dp1099
g54
(dp1100
g81
g82
ssg63
g1089
sg56
(lp1101
S':'
asbag49
(g70
g51
NtRp1102
(dp1103
g54
(dp1104
sg63
g1089
sg56
(lp1105
g49
(g50
g51
NtRp1106
(dp1107
g54
(dp1108
g62
I4
ssg63
g1102
sg56
(lp1109
S'Mozilla/5.0 (Windows NT 6.1; WOW64) AppleWebKit/537.1 (KHTML, like Gecko) Chrome/21.0.1180.83 Safari/537.1'
p1110
asbasbasbag49
(g65
g51
NtRp1111
(dp1112
g54
(dp1113
sg63
g753
sg56
(lp1114
g49
(g70
g51
NtRp1115
(dp1116
g54
(dp1117
g74
g75
ssg63
g1111
sg56
(lp1118
S'is_jython'
p1119
asbag49
(g70
g51
NtRp1120
(dp1121
g54
(dp1122
g81
g82
ssg63
g1111
sg56
(lp1123
S':'
asbag49
(g70
g51
NtRp1124
(dp1125
g54
(dp1126
sg63
g1111
sg56
(lp1127
g49
(g50
g51
NtRp1128
(dp1129
g54
(dp1130
g62
I4
ssg63
g1124
sg56
(lp1131
g92
asbasbasbag49
(g65
g51
NtRp1132
(dp1133
g54
(dp1134
sg63
g753
sg56
(lp1135
g49
(g70
g51
NtRp1136
(dp1137
g54
(dp1138
g74
g75
ssg63
g1132
sg56
(lp1139
S'is_pypy'
p1140
asbag49
(g70
g51
NtRp1141
(dp1142
g54
(dp1143
g81
g82
ssg63
g1132
sg56
(lp1144
S':'
asbag49
(g70
g51
NtRp1145
(dp1146
g54
(dp1147
sg63
g1132
sg56
(lp1148
g49
(g50
g51
NtRp1149
(dp1150
g54
(dp1151
g62
I4
ssg63
g1145
sg56
(lp1152
g92
asbasbasbag49
(g65
g51
NtRp1153
(dp1154
g54
(dp1155
sg63
g753
sg56
(lp1156
g49
(g70
g51
NtRp1157
(dp1158
g54
(dp1159
g74
g75
ssg63
g1153
sg56
(lp1160
S'path_info'
p1161
asbag49
(g70
g51
NtRp1162
(dp1163
g54
(dp1164
g81
g82
ssg63
g1153
sg56
(lp1165
S':'
asbag49
(g70
g51
NtRp1166
(dp1167
g54
(dp1168
sg63
g1153
sg56
(lp1169
g49
(g50
g51
NtRp1170
(dp1171
g54
(dp1172
g62
I4
ssg63
g1166
sg56
(lp1173
S'/IguassuPass/default/atracoes'
p1174
asbasbasbag49
(g65
g51
NtRp1175
(dp1176
g54
(dp1177
sg63
g753
sg56
(lp1178
g49
(g70
g51
NtRp1179
(dp1180
g54
(dp1181
g74
g75
ssg63
g1175
sg56
(lp1182
S'query_string'
p1183
asbag49
(g70
g51
NtRp1184
(dp1185
g54
(dp1186
g81
g82
ssg63
g1175
sg56
(lp1187
S':'
asbag49
(g70
g51
NtRp1188
(dp1189
g54
(dp1190
sg63
g1175
sg56
(lp1191
g49
(g50
g51
NtRp1192
(dp1193
g54
(dp1194
g62
I4
ssg63
g1188
sg56
(lp1195
S''
asbasbasbag49
(g65
g51
NtRp1196
(dp1197
g54
(dp1198
sg63
g753
sg56
(lp1199
g49
(g70
g51
NtRp1200
(dp1201
g54
(dp1202
g74
g75
ssg63
g1196
sg56
(lp1203
S'remote_addr'
p1204
asbag49
(g70
g51
NtRp1205
(dp1206
g54
(dp1207
g81
g82
ssg63
g1196
sg56
(lp1208
S':'
asbag49
(g70
g51
NtRp1209
(dp1210
g54
(dp1211
sg63
g1196
sg56
(lp1212
g49
(g50
g51
NtRp1213
(dp1214
g54
(dp1215
g62
I4
ssg63
g1209
sg56
(lp1216
g182
asbasbasbag49
(g65
g51
NtRp1217
(dp1218
g54
(dp1219
sg63
g753
sg56
(lp1220
g49
(g70
g51
NtRp1221
(dp1222
g54
(dp1223
g74
g75
ssg63
g1217
sg56
(lp1224
S'remote_port'
p1225
asbag49
(g70
g51
NtRp1226
(dp1227
g54
(dp1228
g81
g82
ssg63
g1217
sg56
(lp1229
S':'
asbag49
(g70
g51
NtRp1230
(dp1231
g54
(dp1232
sg63
g1217
sg56
(lp1233
g49
(g50
g51
NtRp1234
(dp1235
g54
(dp1236
g62
I4
ssg63
g1230
sg56
(lp1237
S'52313'
p1238
asbasbasbag49
(g65
g51
NtRp1239
(dp1240
g54
(dp1241
sg63
g753
sg56
(lp1242
g49
(g70
g51
NtRp1243
(dp1244
g54
(dp1245
g74
g75
ssg63
g1239
sg56
(lp1246
S'request_method'
p1247
asbag49
(g70
g51
NtRp1248
(dp1249
g54
(dp1250
g81
g82
ssg63
g1239
sg56
(lp1251
S':'
asbag49
(g70
g51
NtRp1252
(dp1253
g54
(dp1254
sg63
g1239
sg56
(lp1255
g49
(g50
g51
NtRp1256
(dp1257
g54
(dp1258
g62
I4
ssg63
g1252
sg56
(lp1259
S'GET'
p1260
asbasbasbag49
(g65
g51
NtRp1261
(dp1262
g54
(dp1263
sg63
g753
sg56
(lp1264
g49
(g70
g51
NtRp1265
(dp1266
g54
(dp1267
g74
g75
ssg63
g1261
sg56
(lp1268
S'script_name'
p1269
asbag49
(g70
g51
NtRp1270
(dp1271
g54
(dp1272
g81
g82
ssg63
g1261
sg56
(lp1273
S':'
asbag49
(g70
g51
NtRp1274
(dp1275
g54
(dp1276
sg63
g1261
sg56
(lp1277
g49
(g50
g51
NtRp1278
(dp1279
g54
(dp1280
g62
I4
ssg63
g1274
sg56
(lp1281
S''
asbasbasbag49
(g65
g51
NtRp1282
(dp1283
g54
(dp1284
sg63
g753
sg56
(lp1285
g49
(g70
g51
NtRp1286
(dp1287
g54
(dp1288
g74
g75
ssg63
g1282
sg56
(lp1289
S'server_name'
p1290
asbag49
(g70
g51
NtRp1291
(dp1292
g54
(dp1293
g81
g82
ssg63
g1282
sg56
(lp1294
S':'
asbag49
(g70
g51
NtRp1295
(dp1296
g54
(dp1297
sg63
g1282
sg56
(lp1298
g49
(g50
g51
NtRp1299
(dp1300
g54
(dp1301
g62
I4
ssg63
g1295
sg56
(lp1302
S'W15869'
p1303
asbasbasbag49
(g65
g51
NtRp1304
(dp1305
g54
(dp1306
sg63
g753
sg56
(lp1307
g49
(g70
g51
NtRp1308
(dp1309
g54
(dp1310
g74
g75
ssg63
g1304
sg56
(lp1311
S'server_port'
p1312
asbag49
(g70
g51
NtRp1313
(dp1314
g54
(dp1315
g81
g82
ssg63
g1304
sg56
(lp1316
S':'
asbag49
(g70
g51
NtRp1317
(dp1318
g54
(dp1319
sg63
g1304
sg56
(lp1320
g49
(g50
g51
NtRp1321
(dp1322
g54
(dp1323
g62
I4
ssg63
g1317
sg56
(lp1324
S'8000'
p1325
asbasbasbag49
(g65
g51
NtRp1326
(dp1327
g54
(dp1328
sg63
g753
sg56
(lp1329
g49
(g70
g51
NtRp1330
(dp1331
g54
(dp1332
g74
g75
ssg63
g1326
sg56
(lp1333
S'server_protocol'
p1334
asbag49
(g70
g51
NtRp1335
(dp1336
g54
(dp1337
g81
g82
ssg63
g1326
sg56
(lp1338
S':'
asbag49
(g70
g51
NtRp1339
(dp1340
g54
(dp1341
sg63
g1326
sg56
(lp1342
g49
(g50
g51
NtRp1343
(dp1344
g54
(dp1345
g62
I4
ssg63
g1339
sg56
(lp1346
S'HTTP/1.1'
p1347
asbasbasbag49
(g65
g51
NtRp1348
(dp1349
g54
(dp1350
sg63
g753
sg56
(lp1351
g49
(g70
g51
NtRp1352
(dp1353
g54
(dp1354
g74
g75
ssg63
g1348
sg56
(lp1355
S'server_software'
p1356
asbag49
(g70
g51
NtRp1357
(dp1358
g54
(dp1359
g81
g82
ssg63
g1348
sg56
(lp1360
S':'
asbag49
(g70
g51
NtRp1361
(dp1362
g54
(dp1363
sg63
g1348
sg56
(lp1364
g49
(g50
g51
NtRp1365
(dp1366
g54
(dp1367
g62
I4
ssg63
g1361
sg56
(lp1368
S'Rocket 1.2.4'
p1369
asbasbasbag49
(g65
g51
NtRp1370
(dp1371
g54
(dp1372
sg63
g753
sg56
(lp1373
g49
(g70
g51
NtRp1374
(dp1375
g54
(dp1376
g74
g75
ssg63
g1370
sg56
(lp1377
S'web2py_crontype'
p1378
asbag49
(g70
g51
NtRp1379
(dp1380
g54
(dp1381
g81
g82
ssg63
g1370
sg56
(lp1382
S':'
asbag49
(g70
g51
NtRp1383
(dp1384
g54
(dp1385
sg63
g1370
sg56
(lp1386
g49
(g50
g51
NtRp1387
(dp1388
g54
(dp1389
g62
I4
ssg63
g1383
sg56
(lp1390
S'hard'
p1391
asbasbasbag49
(g65
g51
NtRp1392
(dp1393
g54
(dp1394
sg63
g753
sg56
(lp1395
g49
(g70
g51
NtRp1396
(dp1397
g54
(dp1398
g74
g75
ssg63
g1392
sg56
(lp1399
S'web2py_path'
p1400
asbag49
(g70
g51
NtRp1401
(dp1402
g54
(dp1403
g81
g82
ssg63
g1392
sg56
(lp1404
S':'
asbag49
(g70
g51
NtRp1405
(dp1406
g54
(dp1407
sg63
g1392
sg56
(lp1408
g49
(g50
g51
NtRp1409
(dp1410
g54
(dp1411
g62
I4
ssg63
g1405
sg56
(lp1412
g800
asbasbasbag49
(g65
g51
NtRp1413
(dp1414
g54
(dp1415
sg63
g753
sg56
(lp1416
g49
(g70
g51
NtRp1417
(dp1418
g54
(dp1419
g74
g75
ssg63
g1413
sg56
(lp1420
S'web2py_version'
p1421
asbag49
(g70
g51
NtRp1422
(dp1423
g54
(dp1424
g81
g82
ssg63
g1413
sg56
(lp1425
S':'
asbag49
(g70
g51
NtRp1426
(dp1427
g54
(dp1428
sg63
g1413
sg56
(lp1429
g49
(g50
g51
NtRp1430
(dp1431
g54
(dp1432
g62
I4
ssg63
g1426
sg56
(lp1433
g49
(g58
g51
NtRp1434
(dp1435
g54
(dp1436
g62
I3
ssg63
Nsg56
(lp1437
g49
(g65
g51
NtRp1438
(dp1439
g54
(dp1440
sg63
g1434
sg56
(lp1441
g49
(g70
g51
NtRp1442
(dp1443
g54
(dp1444
sg63
g1438
sg56
(lp1445
g49
(g50
g51
NtRp1446
(dp1447
g54
(dp1448
g62
I3
ssg63
g1442
sg56
(lp1449
S'1'
asbasbasbag49
(g65
g51
NtRp1450
(dp1451
g54
(dp1452
sg63
g1434
sg56
(lp1453
g49
(g70
g51
NtRp1454
(dp1455
g54
(dp1456
sg63
g1450
sg56
(lp1457
g49
(g50
g51
NtRp1458
(dp1459
g54
(dp1460
g62
I3
ssg63
g1454
sg56
(lp1461
S'99'
p1462
asbasbasbag49
(g65
g51
NtRp1463
(dp1464
g54
(dp1465
sg63
g1434
sg56
(lp1466
g49
(g70
g51
NtRp1467
(dp1468
g54
(dp1469
sg63
g1463
sg56
(lp1470
g49
(g50
g51
NtRp1471
(dp1472
g54
(dp1473
g62
I3
ssg63
g1467
sg56
(lp1474
S'7'
asbasbasbag49
(g65
g51
NtRp1475
(dp1476
g54
(dp1477
sg63
g1434
sg56
(lp1478
g49
(g70
g51
NtRp1479
(dp1480
g54
(dp1481
sg63
g1475
sg56
(lp1482
g49
(g50
g51
NtRp1483
(dp1484
g54
(dp1485
g62
I3
ssg63
g1479
sg56
(lp1486
S'datetime.datetime(2012, 3, 4, 22, 12, 8)'
p1487
asbasbasbag49
(g65
g51
NtRp1488
(dp1489
g54
(dp1490
sg63
g1434
sg56
(lp1491
g49
(g70
g51
NtRp1492
(dp1493
g54
(dp1494
sg63
g1488
sg56
(lp1495
g49
(g50
g51
NtRp1496
(dp1497
g54
(dp1498
g62
I3
ssg63
g1492
sg56
(lp1499
S'stable'
p1500
asbasbasbasbasbasbasbag49
(g65
g51
NtRp1501
(dp1502
g54
(dp1503
sg63
g753
sg56
(lp1504
g49
(g70
g51
NtRp1505
(dp1506
g54
(dp1507
g74
g75
ssg63
g1501
sg56
(lp1508
S'wsgi_errors'
p1509
asbag49
(g70
g51
NtRp1510
(dp1511
g54
(dp1512
g81
g82
ssg63
g1501
sg56
(lp1513
S':'
asbag49
(g70
g51
NtRp1514
(dp1515
g54
(dp1516
sg63
g1501
sg56
(lp1517
g49
(g50
g51
NtRp1518
(dp1519
g54
(dp1520
g62
I4
ssg63
g1514
sg56
(lp1521
S"<open file '<stderr>', mode 'w' at 0x002500B0>"
p1522
asbasbasbag49
(g65
g51
NtRp1523
(dp1524
g54
(dp1525
sg63
g753
sg56
(lp1526
g49
(g70
g51
NtRp1527
(dp1528
g54
(dp1529
g74
g75
ssg63
g1523
sg56
(lp1530
S'wsgi_file_wrapper'
p1531
asbag49
(g70
g51
NtRp1532
(dp1533
g54
(dp1534
g81
g82
ssg63
g1523
sg56
(lp1535
S':'
asbag49
(g70
g51
NtRp1536
(dp1537
g54
(dp1538
sg63
g1523
sg56
(lp1539
g49
(g50
g51
NtRp1540
(dp1541
g54
(dp1542
g62
I4
ssg63
g1536
sg56
(lp1543
S'<class wsgiref.util.FileWrapper at 0x02E8D360>'
p1544
asbasbasbag49
(g65
g51
NtRp1545
(dp1546
g54
(dp1547
sg63
g753
sg56
(lp1548
g49
(g70
g51
NtRp1549
(dp1550
g54
(dp1551
g74
g75
ssg63
g1545
sg56
(lp1552
S'wsgi_input'
p1553
asbag49
(g70
g51
NtRp1554
(dp1555
g54
(dp1556
g81
g82
ssg63
g1545
sg56
(lp1557
S':'
asbag49
(g70
g51
NtRp1558
(dp1559
g54
(dp1560
sg63
g1545
sg56
(lp1561
g49
(g50
g51
NtRp1562
(dp1563
g54
(dp1564
g62
I4
ssg63
g1558
sg56
(lp1565
S'<socket._fileobject object at 0x07DCB630>'
p1566
asbasbasbag49
(g65
g51
NtRp1567
(dp1568
g54
(dp1569
sg63
g753
sg56
(lp1570
g49
(g70
g51
NtRp1571
(dp1572
g54
(dp1573
g74
g75
ssg63
g1567
sg56
(lp1574
S'wsgi_multiprocess'
p1575
asbag49
(g70
g51
NtRp1576
(dp1577
g54
(dp1578
g81
g82
ssg63
g1567
sg56
(lp1579
S':'
asbag49
(g70
g51
NtRp1580
(dp1581
g54
(dp1582
sg63
g1567
sg56
(lp1583
g49
(g50
g51
NtRp1584
(dp1585
g54
(dp1586
g62
I4
ssg63
g1580
sg56
(lp1587
g92
asbasbasbag49
(g65
g51
NtRp1588
(dp1589
g54
(dp1590
sg63
g753
sg56
(lp1591
g49
(g70
g51
NtRp1592
(dp1593
g54
(dp1594
g74
g75
ssg63
g1588
sg56
(lp1595
S'wsgi_multithread'
p1596
asbag49
(g70
g51
NtRp1597
(dp1598
g54
(dp1599
g81
g82
ssg63
g1588
sg56
(lp1600
S':'
asbag49
(g70
g51
NtRp1601
(dp1602
g54
(dp1603
sg63
g1588
sg56
(lp1604
g49
(g50
g51
NtRp1605
(dp1606
g54
(dp1607
g62
I4
ssg63
g1601
sg56
(lp1608
S'True'
p1609
asbasbasbag49
(g65
g51
NtRp1610
(dp1611
g54
(dp1612
sg63
g753
sg56
(lp1613
g49
(g70
g51
NtRp1614
(dp1615
g54
(dp1616
g74
g75
ssg63
g1610
sg56
(lp1617
S'wsgi_run_once'
p1618
asbag49
(g70
g51
NtRp1619
(dp1620
g54
(dp1621
g81
g82
ssg63
g1610
sg56
(lp1622
S':'
asbag49
(g70
g51
NtRp1623
(dp1624
g54
(dp1625
sg63
g1610
sg56
(lp1626
g49
(g50
g51
NtRp1627
(dp1628
g54
(dp1629
g62
I4
ssg63
g1623
sg56
(lp1630
g92
asbasbasbag49
(g65
g51
NtRp1631
(dp1632
g54
(dp1633
sg63
g753
sg56
(lp1634
g49
(g70
g51
NtRp1635
(dp1636
g54
(dp1637
g74
g75
ssg63
g1631
sg56
(lp1638
S'wsgi_url_scheme'
p1639
asbag49
(g70
g51
NtRp1640
(dp1641
g54
(dp1642
g81
g82
ssg63
g1631
sg56
(lp1643
S':'
asbag49
(g70
g51
NtRp1644
(dp1645
g54
(dp1646
sg63
g1631
sg56
(lp1647
g49
(g50
g51
NtRp1648
(dp1649
g54
(dp1650
g62
I4
ssg63
g1644
sg56
(lp1651
S'http'
p1652
asbasbasbag49
(g65
g51
NtRp1653
(dp1654
g54
(dp1655
sg63
g753
sg56
(lp1656
g49
(g70
g51
NtRp1657
(dp1658
g54
(dp1659
g74
g75
ssg63
g1653
sg56
(lp1660
S'wsgi_version'
p1661
asbag49
(g70
g51
NtRp1662
(dp1663
g54
(dp1664
g81
g82
ssg63
g1653
sg56
(lp1665
S':'
asbag49
(g70
g51
NtRp1666
(dp1667
g54
(dp1668
sg63
g1653
sg56
(lp1669
g49
(g50
g51
NtRp1670
(dp1671
g54
(dp1672
g62
I4
ssg63
g1666
sg56
(lp1673
g49
(g58
g51
NtRp1674
(dp1675
g54
(dp1676
g62
I3
ssg63
Nsg56
(lp1677
g49
(g65
g51
NtRp1678
(dp1679
g54
(dp1680
sg63
g1674
sg56
(lp1681
g49
(g70
g51
NtRp1682
(dp1683
g54
(dp1684
sg63
g1678
sg56
(lp1685
g49
(g50
g51
NtRp1686
(dp1687
g54
(dp1688
g62
I3
ssg63
g1682
sg56
(lp1689
S'1'
asbasbasbag49
(g65
g51
NtRp1690
(dp1691
g54
(dp1692
sg63
g1674
sg56
(lp1693
g49
(g70
g51
NtRp1694
(dp1695
g54
(dp1696
sg63
g1690
sg56
(lp1697
g49
(g50
g51
NtRp1698
(dp1699
g54
(dp1700
g62
I3
ssg63
g1694
sg56
(lp1701
S'0'
asbasbasbasbasbasbasbasbasbasbasbag49
(g65
g51
NtRp1702
(dp1703
g54
(dp1704
sg63
g59
sg56
(lp1705
g49
(g70
g51
NtRp1706
(dp1707
g54
(dp1708
g74
g75
ssg63
g1702
sg56
(lp1709
S'extension'
p1710
asbag49
(g70
g51
NtRp1711
(dp1712
g54
(dp1713
g81
g82
ssg63
g1702
sg56
(lp1714
S':'
asbag49
(g70
g51
NtRp1715
(dp1716
g54
(dp1717
sg63
g1702
sg56
(lp1718
g49
(g50
g51
NtRp1719
(dp1720
g54
(dp1721
g62
I5
ssg63
g1715
sg56
(lp1722
S'html'
p1723
asbasbasbag49
(g65
g51
NtRp1724
(dp1725
g54
(dp1726
sg63
g59
sg56
(lp1727
g49
(g70
g51
NtRp1728
(dp1729
g54
(dp1730
g74
g75
ssg63
g1724
sg56
(lp1731
S'folder'
p1732
asbag49
(g70
g51
NtRp1733
(dp1734
g54
(dp1735
g81
g82
ssg63
g1724
sg56
(lp1736
S':'
asbag49
(g70
g51
NtRp1737
(dp1738
g54
(dp1739
sg63
g1724
sg56
(lp1740
g49
(g50
g51
NtRp1741
(dp1742
g54
(dp1743
g62
I5
ssg63
g1737
sg56
(lp1744
S'C:\\Users\\ceasbpi\\Dropbox\\web2py\\applications\\IguassuPass\\'
p1745
asbasbasbag49
(g65
g51
NtRp1746
(dp1747
g54
(dp1748
sg63
g59
sg56
(lp1749
g49
(g70
g51
NtRp1750
(dp1751
g54
(dp1752
g74
g75
ssg63
g1746
sg56
(lp1753
S'function'
p1754
asbag49
(g70
g51
NtRp1755
(dp1756
g54
(dp1757
g81
g82
ssg63
g1746
sg56
(lp1758
S':'
asbag49
(g70
g51
NtRp1759
(dp1760
g54
(dp1761
sg63
g1746
sg56
(lp1762
g49
(g50
g51
NtRp1763
(dp1764
g54
(dp1765
g62
I5
ssg63
g1759
sg56
(lp1766
S'atracoes'
p1767
asbasbasbag49
(g65
g51
NtRp1768
(dp1769
g54
(dp1770
sg63
g59
sg56
(lp1771
g49
(g70
g51
NtRp1772
(dp1773
g54
(dp1774
g74
g75
ssg63
g1768
sg56
(lp1775
S'get_vars'
p1776
asbag49
(g70
g51
NtRp1777
(dp1778
g54
(dp1779
g81
g82
ssg63
g1768
sg56
(lp1780
S':'
asbag49
(g70
g51
NtRp1781
(dp1782
g54
(dp1783
sg63
g1768
sg56
(lp1784
g49
(g50
g51
NtRp1785
(dp1786
g54
(dp1787
g62
I5
ssg63
g1781
sg56
(lp1788
g49
(g58
g51
NtRp1789
(dp1790
g54
(dp1791
g62
I4
ssg63
Nsg56
(lp1792
sbasbasbasbag49
(g65
g51
NtRp1793
(dp1794
g54
(dp1795
sg63
g59
sg56
(lp1796
g49
(g70
g51
NtRp1797
(dp1798
g54
(dp1799
g74
g75
ssg63
g1793
sg56
(lp1800
S'global_settings'
p1801
asbag49
(g70
g51
NtRp1802
(dp1803
g54
(dp1804
g81
g82
ssg63
g1793
sg56
(lp1805
S':'
asbag49
(g70
g51
NtRp1806
(dp1807
g54
(dp1808
sg63
g1793
sg56
(lp1809
g49
(g50
g51
NtRp1810
(dp1811
g54
(dp1812
g62
I5
ssg63
g1806
sg56
(lp1813
g49
(g58
g51
NtRp1814
(dp1815
g54
(dp1816
g62
I4
ssg63
Nsg56
(lp1817
g49
(g65
g51
NtRp1818
(dp1819
g54
(dp1820
sg63
g1814
sg56
(lp1821
g49
(g70
g51
NtRp1822
(dp1823
g54
(dp1824
g74
g75
ssg63
g1818
sg56
(lp1825
g765
asbag49
(g70
g51
NtRp1826
(dp1827
g54
(dp1828
g81
g82
ssg63
g1818
sg56
(lp1829
S':'
asbag49
(g70
g51
NtRp1830
(dp1831
g54
(dp1832
sg63
g1818
sg56
(lp1833
g49
(g50
g51
NtRp1834
(dp1835
g54
(dp1836
g62
I4
ssg63
g1830
sg56
(lp1837
S"set(['C:\\\\Users\\\\ceasbpi\\\\Dropbox\\\\web2py\\\\applications\\\\admin\\\\', 'C:\\\\Users\\\\ceasbpi\\\\Dropbox\\\\web2py\\\\applications\\\\iguassupass\\\\', 'C:\\\\Users\\\\ceasbpi\\\\Dropbox\\\\web2py\\\\applications\\\\IguassuPass\\\\', 'C:\\\\Users\\\\ceasbpi\\\\Dropbox\\\\web2py\\\\applications\\\\welcome\\\\'])"
p1838
asbasbasbag49
(g65
g51
NtRp1839
(dp1840
g54
(dp1841
sg63
g1814
sg56
(lp1842
g49
(g70
g51
NtRp1843
(dp1844
g54
(dp1845
g74
g75
ssg63
g1839
sg56
(lp1846
g787
asbag49
(g70
g51
NtRp1847
(dp1848
g54
(dp1849
g81
g82
ssg63
g1839
sg56
(lp1850
S':'
asbag49
(g70
g51
NtRp1851
(dp1852
g54
(dp1853
sg63
g1839
sg56
(lp1854
g49
(g50
g51
NtRp1855
(dp1856
g54
(dp1857
g62
I4
ssg63
g1851
sg56
(lp1858
g800
asbasbasbag49
(g65
g51
NtRp1859
(dp1860
g54
(dp1861
sg63
g1814
sg56
(lp1862
g49
(g70
g51
NtRp1863
(dp1864
g54
(dp1865
g74
g75
ssg63
g1859
sg56
(lp1866
g809
asbag49
(g70
g51
NtRp1867
(dp1868
g54
(dp1869
g81
g82
ssg63
g1859
sg56
(lp1870
S':'
asbag49
(g70
g51
NtRp1871
(dp1872
g54
(dp1873
sg63
g1859
sg56
(lp1874
g49
(g50
g51
NtRp1875
(dp1876
g54
(dp1877
g62
I4
ssg63
g1871
sg56
(lp1878
g49
(g58
g51
NtRp1879
(dp1880
g54
(dp1881
g62
I3
ssg63
Nsg56
(lp1882
sbasbasbasbag49
(g65
g51
NtRp1883
(dp1884
g54
(dp1885
sg63
g1814
sg56
(lp1886
g49
(g70
g51
NtRp1887
(dp1888
g54
(dp1889
g74
g75
ssg63
g1883
sg56
(lp1890
g834
asbag49
(g70
g51
NtRp1891
(dp1892
g54
(dp1893
g81
g82
ssg63
g1883
sg56
(lp1894
S':'
asbag49
(g70
g51
NtRp1895
(dp1896
g54
(dp1897
sg63
g1883
sg56
(lp1898
g49
(g50
g51
NtRp1899
(dp1900
g54
(dp1901
g62
I4
ssg63
g1895
sg56
(lp1902
S"<Values at 0x311dfd0: {'verbose': False, 'ip': '127.0.0.1', 'shutdown_timeout': 5, 'taskbar': False, 'nocron': False, 'pid_filename': 'httpserver.pid', 'maxthreads': None, 'softcron': False, 'server_name': 'W15869', 'bpython': False, 'nogui': False, 'port': 8000, 'extcron': False, 'debuglevel': 30, 'test': None, 'folder': 'C:\\\\Users\\\\ceasbpi\\\\Dropbox\\\\web2py', 'config': '', 'import_models': False, 'winservice': '', 'shell': None, 'run': '', 'log_filename': 'httpserver.log', 'args': [''], 'socket_timeout': 5, 'ssl_ca_certificate': None, 'scheduler': None, 'profiler_filename': None, 'ssl_private_key': '', 'password': '<ask>', 'request_queue_size': 5, 'ssl_certificate': '', 'cronjob': False, 'numthreads': None, 'quiet': False, 'interfaces': None, 'minthreads': None, 'timeout': 10, 'plain': False, 'nobanner': False}>"
p1903
asbasbasbag49
(g65
g51
NtRp1904
(dp1905
g54
(dp1906
sg63
g1814
sg56
(lp1907
g49
(g70
g51
NtRp1908
(dp1909
g54
(dp1910
g74
g75
ssg63
g1904
sg56
(lp1911
g856
asbag49
(g70
g51
NtRp1912
(dp1913
g54
(dp1914
g81
g82
ssg63
g1904
sg56
(lp1915
S':'
asbag49
(g70
g51
NtRp1916
(dp1917
g54
(dp1918
sg63
g1904
sg56
(lp1919
g49
(g50
g51
NtRp1920
(dp1921
g54
(dp1922
g62
I4
ssg63
g1916
sg56
(lp1923
S'set([])'
p1924
asbasbasbag49
(g65
g51
NtRp1925
(dp1926
g54
(dp1927
sg63
g1814
sg56
(lp1928
g49
(g70
g51
NtRp1929
(dp1930
g54
(dp1931
g74
g75
ssg63
g1925
sg56
(lp1932
g878
asbag49
(g70
g51
NtRp1933
(dp1934
g54
(dp1935
g81
g82
ssg63
g1925
sg56
(lp1936
S':'
asbag49
(g70
g51
NtRp1937
(dp1938
g54
(dp1939
sg63
g1925
sg56
(lp1940
g49
(g50
g51
NtRp1941
(dp1942
g54
(dp1943
g62
I4
ssg63
g1937
sg56
(lp1944
g92
asbasbasbag49
(g65
g51
NtRp1945
(dp1946
g54
(dp1947
sg63
g1814
sg56
(lp1948
g49
(g70
g51
NtRp1949
(dp1950
g54
(dp1951
g74
g75
ssg63
g1945
sg56
(lp1952
g899
asbag49
(g70
g51
NtRp1953
(dp1954
g54
(dp1955
g81
g82
ssg63
g1945
sg56
(lp1956
S':'
asbag49
(g70
g51
NtRp1957
(dp1958
g54
(dp1959
sg63
g1945
sg56
(lp1960
g49
(g50
g51
NtRp1961
(dp1962
g54
(dp1963
g62
I4
ssg63
g1957
sg56
(lp1964
g912
asbasbasbag49
(g65
g51
NtRp1965
(dp1966
g54
(dp1967
sg63
g1814
sg56
(lp1968
g49
(g70
g51
NtRp1969
(dp1970
g54
(dp1971
g74
g75
ssg63
g1965
sg56
(lp1972
g1119
asbag49
(g70
g51
NtRp1973
(dp1974
g54
(dp1975
g81
g82
ssg63
g1965
sg56
(lp1976
S':'
asbag49
(g70
g51
NtRp1977
(dp1978
g54
(dp1979
sg63
g1965
sg56
(lp1980
g49
(g50
g51
NtRp1981
(dp1982
g54
(dp1983
g62
I4
ssg63
g1977
sg56
(lp1984
g92
asbasbasbag49
(g65
g51
NtRp1985
(dp1986
g54
(dp1987
sg63
g1814
sg56
(lp1988
g49
(g70
g51
NtRp1989
(dp1990
g54
(dp1991
g74
g75
ssg63
g1985
sg56
(lp1992
g1140
asbag49
(g70
g51
NtRp1993
(dp1994
g54
(dp1995
g81
g82
ssg63
g1985
sg56
(lp1996
S':'
asbag49
(g70
g51
NtRp1997
(dp1998
g54
(dp1999
sg63
g1985
sg56
(lp2000
g49
(g50
g51
NtRp2001
(dp2002
g54
(dp2003
g62
I4
ssg63
g1997
sg56
(lp2004
g92
asbasbasbag49
(g65
g51
NtRp2005
(dp2006
g54
(dp2007
sg63
g1814
sg56
(lp2008
g49
(g70
g51
NtRp2009
(dp2010
g54
(dp2011
g74
g75
ssg63
g2005
sg56
(lp2012
g1378
asbag49
(g70
g51
NtRp2013
(dp2014
g54
(dp2015
g81
g82
ssg63
g2005
sg56
(lp2016
S':'
asbag49
(g70
g51
NtRp2017
(dp2018
g54
(dp2019
sg63
g2005
sg56
(lp2020
g49
(g50
g51
NtRp2021
(dp2022
g54
(dp2023
g62
I4
ssg63
g2017
sg56
(lp2024
g1391
asbasbasbag49
(g65
g51
NtRp2025
(dp2026
g54
(dp2027
sg63
g1814
sg56
(lp2028
g49
(g70
g51
NtRp2029
(dp2030
g54
(dp2031
g74
g75
ssg63
g2025
sg56
(lp2032
g1421
asbag49
(g70
g51
NtRp2033
(dp2034
g54
(dp2035
g81
g82
ssg63
g2025
sg56
(lp2036
S':'
asbag49
(g70
g51
NtRp2037
(dp2038
g54
(dp2039
sg63
g2025
sg56
(lp2040
g49
(g50
g51
NtRp2041
(dp2042
g54
(dp2043
g62
I4
ssg63
g2037
sg56
(lp2044
g49
(g58
g51
NtRp2045
(dp2046
g54
(dp2047
g62
I3
ssg63
Nsg56
(lp2048
g49
(g65
g51
NtRp2049
(dp2050
g54
(dp2051
sg63
g2045
sg56
(lp2052
g49
(g70
g51
NtRp2053
(dp2054
g54
(dp2055
sg63
g2049
sg56
(lp2056
g49
(g50
g51
NtRp2057
(dp2058
g54
(dp2059
g62
I3
ssg63
g2053
sg56
(lp2060
S'1'
asbasbasbag49
(g65
g51
NtRp2061
(dp2062
g54
(dp2063
sg63
g2045
sg56
(lp2064
g49
(g70
g51
NtRp2065
(dp2066
g54
(dp2067
sg63
g2061
sg56
(lp2068
g49
(g50
g51
NtRp2069
(dp2070
g54
(dp2071
g62
I3
ssg63
g2065
sg56
(lp2072
S'99'
p2073
asbasbasbag49
(g65
g51
NtRp2074
(dp2075
g54
(dp2076
sg63
g2045
sg56
(lp2077
g49
(g70
g51
NtRp2078
(dp2079
g54
(dp2080
sg63
g2074
sg56
(lp2081
g49
(g50
g51
NtRp2082
(dp2083
g54
(dp2084
g62
I3
ssg63
g2078
sg56
(lp2085
S'7'
asbasbasbag49
(g65
g51
NtRp2086
(dp2087
g54
(dp2088
sg63
g2045
sg56
(lp2089
g49
(g70
g51
NtRp2090
(dp2091
g54
(dp2092
sg63
g2086
sg56
(lp2093
g49
(g50
g51
NtRp2094
(dp2095
g54
(dp2096
g62
I3
ssg63
g2090
sg56
(lp2097
S'datetime.datetime(2012, 3, 4, 22, 12, 8)'
p2098
asbasbasbag49
(g65
g51
NtRp2099
(dp2100
g54
(dp2101
sg63
g2045
sg56
(lp2102
g49
(g70
g51
NtRp2103
(dp2104
g54
(dp2105
sg63
g2099
sg56
(lp2106
g49
(g50
g51
NtRp2107
(dp2108
g54
(dp2109
g62
I3
ssg63
g2103
sg56
(lp2110
g1500
asbasbasbasbasbasbasbasbasbasbasbag49
(g65
g51
NtRp2111
(dp2112
g54
(dp2113
sg63
g59
sg56
(lp2114
g49
(g70
g51
NtRp2115
(dp2116
g54
(dp2117
g74
g75
ssg63
g2111
sg56
(lp2118
S'is_https'
p2119
asbag49
(g70
g51
NtRp2120
(dp2121
g54
(dp2122
g81
g82
ssg63
g2111
sg56
(lp2123
S':'
asbag49
(g70
g51
NtRp2124
(dp2125
g54
(dp2126
sg63
g2111
sg56
(lp2127
g49
(g50
g51
NtRp2128
(dp2129
g54
(dp2130
g62
I5
ssg63
g2124
sg56
(lp2131
g92
asbasbasbag49
(g65
g51
NtRp2132
(dp2133
g54
(dp2134
sg63
g59
sg56
(lp2135
g49
(g70
g51
NtRp2136
(dp2137
g54
(dp2138
g74
g75
ssg63
g2132
sg56
(lp2139
S'is_local'
p2140
asbag49
(g70
g51
NtRp2141
(dp2142
g54
(dp2143
g81
g82
ssg63
g2132
sg56
(lp2144
S':'
asbag49
(g70
g51
NtRp2145
(dp2146
g54
(dp2147
sg63
g2132
sg56
(lp2148
g49
(g50
g51
NtRp2149
(dp2150
g54
(dp2151
g62
I5
ssg63
g2145
sg56
(lp2152
g1609
asbasbasbag49
(g65
g51
NtRp2153
(dp2154
g54
(dp2155
sg63
g59
sg56
(lp2156
g49
(g70
g51
NtRp2157
(dp2158
g54
(dp2159
g74
g75
ssg63
g2153
sg56
(lp2160
S'is_restful'
p2161
asbag49
(g70
g51
NtRp2162
(dp2163
g54
(dp2164
g81
g82
ssg63
g2153
sg56
(lp2165
S':'
asbag49
(g70
g51
NtRp2166
(dp2167
g54
(dp2168
sg63
g2153
sg56
(lp2169
g49
(g50
g51
NtRp2170
(dp2171
g54
(dp2172
g62
I5
ssg63
g2166
sg56
(lp2173
g92
asbasbasbag49
(g65
g51
NtRp2174
(dp2175
g54
(dp2176
sg63
g59
sg56
(lp2177
g49
(g70
g51
NtRp2178
(dp2179
g54
(dp2180
g74
g75
ssg63
g2174
sg56
(lp2181
S'now'
p2182
asbag49
(g70
g51
NtRp2183
(dp2184
g54
(dp2185
g81
g82
ssg63
g2174
sg56
(lp2186
S':'
asbag49
(g70
g51
NtRp2187
(dp2188
g54
(dp2189
sg63
g2174
sg56
(lp2190
g49
(g50
g51
NtRp2191
(dp2192
g54
(dp2193
g62
I5
ssg63
g2187
sg56
(lp2194
S'datetime.datetime(2012, 8, 30, 10, 44, 57, 978000)'
p2195
asbasbasbag49
(g65
g51
NtRp2196
(dp2197
g54
(dp2198
sg63
g59
sg56
(lp2199
g49
(g70
g51
NtRp2200
(dp2201
g54
(dp2202
g74
g75
ssg63
g2196
sg56
(lp2203
S'post_vars'
p2204
asbag49
(g70
g51
NtRp2205
(dp2206
g54
(dp2207
g81
g82
ssg63
g2196
sg56
(lp2208
S':'
asbag49
(g70
g51
NtRp2209
(dp2210
g54
(dp2211
sg63
g2196
sg56
(lp2212
g49
(g50
g51
NtRp2213
(dp2214
g54
(dp2215
g62
I5
ssg63
g2209
sg56
(lp2216
g49
(g58
g51
NtRp2217
(dp2218
g54
(dp2219
g62
I4
ssg63
Nsg56
(lp2220
sbasbasbasbag49
(g65
g51
NtRp2221
(dp2222
g54
(dp2223
sg63
g59
sg56
(lp2224
g49
(g70
g51
NtRp2225
(dp2226
g54
(dp2227
g74
g75
ssg63
g2221
sg56
(lp2228
S'url'
p2229
asbag49
(g70
g51
NtRp2230
(dp2231
g54
(dp2232
g81
g82
ssg63
g2221
sg56
(lp2233
S':'
asbag49
(g70
g51
NtRp2234
(dp2235
g54
(dp2236
sg63
g2221
sg56
(lp2237
g49
(g50
g51
NtRp2238
(dp2239
g54
(dp2240
g62
I5
ssg63
g2234
sg56
(lp2241
S'/IguassuPass/default/atracoes'
p2242
asbasbasbag49
(g65
g51
NtRp2243
(dp2244
g54
(dp2245
sg63
g59
sg56
(lp2246
g49
(g70
g51
NtRp2247
(dp2248
g54
(dp2249
g74
g75
ssg63
g2243
sg56
(lp2250
S'utcnow'
p2251
asbag49
(g70
g51
NtRp2252
(dp2253
g54
(dp2254
g81
g82
ssg63
g2243
sg56
(lp2255
S':'
asbag49
(g70
g51
NtRp2256
(dp2257
g54
(dp2258
sg63
g2243
sg56
(lp2259
g49
(g50
g51
NtRp2260
(dp2261
g54
(dp2262
g62
I5
ssg63
g2256
sg56
(lp2263
S'datetime.datetime(2012, 8, 30, 13, 44, 57, 978000)'
p2264
asbasbasbag49
(g65
g51
NtRp2265
(dp2266
g54
(dp2267
sg63
g59
sg56
(lp2268
g49
(g70
g51
NtRp2269
(dp2270
g54
(dp2271
g74
g75
ssg63
g2265
sg56
(lp2272
S'uuid'
p2273
asbag49
(g70
g51
NtRp2274
(dp2275
g54
(dp2276
g81
g82
ssg63
g2265
sg56
(lp2277
S':'
asbag49
(g70
g51
NtRp2278
(dp2279
g54
(dp2280
sg63
g2265
sg56
(lp2281
g49
(g50
g51
NtRp2282
(dp2283
g54
(dp2284
g62
I5
ssg63
g2278
sg56
(lp2285
S'IguassuPass/127.0.0.1.2012-08-30.10-44-57.ca40bff7-61eb-4f7f-816e-6cd5d822723d'
p2286
asbasbasbag49
(g65
g51
NtRp2287
(dp2288
g54
(dp2289
sg63
g59
sg56
(lp2290
g49
(g70
g51
NtRp2291
(dp2292
g54
(dp2293
g74
g75
ssg63
g2287
sg56
(lp2294
S'vars'
p2295
asbag49
(g70
g51
NtRp2296
(dp2297
g54
(dp2298
g81
g82
ssg63
g2287
sg56
(lp2299
S':'
asbag49
(g70
g51
NtRp2300
(dp2301
g54
(dp2302
sg63
g2287
sg56
(lp2303
g49
(g50
g51
NtRp2304
(dp2305
g54
(dp2306
g62
I5
ssg63
g2300
sg56
(lp2307
g49
(g58
g51
NtRp2308
(dp2309
g54
(dp2310
g62
I4
ssg63
Nsg56
(lp2311
sbasbasbasbag49
(g65
g51
NtRp2312
(dp2313
g54
(dp2314
sg63
g59
sg56
(lp2315
g49
(g70
g51
NtRp2316
(dp2317
g54
(dp2318
g74
g75
ssg63
g2312
sg56
(lp2319
S'wsgi'
p2320
asbag49
(g70
g51
NtRp2321
(dp2322
g54
(dp2323
g81
g82
ssg63
g2312
sg56
(lp2324
S':'
asbag49
(g70
g51
NtRp2325
(dp2326
g54
(dp2327
sg63
g2312
sg56
(lp2328
g49
(g50
g51
NtRp2329
(dp2330
g54
(dp2331
g62
I5
ssg63
g2325
sg56
(lp2332
g49
(g58
g51
NtRp2333
(dp2334
g54
(dp2335
g62
I4
ssg63
Nsg56
(lp2336
g49
(g65
g51
NtRp2337
(dp2338
g54
(dp2339
sg63
g2333
sg56
(lp2340
g49
(g70
g51
NtRp2341
(dp2342
g54
(dp2343
g74
g75
ssg63
g2337
sg56
(lp2344
S'environ'
p2345
asbag49
(g70
g51
NtRp2346
(dp2347
g54
(dp2348
g81
g82
ssg63
g2337
sg56
(lp2349
S':'
asbag49
(g70
g51
NtRp2350
(dp2351
g54
(dp2352
sg63
g2337
sg56
(lp2353
g49
(g50
g51
NtRp2354
(dp2355
g54
(dp2356
g62
I4
ssg63
g2350
sg56
(lp2357
g49
(g58
g51
NtRp2358
(dp2359
g54
(dp2360
g62
I3
ssg63
Nsg56
(lp2361
g49
(g65
g51
NtRp2362
(dp2363
g54
(dp2364
sg63
g2358
sg56
(lp2365
g49
(g70
g51
NtRp2366
(dp2367
g54
(dp2368
g74
g75
ssg63
g2362
sg56
(lp2369
S'HTTP_ACCEPT'
p2370
asbag49
(g70
g51
NtRp2371
(dp2372
g54
(dp2373
g81
g82
ssg63
g2362
sg56
(lp2374
S':'
asbag49
(g70
g51
NtRp2375
(dp2376
g54
(dp2377
sg63
g2362
sg56
(lp2378
g49
(g50
g51
NtRp2379
(dp2380
g54
(dp2381
g62
I3
ssg63
g2375
sg56
(lp2382
g934
asbasbasbag49
(g65
g51
NtRp2383
(dp2384
g54
(dp2385
sg63
g2358
sg56
(lp2386
g49
(g70
g51
NtRp2387
(dp2388
g54
(dp2389
g74
g75
ssg63
g2383
sg56
(lp2390
S'HTTP_ACCEPT_CHARSET'
p2391
asbag49
(g70
g51
NtRp2392
(dp2393
g54
(dp2394
g81
g82
ssg63
g2383
sg56
(lp2395
S':'
asbag49
(g70
g51
NtRp2396
(dp2397
g54
(dp2398
sg63
g2383
sg56
(lp2399
g49
(g50
g51
NtRp2400
(dp2401
g54
(dp2402
g62
I3
ssg63
g2396
sg56
(lp2403
g956
asbasbasbag49
(g65
g51
NtRp2404
(dp2405
g54
(dp2406
sg63
g2358
sg56
(lp2407
g49
(g70
g51
NtRp2408
(dp2409
g54
(dp2410
g74
g75
ssg63
g2404
sg56
(lp2411
S'HTTP_ACCEPT_ENCODING'
p2412
asbag49
(g70
g51
NtRp2413
(dp2414
g54
(dp2415
g81
g82
ssg63
g2404
sg56
(lp2416
S':'
asbag49
(g70
g51
NtRp2417
(dp2418
g54
(dp2419
sg63
g2404
sg56
(lp2420
g49
(g50
g51
NtRp2421
(dp2422
g54
(dp2423
g62
I3
ssg63
g2417
sg56
(lp2424
g978
asbasbasbag49
(g65
g51
NtRp2425
(dp2426
g54
(dp2427
sg63
g2358
sg56
(lp2428
g49
(g70
g51
NtRp2429
(dp2430
g54
(dp2431
g74
g75
ssg63
g2425
sg56
(lp2432
S'HTTP_ACCEPT_LANGUAGE'
p2433
asbag49
(g70
g51
NtRp2434
(dp2435
g54
(dp2436
g81
g82
ssg63
g2425
sg56
(lp2437
S':'
asbag49
(g70
g51
NtRp2438
(dp2439
g54
(dp2440
sg63
g2425
sg56
(lp2441
g49
(g50
g51
NtRp2442
(dp2443
g54
(dp2444
g62
I3
ssg63
g2438
sg56
(lp2445
g1000
asbasbasbag49
(g65
g51
NtRp2446
(dp2447
g54
(dp2448
sg63
g2358
sg56
(lp2449
g49
(g70
g51
NtRp2450
(dp2451
g54
(dp2452
g74
g75
ssg63
g2446
sg56
(lp2453
S'HTTP_CACHE_CONTROL'
p2454
asbag49
(g70
g51
NtRp2455
(dp2456
g54
(dp2457
g81
g82
ssg63
g2446
sg56
(lp2458
S':'
asbag49
(g70
g51
NtRp2459
(dp2460
g54
(dp2461
sg63
g2446
sg56
(lp2462
g49
(g50
g51
NtRp2463
(dp2464
g54
(dp2465
g62
I3
ssg63
g2459
sg56
(lp2466
g1022
asbasbasbag49
(g65
g51
NtRp2467
(dp2468
g54
(dp2469
sg63
g2358
sg56
(lp2470
g49
(g70
g51
NtRp2471
(dp2472
g54
(dp2473
g74
g75
ssg63
g2467
sg56
(lp2474
S'HTTP_CONNECTION'
p2475
asbag49
(g70
g51
NtRp2476
(dp2477
g54
(dp2478
g81
g82
ssg63
g2467
sg56
(lp2479
S':'
asbag49
(g70
g51
NtRp2480
(dp2481
g54
(dp2482
sg63
g2467
sg56
(lp2483
g49
(g50
g51
NtRp2484
(dp2485
g54
(dp2486
g62
I3
ssg63
g2480
sg56
(lp2487
g1044
asbasbasbag49
(g65
g51
NtRp2488
(dp2489
g54
(dp2490
sg63
g2358
sg56
(lp2491
g49
(g70
g51
NtRp2492
(dp2493
g54
(dp2494
g74
g75
ssg63
g2488
sg56
(lp2495
S'HTTP_COOKIE'
p2496
asbag49
(g70
g51
NtRp2497
(dp2498
g54
(dp2499
g81
g82
ssg63
g2488
sg56
(lp2500
S':'
asbag49
(g70
g51
NtRp2501
(dp2502
g54
(dp2503
sg63
g2488
sg56
(lp2504
g49
(g50
g51
NtRp2505
(dp2506
g54
(dp2507
g62
I3
ssg63
g2501
sg56
(lp2508
g1066
asbasbasbag49
(g65
g51
NtRp2509
(dp2510
g54
(dp2511
sg63
g2358
sg56
(lp2512
g49
(g70
g51
NtRp2513
(dp2514
g54
(dp2515
g74
g75
ssg63
g2509
sg56
(lp2516
S'HTTP_HOST'
p2517
asbag49
(g70
g51
NtRp2518
(dp2519
g54
(dp2520
g81
g82
ssg63
g2509
sg56
(lp2521
S':'
asbag49
(g70
g51
NtRp2522
(dp2523
g54
(dp2524
sg63
g2509
sg56
(lp2525
g49
(g50
g51
NtRp2526
(dp2527
g54
(dp2528
g62
I3
ssg63
g2522
sg56
(lp2529
g1088
asbasbasbag49
(g65
g51
NtRp2530
(dp2531
g54
(dp2532
sg63
g2358
sg56
(lp2533
g49
(g70
g51
NtRp2534
(dp2535
g54
(dp2536
g74
g75
ssg63
g2530
sg56
(lp2537
S'HTTP_USER_AGENT'
p2538
asbag49
(g70
g51
NtRp2539
(dp2540
g54
(dp2541
g81
g82
ssg63
g2530
sg56
(lp2542
S':'
asbag49
(g70
g51
NtRp2543
(dp2544
g54
(dp2545
sg63
g2530
sg56
(lp2546
g49
(g50
g51
NtRp2547
(dp2548
g54
(dp2549
g62
I3
ssg63
g2543
sg56
(lp2550
g1110
asbasbasbag49
(g65
g51
NtRp2551
(dp2552
g54
(dp2553
sg63
g2358
sg56
(lp2554
g49
(g70
g51
NtRp2555
(dp2556
g54
(dp2557
g74
g75
ssg63
g2551
sg56
(lp2558
S'PATH_INFO'
p2559
asbag49
(g70
g51
NtRp2560
(dp2561
g54
(dp2562
g81
g82
ssg63
g2551
sg56
(lp2563
S':'
asbag49
(g70
g51
NtRp2564
(dp2565
g54
(dp2566
sg63
g2551
sg56
(lp2567
g49
(g50
g51
NtRp2568
(dp2569
g54
(dp2570
g62
I3
ssg63
g2564
sg56
(lp2571
g1174
asbasbasbag49
(g65
g51
NtRp2572
(dp2573
g54
(dp2574
sg63
g2358
sg56
(lp2575
g49
(g70
g51
NtRp2576
(dp2577
g54
(dp2578
g74
g75
ssg63
g2572
sg56
(lp2579
S'QUERY_STRING'
p2580
asbag49
(g70
g51
NtRp2581
(dp2582
g54
(dp2583
g81
g82
ssg63
g2572
sg56
(lp2584
S':'
asbag49
(g70
g51
NtRp2585
(dp2586
g54
(dp2587
sg63
g2572
sg56
(lp2588
g49
(g50
g51
NtRp2589
(dp2590
g54
(dp2591
g62
I3
ssg63
g2585
sg56
(lp2592
S''
asbasbasbag49
(g65
g51
NtRp2593
(dp2594
g54
(dp2595
sg63
g2358
sg56
(lp2596
g49
(g70
g51
NtRp2597
(dp2598
g54
(dp2599
g74
g75
ssg63
g2593
sg56
(lp2600
S'REMOTE_ADDR'
p2601
asbag49
(g70
g51
NtRp2602
(dp2603
g54
(dp2604
g81
g82
ssg63
g2593
sg56
(lp2605
S':'
asbag49
(g70
g51
NtRp2606
(dp2607
g54
(dp2608
sg63
g2593
sg56
(lp2609
g49
(g50
g51
NtRp2610
(dp2611
g54
(dp2612
g62
I3
ssg63
g2606
sg56
(lp2613
g182
asbasbasbag49
(g65
g51
NtRp2614
(dp2615
g54
(dp2616
sg63
g2358
sg56
(lp2617
g49
(g70
g51
NtRp2618
(dp2619
g54
(dp2620
g74
g75
ssg63
g2614
sg56
(lp2621
S'REMOTE_PORT'
p2622
asbag49
(g70
g51
NtRp2623
(dp2624
g54
(dp2625
g81
g82
ssg63
g2614
sg56
(lp2626
S':'
asbag49
(g70
g51
NtRp2627
(dp2628
g54
(dp2629
sg63
g2614
sg56
(lp2630
g49
(g50
g51
NtRp2631
(dp2632
g54
(dp2633
g62
I3
ssg63
g2627
sg56
(lp2634
g1238
asbasbasbag49
(g65
g51
NtRp2635
(dp2636
g54
(dp2637
sg63
g2358
sg56
(lp2638
g49
(g70
g51
NtRp2639
(dp2640
g54
(dp2641
g74
g75
ssg63
g2635
sg56
(lp2642
S'REQUEST_METHOD'
p2643
asbag49
(g70
g51
NtRp2644
(dp2645
g54
(dp2646
g81
g82
ssg63
g2635
sg56
(lp2647
S':'
asbag49
(g70
g51
NtRp2648
(dp2649
g54
(dp2650
sg63
g2635
sg56
(lp2651
g49
(g50
g51
NtRp2652
(dp2653
g54
(dp2654
g62
I3
ssg63
g2648
sg56
(lp2655
g1260
asbasbasbag49
(g65
g51
NtRp2656
(dp2657
g54
(dp2658
sg63
g2358
sg56
(lp2659
g49
(g70
g51
NtRp2660
(dp2661
g54
(dp2662
g74
g75
ssg63
g2656
sg56
(lp2663
S'SCRIPT_NAME'
p2664
asbag49
(g70
g51
NtRp2665
(dp2666
g54
(dp2667
g81
g82
ssg63
g2656
sg56
(lp2668
S':'
asbag49
(g70
g51
NtRp2669
(dp2670
g54
(dp2671
sg63
g2656
sg56
(lp2672
g49
(g50
g51
NtRp2673
(dp2674
g54
(dp2675
g62
I3
ssg63
g2669
sg56
(lp2676
S''
asbasbasbag49
(g65
g51
NtRp2677
(dp2678
g54
(dp2679
sg63
g2358
sg56
(lp2680
g49
(g70
g51
NtRp2681
(dp2682
g54
(dp2683
g74
g75
ssg63
g2677
sg56
(lp2684
S'SERVER_NAME'
p2685
asbag49
(g70
g51
NtRp2686
(dp2687
g54
(dp2688
g81
g82
ssg63
g2677
sg56
(lp2689
S':'
asbag49
(g70
g51
NtRp2690
(dp2691
g54
(dp2692
sg63
g2677
sg56
(lp2693
g49
(g50
g51
NtRp2694
(dp2695
g54
(dp2696
g62
I3
ssg63
g2690
sg56
(lp2697
g1303
asbasbasbag49
(g65
g51
NtRp2698
(dp2699
g54
(dp2700
sg63
g2358
sg56
(lp2701
g49
(g70
g51
NtRp2702
(dp2703
g54
(dp2704
g74
g75
ssg63
g2698
sg56
(lp2705
S'SERVER_PORT'
p2706
asbag49
(g70
g51
NtRp2707
(dp2708
g54
(dp2709
g81
g82
ssg63
g2698
sg56
(lp2710
S':'
asbag49
(g70
g51
NtRp2711
(dp2712
g54
(dp2713
sg63
g2698
sg56
(lp2714
g49
(g50
g51
NtRp2715
(dp2716
g54
(dp2717
g62
I3
ssg63
g2711
sg56
(lp2718
g1325
asbasbasbag49
(g65
g51
NtRp2719
(dp2720
g54
(dp2721
sg63
g2358
sg56
(lp2722
g49
(g70
g51
NtRp2723
(dp2724
g54
(dp2725
g74
g75
ssg63
g2719
sg56
(lp2726
S'SERVER_PROTOCOL'
p2727
asbag49
(g70
g51
NtRp2728
(dp2729
g54
(dp2730
g81
g82
ssg63
g2719
sg56
(lp2731
S':'
asbag49
(g70
g51
NtRp2732
(dp2733
g54
(dp2734
sg63
g2719
sg56
(lp2735
g49
(g50
g51
NtRp2736
(dp2737
g54
(dp2738
g62
I3
ssg63
g2732
sg56
(lp2739
g1347
asbasbasbag49
(g65
g51
NtRp2740
(dp2741
g54
(dp2742
sg63
g2358
sg56
(lp2743
g49
(g70
g51
NtRp2744
(dp2745
g54
(dp2746
g74
g75
ssg63
g2740
sg56
(lp2747
S'SERVER_SOFTWARE'
p2748
asbag49
(g70
g51
NtRp2749
(dp2750
g54
(dp2751
g81
g82
ssg63
g2740
sg56
(lp2752
S':'
asbag49
(g70
g51
NtRp2753
(dp2754
g54
(dp2755
sg63
g2740
sg56
(lp2756
g49
(g50
g51
NtRp2757
(dp2758
g54
(dp2759
g62
I3
ssg63
g2753
sg56
(lp2760
g1369
asbasbasbag49
(g65
g51
NtRp2761
(dp2762
g54
(dp2763
sg63
g2358
sg56
(lp2764
g49
(g70
g51
NtRp2765
(dp2766
g54
(dp2767
g74
g75
ssg63
g2761
sg56
(lp2768
S'wsgi.errors'
p2769
asbag49
(g70
g51
NtRp2770
(dp2771
g54
(dp2772
g81
g82
ssg63
g2761
sg56
(lp2773
S':'
asbag49
(g70
g51
NtRp2774
(dp2775
g54
(dp2776
sg63
g2761
sg56
(lp2777
g49
(g50
g51
NtRp2778
(dp2779
g54
(dp2780
g62
I3
ssg63
g2774
sg56
(lp2781
S"<open file '<stderr>', mode 'w' at 0x002500B0>"
p2782
asbasbasbag49
(g65
g51
NtRp2783
(dp2784
g54
(dp2785
sg63
g2358
sg56
(lp2786
g49
(g70
g51
NtRp2787
(dp2788
g54
(dp2789
g74
g75
ssg63
g2783
sg56
(lp2790
S'wsgi.file_wrapper'
p2791
asbag49
(g70
g51
NtRp2792
(dp2793
g54
(dp2794
g81
g82
ssg63
g2783
sg56
(lp2795
S':'
asbag49
(g70
g51
NtRp2796
(dp2797
g54
(dp2798
sg63
g2783
sg56
(lp2799
g49
(g50
g51
NtRp2800
(dp2801
g54
(dp2802
g62
I3
ssg63
g2796
sg56
(lp2803
S'<class wsgiref.util.FileWrapper at 0x02E8D360>'
p2804
asbasbasbag49
(g65
g51
NtRp2805
(dp2806
g54
(dp2807
sg63
g2358
sg56
(lp2808
g49
(g70
g51
NtRp2809
(dp2810
g54
(dp2811
g74
g75
ssg63
g2805
sg56
(lp2812
S'wsgi.input'
p2813
asbag49
(g70
g51
NtRp2814
(dp2815
g54
(dp2816
g81
g82
ssg63
g2805
sg56
(lp2817
S':'
asbag49
(g70
g51
NtRp2818
(dp2819
g54
(dp2820
sg63
g2805
sg56
(lp2821
g49
(g50
g51
NtRp2822
(dp2823
g54
(dp2824
g62
I3
ssg63
g2818
sg56
(lp2825
S'<cStringIO.StringO object at 0x074CCE20>'
p2826
asbasbasbag49
(g65
g51
NtRp2827
(dp2828
g54
(dp2829
sg63
g2358
sg56
(lp2830
g49
(g70
g51
NtRp2831
(dp2832
g54
(dp2833
g74
g75
ssg63
g2827
sg56
(lp2834
S'wsgi.multiprocess'
p2835
asbag49
(g70
g51
NtRp2836
(dp2837
g54
(dp2838
g81
g82
ssg63
g2827
sg56
(lp2839
S':'
asbag49
(g70
g51
NtRp2840
(dp2841
g54
(dp2842
sg63
g2827
sg56
(lp2843
g49
(g50
g51
NtRp2844
(dp2845
g54
(dp2846
g62
I3
ssg63
g2840
sg56
(lp2847
g92
asbasbasbag49
(g65
g51
NtRp2848
(dp2849
g54
(dp2850
sg63
g2358
sg56
(lp2851
g49
(g70
g51
NtRp2852
(dp2853
g54
(dp2854
g74
g75
ssg63
g2848
sg56
(lp2855
S'wsgi.multithread'
p2856
asbag49
(g70
g51
NtRp2857
(dp2858
g54
(dp2859
g81
g82
ssg63
g2848
sg56
(lp2860
S':'
asbag49
(g70
g51
NtRp2861
(dp2862
g54
(dp2863
sg63
g2848
sg56
(lp2864
g49
(g50
g51
NtRp2865
(dp2866
g54
(dp2867
g62
I3
ssg63
g2861
sg56
(lp2868
g1609
asbasbasbag49
(g65
g51
NtRp2869
(dp2870
g54
(dp2871
sg63
g2358
sg56
(lp2872
g49
(g70
g51
NtRp2873
(dp2874
g54
(dp2875
g74
g75
ssg63
g2869
sg56
(lp2876
S'wsgi.run_once'
p2877
asbag49
(g70
g51
NtRp2878
(dp2879
g54
(dp2880
g81
g82
ssg63
g2869
sg56
(lp2881
S':'
asbag49
(g70
g51
NtRp2882
(dp2883
g54
(dp2884
sg63
g2869
sg56
(lp2885
g49
(g50
g51
NtRp2886
(dp2887
g54
(dp2888
g62
I3
ssg63
g2882
sg56
(lp2889
g92
asbasbasbag49
(g65
g51
NtRp2890
(dp2891
g54
(dp2892
sg63
g2358
sg56
(lp2893
g49
(g70
g51
NtRp2894
(dp2895
g54
(dp2896
g74
g75
ssg63
g2890
sg56
(lp2897
S'wsgi.url_scheme'
p2898
asbag49
(g70
g51
NtRp2899
(dp2900
g54
(dp2901
g81
g82
ssg63
g2890
sg56
(lp2902
S':'
asbag49
(g70
g51
NtRp2903
(dp2904
g54
(dp2905
sg63
g2890
sg56
(lp2906
g49
(g50
g51
NtRp2907
(dp2908
g54
(dp2909
g62
I3
ssg63
g2903
sg56
(lp2910
g1652
asbasbasbag49
(g65
g51
NtRp2911
(dp2912
g54
(dp2913
sg63
g2358
sg56
(lp2914
g49
(g70
g51
NtRp2915
(dp2916
g54
(dp2917
g74
g75
ssg63
g2911
sg56
(lp2918
S'wsgi.version'
p2919
asbag49
(g70
g51
NtRp2920
(dp2921
g54
(dp2922
g81
g82
ssg63
g2911
sg56
(lp2923
S':'
asbag49
(g70
g51
NtRp2924
(dp2925
g54
(dp2926
sg63
g2911
sg56
(lp2927
g49
(g50
g51
NtRp2928
(dp2929
g54
(dp2930
g62
I3
ssg63
g2924
sg56
(lp2931
S'1'
asbasbasbasbasbasbasbasbasbasbasbasbasbsS'frames'
p2932
(lp2933
(dp2934
S'file'
p2935
S'C:\\Users\\ceasbpi\\Dropbox\\web2py\\gluon\\restricted.py'
p2936
sS'dump'
p2937
(dp2938
sS'lnum'
p2939
I205
sS'lines'
p2940
(dp2941
sS'call'
p2942
S"(code='# -*- coding: utf-8 -*-\\n# this file is released ...als()\\n\\nresponse._vars=response._caller(atracoes)\\n', environment={'A': <class 'gluon.html.A'>, 'Auth': <class 'gluon.tools.Auth'>, 'B': <class 'gluon.html.B'>, 'BEAUTIFY': <class 'gluon.html.BEAUTIFY'>, 'BODY': <class 'gluon.html.BODY'>, 'BR': <class 'gluon.html.BR'>, 'BUTTON': <class 'gluon.html.BUTTON'>, 'CAT': <class 'gluon.html.CAT'>, 'CENTER': <class 'gluon.html.CENTER'>, 'CLEANUP': <class 'gluon.validators.CLEANUP'>, ...}, layer=r'C:\\Users\\ceasbpi\\Dropbox\\web2py\\applications\\IguassuPass\\controllers/default.py')"
p2943
sS'func'
p2944
S'restricted'
p2945
sa(dp2946
g2935
S'C:\\Users\\ceasbpi\\Dropbox\\web2py\\applications\\IguassuPass\\controllers\\default.py'
p2947
sg2937
(dp2948
sg2939
I107
sg2940
(dp2949
I96
S'def multimedia_create():'
p2950
sI97
S'    #db.multimedia.atracao.default = request.args(0)'
p2951
sI98
S'    form = crud.create(db.multimedia)'
p2952
sI99
S'    return locals()'
p2953
sI100
S''
sI101
S'@auth.requires_login()'
p2954
sI102
S'def multimedia_edit():'
p2955
sI103
S"    multimedia = db.multimedia(request.args(0)) or redirect(URL('atracoes'))"
p2956
sI104
S'    form = crud.update(db.multimedia, multimedia)'
p2957
sI105
S'    return locals()'
p2958
ssg2942
S'()'
p2959
sg2944
S'<module>'
p2960
sa(dp2961
g2935
S'C:\\Users\\ceasbpi\\Dropbox\\web2py\\gluon\\globals.py'
p2962
sg2937
(dp2963
sg2939
I173
sg2940
(dp2964
sg2942
S'(f=<function atracoes at 0x070E2130>)'
p2965
sg2944
S'<lambda>'
p2966
sa(dp2967
g2935
S'C:\\Users\\ceasbpi\\Dropbox\\web2py\\applications\\IguassuPass\\controllers\\default.py'
p2968
sg2937
(dp2969
sg2939
I81
sg2940
(dp2970
I76
S'    """'
p2971
sI77
S'    return dict(form=crud())'
p2972
sI78
S''
sI79
S'def atracoes():'
p2973
sI80
S'    atracoes = db(db.atracao).select(orderby=db.atracao.nome)'
p2974
sI81
S'    multimedias = db(db.multimedia.atracao == atracoes).select(orderby= db.multimedia.id)'
p2975
sI82
S'    return locals()'
p2976
sI83
S''
sI84
S'@auth.requires_login()'
p2977
sI85
S'def atracao_create():'
p2978
ssg2942
S'()'
p2979
sg2944
S'atracoes'
p2980
sa(dp2981
g2935
S'C:\\Users\\ceasbpi\\Dropbox\\web2py\\gluon\\dal.py'
p2982
sg2937
(dp2983
sg2939
I7578
sg2940
(dp2984
sg2942
S"(self=<gluon.dal.Set object at 0x076A0570>, *fields=[<gluon.dal.Field object at 0x076E2BF0>, <gluon.dal.Field object at 0x076E2390>, <gluon.dal.Field object at 0x076E2AD0>], **attributes={'orderby': <gluon.dal.Field object at 0x076E2BF0>})"
p2985
sg2944
S'select'
p2986
sa(dp2987
g2935
S'C:\\Users\\ceasbpi\\Dropbox\\web2py\\gluon\\dal.py'
p2988
sg2937
(dp2989
sg2939
I1307
sg2940
(dp2990
sg2942
S"(self=<gluon.dal.SQLiteAdapter object at 0x076E3BD0>, query=<gluon.dal.Query object at 0x076A08B0>, fields=[<gluon.dal.Field object at 0x076E2BF0>, <gluon.dal.Field object at 0x076E2390>, <gluon.dal.Field object at 0x076E2AD0>], attributes={'orderby': <gluon.dal.Field object at 0x076E2BF0>})"
p2991
sg2944
g2986
sa(dp2992
g2935
S'C:\\Users\\ceasbpi\\Dropbox\\web2py\\gluon\\dal.py'
p2993
sg2937
(dp2994
sg2939
I1756
sg2940
(dp2995
sg2942
S"(self=<gluon.dal.SQLiteAdapter object at 0x076E3BD0>, query=<gluon.dal.Query object at 0x076A08B0>, fields=[<gluon.dal.Field object at 0x076E2BF0>, <gluon.dal.Field object at 0x076E2390>, <gluon.dal.Field object at 0x076E2AD0>], attributes={'orderby': <gluon.dal.Field object at 0x076E2BF0>})"
p2996
sg2944
S'_select'
p2997
sa(dp2998
g2935
S'C:\\Users\\ceasbpi\\Dropbox\\web2py\\gluon\\dal.py'
p2999
sg2937
(dp3000
sg2939
I1200
sg2940
(dp3001
sg2942
S"(self=<gluon.dal.SQLiteAdapter object at 0x076E3BD0>, query=<gluon.dal.Query object at 0x076A08B0>, fields=[<gluon.dal.Field object at 0x076E2BF0>, <gluon.dal.Field object at 0x076E2390>, <gluon.dal.Field object at 0x076E2AD0>], attributes={'orderby': <gluon.dal.Field object at 0x076E2BF0>})"
p3002
sg2944
g2997
sa(dp3003
g2935
S'C:\\Users\\ceasbpi\\Dropbox\\web2py\\gluon\\dal.py'
p3004
sg2937
(dp3005
sg2939
I1046
sg2940
(dp3006
sg2942
S'(self=<gluon.dal.SQLiteAdapter object at 0x076E3BD0>, expression=<gluon.dal.Query object at 0x076A08B0>, field_type=None)'
p3007
sg2944
S'expand'
p3008
sa(dp3009
g2935
S'C:\\Users\\ceasbpi\\Dropbox\\web2py\\gluon\\dal.py'
p3010
sg2937
(dp3011
sg2939
I987
sg2940
(dp3012
sg2942
S'(self=<gluon.dal.SQLiteAdapter object at 0x076E3BD0>, first=<gluon.dal.Field object at 0x076E2390>, second=<gluon.dal.Rows object at 0x076A0DF0>)'
p3013
sg2944
S'EQ'
p3014
sa(dp3015
g2935
S'C:\\Users\\ceasbpi\\Dropbox\\web2py\\gluon\\dal.py'
p3016
sg2937
(dp3017
sg2939
I1054
sg2940
(dp3018
sg2942
S"(self=<gluon.dal.SQLiteAdapter object at 0x076E3BD0>, expression=<gluon.dal.Rows object at 0x076A0DF0>, field_type='reference atracao')"
p3019
sg2944
g3008
sa(dp3020
g2935
S'C:\\Users\\ceasbpi\\Dropbox\\web2py\\gluon\\dal.py'
p3021
sg2937
(dp3022
sg2939
I1433
sg2940
(dp3023
sg2942
S"(self=<gluon.dal.SQLiteAdapter object at 0x076E3BD0>, obj=<gluon.dal.Rows object at 0x076A0DF0>, fieldtype='reference atracao')"
p3024
sg2944
S'represent'
p3025
sasS'pyver'
p3026
S'Python 2.5.4: C:\\Users\\ceasbpi\\Dropbox\\web2py\\web2py.exe'
p3027
sS'session'
p3028
g49
(g50
g51
NtRp3029
(dp3030
g54
(dp3031
sg56
(lp3032
g49
(g58
g51
NtRp3033
(dp3034
g54
(dp3035
g62
I5
ssg63
Nsg56
(lp3036
g49
(g65
g51
NtRp3037
(dp3038
g54
(dp3039
sg63
g3033
sg56
(lp3040
g49
(g70
g51
NtRp3041
(dp3042
g54
(dp3043
g74
g75
ssg63
g3037
sg56
(lp3044
S'auth'
p3045
asbag49
(g70
g51
NtRp3046
(dp3047
g54
(dp3048
g81
g82
ssg63
g3037
sg56
(lp3049
S':'
asbag49
(g70
g51
NtRp3050
(dp3051
g54
(dp3052
sg63
g3037
sg56
(lp3053
g49
(g50
g51
NtRp3054
(dp3055
g54
(dp3056
g62
I5
ssg63
g3050
sg56
(lp3057
g49
(g58
g51
NtRp3058
(dp3059
g54
(dp3060
g62
I4
ssg63
Nsg56
(lp3061
g49
(g65
g51
NtRp3062
(dp3063
g54
(dp3064
sg63
g3058
sg56
(lp3065
g49
(g70
g51
NtRp3066
(dp3067
g54
(dp3068
g74
g75
ssg63
g3062
sg56
(lp3069
S'expiration'
p3070
asbag49
(g70
g51
NtRp3071
(dp3072
g54
(dp3073
g81
g82
ssg63
g3062
sg56
(lp3074
S':'
asbag49
(g70
g51
NtRp3075
(dp3076
g54
(dp3077
sg63
g3062
sg56
(lp3078
g49
(g50
g51
NtRp3079
(dp3080
g54
(dp3081
g62
I4
ssg63
g3075
sg56
(lp3082
S'3600'
p3083
asbasbasbag49
(g65
g51
NtRp3084
(dp3085
g54
(dp3086
sg63
g3058
sg56
(lp3087
g49
(g70
g51
NtRp3088
(dp3089
g54
(dp3090
g74
g75
ssg63
g3084
sg56
(lp3091
S'hmac_key'
p3092
asbag49
(g70
g51
NtRp3093
(dp3094
g54
(dp3095
g81
g82
ssg63
g3084
sg56
(lp3096
S':'
asbag49
(g70
g51
NtRp3097
(dp3098
g54
(dp3099
sg63
g3084
sg56
(lp3100
g49
(g50
g51
NtRp3101
(dp3102
g54
(dp3103
g62
I4
ssg63
g3097
sg56
(lp3104
S'8fe52114-4a16-4d34-86ee-07e1ef1b8084'
p3105
asbasbasbag49
(g65
g51
NtRp3106
(dp3107
g54
(dp3108
sg63
g3058
sg56
(lp3109
g49
(g70
g51
NtRp3110
(dp3111
g54
(dp3112
g74
g75
ssg63
g3106
sg56
(lp3113
S'last_visit'
p3114
asbag49
(g70
g51
NtRp3115
(dp3116
g54
(dp3117
g81
g82
ssg63
g3106
sg56
(lp3118
S':'
asbag49
(g70
g51
NtRp3119
(dp3120
g54
(dp3121
sg63
g3106
sg56
(lp3122
g49
(g50
g51
NtRp3123
(dp3124
g54
(dp3125
g62
I4
ssg63
g3119
sg56
(lp3126
S'datetime.datetime(2012, 8, 30, 10, 44, 57, 978000)'
p3127
asbasbasbag49
(g65
g51
NtRp3128
(dp3129
g54
(dp3130
sg63
g3058
sg56
(lp3131
g49
(g70
g51
NtRp3132
(dp3133
g54
(dp3134
g74
g75
ssg63
g3128
sg56
(lp3135
S'user'
p3136
asbag49
(g70
g51
NtRp3137
(dp3138
g54
(dp3139
g81
g82
ssg63
g3128
sg56
(lp3140
S':'
asbag49
(g70
g51
NtRp3141
(dp3142
g54
(dp3143
sg63
g3128
sg56
(lp3144
g49
(g50
g51
NtRp3145
(dp3146
g54
(dp3147
g62
I4
ssg63
g3141
sg56
(lp3148
g49
(g58
g51
NtRp3149
(dp3150
g54
(dp3151
g62
I3
ssg63
Nsg56
(lp3152
g49
(g65
g51
NtRp3153
(dp3154
g54
(dp3155
sg63
g3149
sg56
(lp3156
g49
(g70
g51
NtRp3157
(dp3158
g54
(dp3159
g74
g75
ssg63
g3153
sg56
(lp3160
S'email'
p3161
asbag49
(g70
g51
NtRp3162
(dp3163
g54
(dp3164
g81
g82
ssg63
g3153
sg56
(lp3165
S':'
asbag49
(g70
g51
NtRp3166
(dp3167
g54
(dp3168
sg63
g3153
sg56
(lp3169
g49
(g50
g51
NtRp3170
(dp3171
g54
(dp3172
g62
I3
ssg63
g3166
sg56
(lp3173
S'admin@admin.com'
p3174
asbasbasbag49
(g65
g51
NtRp3175
(dp3176
g54
(dp3177
sg63
g3149
sg56
(lp3178
g49
(g70
g51
NtRp3179
(dp3180
g54
(dp3181
g74
g75
ssg63
g3175
sg56
(lp3182
S'first_name'
p3183
asbag49
(g70
g51
NtRp3184
(dp3185
g54
(dp3186
g81
g82
ssg63
g3175
sg56
(lp3187
S':'
asbag49
(g70
g51
NtRp3188
(dp3189
g54
(dp3190
sg63
g3175
sg56
(lp3191
g49
(g50
g51
NtRp3192
(dp3193
g54
(dp3194
g62
I3
ssg63
g3188
sg56
(lp3195
S'admin'
p3196
asbasbasbag49
(g65
g51
NtRp3197
(dp3198
g54
(dp3199
sg63
g3149
sg56
(lp3200
g49
(g70
g51
NtRp3201
(dp3202
g54
(dp3203
g74
g75
ssg63
g3197
sg56
(lp3204
S'id'
p3205
asbag49
(g70
g51
NtRp3206
(dp3207
g54
(dp3208
g81
g82
ssg63
g3197
sg56
(lp3209
S':'
asbag49
(g70
g51
NtRp3210
(dp3211
g54
(dp3212
sg63
g3197
sg56
(lp3213
g49
(g50
g51
NtRp3214
(dp3215
g54
(dp3216
g62
I3
ssg63
g3210
sg56
(lp3217
S'2'
asbasbasbag49
(g65
g51
NtRp3218
(dp3219
g54
(dp3220
sg63
g3149
sg56
(lp3221
g49
(g70
g51
NtRp3222
(dp3223
g54
(dp3224
g74
g75
ssg63
g3218
sg56
(lp3225
S'last_name'
p3226
asbag49
(g70
g51
NtRp3227
(dp3228
g54
(dp3229
g81
g82
ssg63
g3218
sg56
(lp3230
S':'
asbag49
(g70
g51
NtRp3231
(dp3232
g54
(dp3233
sg63
g3218
sg56
(lp3234
g49
(g50
g51
NtRp3235
(dp3236
g54
(dp3237
g62
I3
ssg63
g3231
sg56
(lp3238
S'de oliveira'
p3239
asbasbasbag49
(g65
g51
NtRp3240
(dp3241
g54
(dp3242
sg63
g3149
sg56
(lp3243
g49
(g70
g51
NtRp3244
(dp3245
g54
(dp3246
g74
g75
ssg63
g3240
sg56
(lp3247
S'password'
p3248
asbag49
(g70
g51
NtRp3249
(dp3250
g54
(dp3251
g81
g82
ssg63
g3240
sg56
(lp3252
S':'
asbag49
(g70
g51
NtRp3253
(dp3254
g54
(dp3255
sg63
g3240
sg56
(lp3256
g49
(g50
g51
NtRp3257
(dp3258
g54
(dp3259
g62
I3
ssg63
g3253
sg56
(lp3260
S'7fbb689eb65efc2020735b0b71b00247'
p3261
asbasbasbag49
(g65
g51
NtRp3262
(dp3263
g54
(dp3264
sg63
g3149
sg56
(lp3265
g49
(g70
g51
NtRp3266
(dp3267
g54
(dp3268
g74
g75
ssg63
g3262
sg56
(lp3269
S'registration_id'
p3270
asbag49
(g70
g51
NtRp3271
(dp3272
g54
(dp3273
g81
g82
ssg63
g3262
sg56
(lp3274
S':'
asbag49
(g70
g51
NtRp3275
(dp3276
g54
(dp3277
sg63
g3262
sg56
(lp3278
g49
(g50
g51
NtRp3279
(dp3280
g54
(dp3281
g62
I3
ssg63
g3275
sg56
(lp3282
S''
asbasbasbag49
(g65
g51
NtRp3283
(dp3284
g54
(dp3285
sg63
g3149
sg56
(lp3286
g49
(g70
g51
NtRp3287
(dp3288
g54
(dp3289
g74
g75
ssg63
g3283
sg56
(lp3290
S'registration_key'
p3291
asbag49
(g70
g51
NtRp3292
(dp3293
g54
(dp3294
g81
g82
ssg63
g3283
sg56
(lp3295
S':'
asbag49
(g70
g51
NtRp3296
(dp3297
g54
(dp3298
sg63
g3283
sg56
(lp3299
g49
(g50
g51
NtRp3300
(dp3301
g54
(dp3302
g62
I3
ssg63
g3296
sg56
(lp3303
S''
asbasbasbag49
(g65
g51
NtRp3304
(dp3305
g54
(dp3306
sg63
g3149
sg56
(lp3307
g49
(g70
g51
NtRp3308
(dp3309
g54
(dp3310
g74
g75
ssg63
g3304
sg56
(lp3311
S'reset_password_key'
p3312
asbag49
(g70
g51
NtRp3313
(dp3314
g54
(dp3315
g81
g82
ssg63
g3304
sg56
(lp3316
S':'
asbag49
(g70
g51
NtRp3317
(dp3318
g54
(dp3319
sg63
g3304
sg56
(lp3320
g49
(g50
g51
NtRp3321
(dp3322
g54
(dp3323
g62
I3
ssg63
g3317
sg56
(lp3324
S''
asbasbasbasbasbasbasbag49
(g65
g51
NtRp3325
(dp3326
g54
(dp3327
sg63
g3058
sg56
(lp3328
g49
(g70
g51
NtRp3329
(dp3330
g54
(dp3331
g74
g75
ssg63
g3325
sg56
(lp3332
S'user_groups'
p3333
asbag49
(g70
g51
NtRp3334
(dp3335
g54
(dp3336
g81
g82
ssg63
g3325
sg56
(lp3337
S':'
asbag49
(g70
g51
NtRp3338
(dp3339
g54
(dp3340
sg63
g3325
sg56
(lp3341
g49
(g50
g51
NtRp3342
(dp3343
g54
(dp3344
g62
I4
ssg63
g3338
sg56
(lp3345
g49
(g58
g51
NtRp3346
(dp3347
g54
(dp3348
g62
I3
ssg63
Nsg56
(lp3349
g49
(g65
g51
NtRp3350
(dp3351
g54
(dp3352
sg63
g3346
sg56
(lp3353
g49
(g70
g51
NtRp3354
(dp3355
g54
(dp3356
g74
g75
ssg63
g3350
sg56
(lp3357
S'2'
asbag49
(g70
g51
NtRp3358
(dp3359
g54
(dp3360
g81
g82
ssg63
g3350
sg56
(lp3361
S':'
asbag49
(g70
g51
NtRp3362
(dp3363
g54
(dp3364
sg63
g3350
sg56
(lp3365
g49
(g50
g51
NtRp3366
(dp3367
g54
(dp3368
g62
I3
ssg63
g3362
sg56
(lp3369
S'user_2'
p3370
asbasbasbasbasbasbasbasbasbasbasbag49
(g65
g51
NtRp3371
(dp3372
g54
(dp3373
sg63
g3033
sg56
(lp3374
g49
(g70
g51
NtRp3375
(dp3376
g54
(dp3377
g74
g75
ssg63
g3371
sg56
(lp3378
S'last_query'
p3379
asbag49
(g70
g51
NtRp3380
(dp3381
g54
(dp3382
g81
g82
ssg63
g3371
sg56
(lp3383
S':'
asbag49
(g70
g51
NtRp3384
(dp3385
g54
(dp3386
sg63
g3371
sg56
(lp3387
g49
(g50
g51
NtRp3388
(dp3389
g54
(dp3390
g62
I5
ssg63
g3384
sg56
(lp3391
S'db.multimedia.id>0'
p3392
asbasbasbasbasbsS'etype'
p3393
S"<type 'exceptions.TypeError'>"
p3394
sS'date'
p3395
S'Thu Aug 30 10:44:58 2012'
p3396
sS'response'
p3397
g49
(g50
g51
NtRp3398
(dp3399
g54
(dp3400
sg56
(lp3401
g49
(g58
g51
NtRp3402
(dp3403
g54
(dp3404
g62
I5
ssg63
Nsg56
(lp3405
g49
(g65
g51
NtRp3406
(dp3407
g54
(dp3408
sg63
g3402
sg56
(lp3409
g49
(g70
g51
NtRp3410
(dp3411
g54
(dp3412
g74
g75
ssg63
g3406
sg56
(lp3413
g147
asbag49
(g70
g51
NtRp3414
(dp3415
g54
(dp3416
g81
g82
ssg63
g3406
sg56
(lp3417
S':'
asbag49
(g70
g51
NtRp3418
(dp3419
g54
(dp3420
sg63
g3406
sg56
(lp3421
g49
(g50
g51
NtRp3422
(dp3423
g54
(dp3424
g62
I5
ssg63
g3418
sg56
(lp3425
S'<cStringIO.StringO object at 0x074CC880>'
p3426
asbasbasbag49
(g65
g51
NtRp3427
(dp3428
g54
(dp3429
sg63
g3402
sg56
(lp3430
g49
(g70
g51
NtRp3431
(dp3432
g54
(dp3433
g74
g75
ssg63
g3427
sg56
(lp3434
g213
asbag49
(g70
g51
NtRp3435
(dp3436
g54
(dp3437
g81
g82
ssg63
g3427
sg56
(lp3438
S':'
asbag49
(g70
g51
NtRp3439
(dp3440
g54
(dp3441
sg63
g3427
sg56
(lp3442
g49
(g50
g51
NtRp3443
(dp3444
g54
(dp3445
g62
I5
ssg63
g3439
sg56
(lp3446
g49
(g58
g51
NtRp3447
(dp3448
g54
(dp3449
g62
I4
ssg63
Nsg56
(lp3450
g49
(g65
g51
NtRp3451
(dp3452
g54
(dp3453
sg63
g3447
sg56
(lp3454
g49
(g70
g51
NtRp3455
(dp3456
g54
(dp3457
g74
g75
ssg63
g3451
sg56
(lp3458
S'session_id_iguassupass'
p3459
asbag49
(g70
g51
NtRp3460
(dp3461
g54
(dp3462
g81
g82
ssg63
g3451
sg56
(lp3463
S':'
asbag49
(g70
g51
NtRp3464
(dp3465
g54
(dp3466
sg63
g3451
sg56
(lp3467
g49
(g50
g51
NtRp3468
(dp3469
g54
(dp3470
g62
I4
ssg63
g3464
sg56
(lp3471
g49
(g58
g51
NtRp3472
(dp3473
g54
(dp3474
g62
I3
ssg63
Nsg56
(lp3475
g49
(g65
g51
NtRp3476
(dp3477
g54
(dp3478
sg63
g3472
sg56
(lp3479
g49
(g70
g51
NtRp3480
(dp3481
g54
(dp3482
g74
g75
ssg63
g3476
sg56
(lp3483
g263
asbag49
(g70
g51
NtRp3484
(dp3485
g54
(dp3486
g81
g82
ssg63
g3476
sg56
(lp3487
S':'
asbag49
(g70
g51
NtRp3488
(dp3489
g54
(dp3490
sg63
g3476
sg56
(lp3491
g49
(g50
g51
NtRp3492
(dp3493
g54
(dp3494
g62
I3
ssg63
g3488
sg56
(lp3495
S''
asbasbasbag49
(g65
g51
NtRp3496
(dp3497
g54
(dp3498
sg63
g3472
sg56
(lp3499
g49
(g70
g51
NtRp3500
(dp3501
g54
(dp3502
g74
g75
ssg63
g3496
sg56
(lp3503
g284
asbag49
(g70
g51
NtRp3504
(dp3505
g54
(dp3506
g81
g82
ssg63
g3496
sg56
(lp3507
S':'
asbag49
(g70
g51
NtRp3508
(dp3509
g54
(dp3510
sg63
g3496
sg56
(lp3511
g49
(g50
g51
NtRp3512
(dp3513
g54
(dp3514
g62
I3
ssg63
g3508
sg56
(lp3515
S''
asbasbasbag49
(g65
g51
NtRp3516
(dp3517
g54
(dp3518
sg63
g3472
sg56
(lp3519
g49
(g70
g51
NtRp3520
(dp3521
g54
(dp3522
g74
g75
ssg63
g3516
sg56
(lp3523
g305
asbag49
(g70
g51
NtRp3524
(dp3525
g54
(dp3526
g81
g82
ssg63
g3516
sg56
(lp3527
S':'
asbag49
(g70
g51
NtRp3528
(dp3529
g54
(dp3530
sg63
g3516
sg56
(lp3531
g49
(g50
g51
NtRp3532
(dp3533
g54
(dp3534
g62
I3
ssg63
g3528
sg56
(lp3535
S''
asbasbasbag49
(g65
g51
NtRp3536
(dp3537
g54
(dp3538
sg63
g3472
sg56
(lp3539
g49
(g70
g51
NtRp3540
(dp3541
g54
(dp3542
g74
g75
ssg63
g3536
sg56
(lp3543
g326
asbag49
(g70
g51
NtRp3544
(dp3545
g54
(dp3546
g81
g82
ssg63
g3536
sg56
(lp3547
S':'
asbag49
(g70
g51
NtRp3548
(dp3549
g54
(dp3550
sg63
g3536
sg56
(lp3551
g49
(g50
g51
NtRp3552
(dp3553
g54
(dp3554
g62
I3
ssg63
g3548
sg56
(lp3555
S''
asbasbasbag49
(g65
g51
NtRp3556
(dp3557
g54
(dp3558
sg63
g3472
sg56
(lp3559
g49
(g70
g51
NtRp3560
(dp3561
g54
(dp3562
g74
g75
ssg63
g3556
sg56
(lp3563
g347
asbag49
(g70
g51
NtRp3564
(dp3565
g54
(dp3566
g81
g82
ssg63
g3556
sg56
(lp3567
S':'
asbag49
(g70
g51
NtRp3568
(dp3569
g54
(dp3570
sg63
g3556
sg56
(lp3571
g49
(g50
g51
NtRp3572
(dp3573
g54
(dp3574
g62
I3
ssg63
g3568
sg56
(lp3575
S'/'
asbasbasbag49
(g65
g51
NtRp3576
(dp3577
g54
(dp3578
sg63
g3472
sg56
(lp3579
g49
(g70
g51
NtRp3580
(dp3581
g54
(dp3582
g74
g75
ssg63
g3576
sg56
(lp3583
g368
asbag49
(g70
g51
NtRp3584
(dp3585
g54
(dp3586
g81
g82
ssg63
g3576
sg56
(lp3587
S':'
asbag49
(g70
g51
NtRp3588
(dp3589
g54
(dp3590
sg63
g3576
sg56
(lp3591
g49
(g50
g51
NtRp3592
(dp3593
g54
(dp3594
g62
I3
ssg63
g3588
sg56
(lp3595
S''
asbasbasbag49
(g65
g51
NtRp3596
(dp3597
g54
(dp3598
sg63
g3472
sg56
(lp3599
g49
(g70
g51
NtRp3600
(dp3601
g54
(dp3602
g74
g75
ssg63
g3596
sg56
(lp3603
g389
asbag49
(g70
g51
NtRp3604
(dp3605
g54
(dp3606
g81
g82
ssg63
g3596
sg56
(lp3607
S':'
asbag49
(g70
g51
NtRp3608
(dp3609
g54
(dp3610
sg63
g3596
sg56
(lp3611
g49
(g50
g51
NtRp3612
(dp3613
g54
(dp3614
g62
I3
ssg63
g3608
sg56
(lp3615
S''
asbasbasbasbasbasbasbasbasbasbasbag49
(g65
g51
NtRp3616
(dp3617
g54
(dp3618
sg63
g3402
sg56
(lp3619
g49
(g70
g51
NtRp3620
(dp3621
g54
(dp3622
g74
g75
ssg63
g3616
sg56
(lp3623
S'delimiters'
p3624
asbag49
(g70
g51
NtRp3625
(dp3626
g54
(dp3627
g81
g82
ssg63
g3616
sg56
(lp3628
S':'
asbag49
(g70
g51
NtRp3629
(dp3630
g54
(dp3631
sg63
g3616
sg56
(lp3632
g49
(g50
g51
NtRp3633
(dp3634
g54
(dp3635
g62
I5
ssg63
g3629
sg56
(lp3636
g49
(g58
g51
NtRp3637
(dp3638
g54
(dp3639
g62
I4
ssg63
Nsg56
(lp3640
g49
(g65
g51
NtRp3641
(dp3642
g54
(dp3643
sg63
g3637
sg56
(lp3644
g49
(g70
g51
NtRp3645
(dp3646
g54
(dp3647
sg63
g3641
sg56
(lp3648
g49
(g50
g51
NtRp3649
(dp3650
g54
(dp3651
g62
I4
ssg63
g3645
sg56
(lp3652
S'{{'
p3653
asbasbasbag49
(g65
g51
NtRp3654
(dp3655
g54
(dp3656
sg63
g3637
sg56
(lp3657
g49
(g70
g51
NtRp3658
(dp3659
g54
(dp3660
sg63
g3654
sg56
(lp3661
g49
(g50
g51
NtRp3662
(dp3663
g54
(dp3664
g62
I4
ssg63
g3658
sg56
(lp3665
S'}}'
p3666
asbasbasbasbasbasbasbag49
(g65
g51
NtRp3667
(dp3668
g54
(dp3669
sg63
g3402
sg56
(lp3670
g49
(g70
g51
NtRp3671
(dp3672
g54
(dp3673
g74
g75
ssg63
g3667
sg56
(lp3674
S'files'
p3675
asbag49
(g70
g51
NtRp3676
(dp3677
g54
(dp3678
g81
g82
ssg63
g3667
sg56
(lp3679
S':'
asbag49
(g70
g51
NtRp3680
(dp3681
g54
(dp3682
sg63
g3667
sg56
(lp3683
g49
(g50
g51
NtRp3684
(dp3685
g54
(dp3686
g62
I5
ssg63
g3680
sg56
(lp3687
g49
(g58
g51
NtRp3688
(dp3689
g54
(dp3690
g62
I4
ssg63
Nsg56
(lp3691
sbasbasbasbag49
(g65
g51
NtRp3692
(dp3693
g54
(dp3694
sg63
g3402
sg56
(lp3695
g49
(g70
g51
NtRp3696
(dp3697
g54
(dp3698
g74
g75
ssg63
g3692
sg56
(lp3699
S'flash'
p3700
asbag49
(g70
g51
NtRp3701
(dp3702
g54
(dp3703
g81
g82
ssg63
g3692
sg56
(lp3704
S':'
asbag49
(g70
g51
NtRp3705
(dp3706
g54
(dp3707
sg63
g3692
sg56
(lp3708
g49
(g50
g51
NtRp3709
(dp3710
g54
(dp3711
g62
I5
ssg63
g3705
sg56
(lp3712
S''
asbasbasbag49
(g65
g51
NtRp3713
(dp3714
g54
(dp3715
sg63
g3402
sg56
(lp3716
g49
(g70
g51
NtRp3717
(dp3718
g54
(dp3719
g74
g75
ssg63
g3713
sg56
(lp3720
S'generic_patterns'
p3721
asbag49
(g70
g51
NtRp3722
(dp3723
g54
(dp3724
g81
g82
ssg63
g3713
sg56
(lp3725
S':'
asbag49
(g70
g51
NtRp3726
(dp3727
g54
(dp3728
sg63
g3713
sg56
(lp3729
g49
(g50
g51
NtRp3730
(dp3731
g54
(dp3732
g62
I5
ssg63
g3726
sg56
(lp3733
g49
(g58
g51
NtRp3734
(dp3735
g54
(dp3736
g62
I4
ssg63
Nsg56
(lp3737
g49
(g65
g51
NtRp3738
(dp3739
g54
(dp3740
sg63
g3734
sg56
(lp3741
g49
(g70
g51
NtRp3742
(dp3743
g54
(dp3744
sg63
g3738
sg56
(lp3745
g49
(g50
g51
NtRp3746
(dp3747
g54
(dp3748
g62
I4
ssg63
g3742
sg56
(lp3749
S'*'
asbasbasbasbasbasbasbag49
(g65
g51
NtRp3750
(dp3751
g54
(dp3752
sg63
g3402
sg56
(lp3753
g49
(g70
g51
NtRp3754
(dp3755
g54
(dp3756
g74
g75
ssg63
g3750
sg56
(lp3757
S'headers'
p3758
asbag49
(g70
g51
NtRp3759
(dp3760
g54
(dp3761
g81
g82
ssg63
g3750
sg56
(lp3762
S':'
asbag49
(g70
g51
NtRp3763
(dp3764
g54
(dp3765
sg63
g3750
sg56
(lp3766
g49
(g50
g51
NtRp3767
(dp3768
g54
(dp3769
g62
I5
ssg63
g3763
sg56
(lp3770
g49
(g58
g51
NtRp3771
(dp3772
g54
(dp3773
g62
I4
ssg63
Nsg56
(lp3774
g49
(g65
g51
NtRp3775
(dp3776
g54
(dp3777
sg63
g3771
sg56
(lp3778
g49
(g70
g51
NtRp3779
(dp3780
g54
(dp3781
g74
g75
ssg63
g3775
sg56
(lp3782
S'Cache-Control'
p3783
asbag49
(g70
g51
NtRp3784
(dp3785
g54
(dp3786
g81
g82
ssg63
g3775
sg56
(lp3787
S':'
asbag49
(g70
g51
NtRp3788
(dp3789
g54
(dp3790
sg63
g3775
sg56
(lp3791
g49
(g50
g51
NtRp3792
(dp3793
g54
(dp3794
g62
I4
ssg63
g3788
sg56
(lp3795
S'no-store, no-cache, must-revalidate, post-check=0, pre-check=0'
p3796
asbasbasbag49
(g65
g51
NtRp3797
(dp3798
g54
(dp3799
sg63
g3771
sg56
(lp3800
g49
(g70
g51
NtRp3801
(dp3802
g54
(dp3803
g74
g75
ssg63
g3797
sg56
(lp3804
S'Content-Type'
p3805
asbag49
(g70
g51
NtRp3806
(dp3807
g54
(dp3808
g81
g82
ssg63
g3797
sg56
(lp3809
S':'
asbag49
(g70
g51
NtRp3810
(dp3811
g54
(dp3812
sg63
g3797
sg56
(lp3813
g49
(g50
g51
NtRp3814
(dp3815
g54
(dp3816
g62
I4
ssg63
g3810
sg56
(lp3817
S'text/html; charset=utf-8'
p3818
asbasbasbag49
(g65
g51
NtRp3819
(dp3820
g54
(dp3821
sg63
g3771
sg56
(lp3822
g49
(g70
g51
NtRp3823
(dp3824
g54
(dp3825
g74
g75
ssg63
g3819
sg56
(lp3826
S'Expires'
p3827
asbag49
(g70
g51
NtRp3828
(dp3829
g54
(dp3830
g81
g82
ssg63
g3819
sg56
(lp3831
S':'
asbag49
(g70
g51
NtRp3832
(dp3833
g54
(dp3834
sg63
g3819
sg56
(lp3835
g49
(g50
g51
NtRp3836
(dp3837
g54
(dp3838
g62
I4
ssg63
g3832
sg56
(lp3839
S'Thu, 30 Aug 2012 13:44:57 GMT'
p3840
asbasbasbag49
(g65
g51
NtRp3841
(dp3842
g54
(dp3843
sg63
g3771
sg56
(lp3844
g49
(g70
g51
NtRp3845
(dp3846
g54
(dp3847
g74
g75
ssg63
g3841
sg56
(lp3848
S'Pragma'
p3849
asbag49
(g70
g51
NtRp3850
(dp3851
g54
(dp3852
g81
g82
ssg63
g3841
sg56
(lp3853
S':'
asbag49
(g70
g51
NtRp3854
(dp3855
g54
(dp3856
sg63
g3841
sg56
(lp3857
g49
(g50
g51
NtRp3858
(dp3859
g54
(dp3860
g62
I4
ssg63
g3854
sg56
(lp3861
S'no-cache'
p3862
asbasbasbag49
(g65
g51
NtRp3863
(dp3864
g54
(dp3865
sg63
g3771
sg56
(lp3866
g49
(g70
g51
NtRp3867
(dp3868
g54
(dp3869
g74
g75
ssg63
g3863
sg56
(lp3870
S'X-Powered-By'
p3871
asbag49
(g70
g51
NtRp3872
(dp3873
g54
(dp3874
g81
g82
ssg63
g3863
sg56
(lp3875
S':'
asbag49
(g70
g51
NtRp3876
(dp3877
g54
(dp3878
sg63
g3863
sg56
(lp3879
g49
(g50
g51
NtRp3880
(dp3881
g54
(dp3882
g62
I4
ssg63
g3876
sg56
(lp3883
S'web2py'
p3884
asbasbasbasbasbasbasbag49
(g65
g51
NtRp3885
(dp3886
g54
(dp3887
sg63
g3402
sg56
(lp3888
g49
(g70
g51
NtRp3889
(dp3890
g54
(dp3891
g74
g75
ssg63
g3885
sg56
(lp3892
S'menu'
p3893
asbag49
(g70
g51
NtRp3894
(dp3895
g54
(dp3896
g81
g82
ssg63
g3885
sg56
(lp3897
S':'
asbag49
(g70
g51
NtRp3898
(dp3899
g54
(dp3900
sg63
g3885
sg56
(lp3901
g49
(g50
g51
NtRp3902
(dp3903
g54
(dp3904
g62
I5
ssg63
g3898
sg56
(lp3905
g49
(g58
g51
NtRp3906
(dp3907
g54
(dp3908
g62
I4
ssg63
Nsg56
(lp3909
g49
(g65
g51
NtRp3910
(dp3911
g54
(dp3912
sg63
g3906
sg56
(lp3913
g49
(g70
g51
NtRp3914
(dp3915
g54
(dp3916
sg63
g3910
sg56
(lp3917
g49
(g50
g51
NtRp3918
(dp3919
g54
(dp3920
g62
I4
ssg63
g3914
sg56
(lp3921
g49
(g58
g51
NtRp3922
(dp3923
g54
(dp3924
g62
I3
ssg63
Nsg56
(lp3925
g49
(g65
g51
NtRp3926
(dp3927
g54
(dp3928
sg63
g3922
sg56
(lp3929
g49
(g70
g51
NtRp3930
(dp3931
g54
(dp3932
sg63
g3926
sg56
(lp3933
g49
(g50
g51
NtRp3934
(dp3935
g54
(dp3936
g62
I3
ssg63
g3930
sg56
(lp3937
cgluon.languages
lazyT_unpickle
p3938
(S't\x04\x00\x00\x00Home'
tRp3939
asbasbasbag49
(g65
g51
NtRp3940
(dp3941
g54
(dp3942
sg63
g3922
sg56
(lp3943
g49
(g70
g51
NtRp3944
(dp3945
g54
(dp3946
sg63
g3940
sg56
(lp3947
g49
(g50
g51
NtRp3948
(dp3949
g54
(dp3950
g62
I3
ssg63
g3944
sg56
(lp3951
g92
asbasbasbag49
(g65
g51
NtRp3952
(dp3953
g54
(dp3954
sg63
g3922
sg56
(lp3955
g49
(g70
g51
NtRp3956
(dp3957
g54
(dp3958
sg63
g3952
sg56
(lp3959
g49
(g50
g51
NtRp3960
(dp3961
g54
(dp3962
g62
I3
ssg63
g3956
sg56
(lp3963
S'/IguassuPass/default/index'
p3964
asbasbasbag49
(g65
g51
NtRp3965
(dp3966
g54
(dp3967
sg63
g3922
sg56
(lp3968
g49
(g70
g51
NtRp3969
(dp3970
g54
(dp3971
sg63
g3965
sg56
(lp3972
g49
(g50
g51
NtRp3973
(dp3974
g54
(dp3975
g62
I3
ssg63
g3969
sg56
(lp3976
g49
(g58
g51
NtRp3977
(dp3978
g54
(dp3979
g62
I2
ssg63
Nsg56
(lp3980
sbasbasbasbasbasbasbasbag49
(g65
g51
NtRp3981
(dp3982
g54
(dp3983
sg63
g3906
sg56
(lp3984
g49
(g70
g51
NtRp3985
(dp3986
g54
(dp3987
sg63
g3981
sg56
(lp3988
g49
(g50
g51
NtRp3989
(dp3990
g54
(dp3991
g62
I4
ssg63
g3985
sg56
(lp3992
g49
(g58
g51
NtRp3993
(dp3994
g54
(dp3995
g62
I3
ssg63
Nsg56
(lp3996
g49
(g65
g51
NtRp3997
(dp3998
g54
(dp3999
sg63
g3993
sg56
(lp4000
g49
(g70
g51
NtRp4001
(dp4002
g54
(dp4003
sg63
g3997
sg56
(lp4004
g49
(g50
g51
NtRp4005
(dp4006
g54
(dp4007
g62
I3
ssg63
g4001
sg56
(lp4008
g49
(cgluon.html
SPAN
p4009
g51
NtRp4010
(dp4011
g54
(dp4012
g74
S'color:yellow'
p4013
ssg63
Nsg56
(lp4014
g3884
asbasbasbasbag49
(g65
g51
NtRp4015
(dp4016
g54
(dp4017
sg63
g3993
sg56
(lp4018
g49
(g70
g51
NtRp4019
(dp4020
g54
(dp4021
sg63
g4015
sg56
(lp4022
g49
(g50
g51
NtRp4023
(dp4024
g54
(dp4025
g62
I3
ssg63
g4019
sg56
(lp4026
g92
asbasbasbag49
(g65
g51
NtRp4027
(dp4028
g54
(dp4029
sg63
g3993
sg56
(lp4030
g49
(g70
g51
NtRp4031
(dp4032
g54
(dp4033
sg63
g4027
sg56
(lp4034
g49
(g50
g51
NtRp4035
(dp4036
g54
(dp4037
g62
I3
ssg63
g4031
sg56
(lp4038
S'None'
p4039
asbasbasbag49
(g65
g51
NtRp4040
(dp4041
g54
(dp4042
sg63
g3993
sg56
(lp4043
g49
(g70
g51
NtRp4044
(dp4045
g54
(dp4046
sg63
g4040
sg56
(lp4047
g49
(g50
g51
NtRp4048
(dp4049
g54
(dp4050
g62
I3
ssg63
g4044
sg56
(lp4051
g49
(g58
g51
NtRp4052
(dp4053
g54
(dp4054
g62
I2
ssg63
Nsg56
(lp4055
g49
(g65
g51
NtRp4056
(dp4057
g54
(dp4058
sg63
g4052
sg56
(lp4059
g49
(g70
g51
NtRp4060
(dp4061
g54
(dp4062
sg63
g4056
sg56
(lp4063
g49
(g50
g51
NtRp4064
(dp4065
g54
(dp4066
g62
I2
ssg63
g4060
sg56
(lp4067
g49
(g58
g51
NtRp4068
(dp4069
g54
(dp4070
g62
I1
ssg63
Nsg56
(lp4071
g49
(g65
g51
NtRp4072
(dp4073
g54
(dp4074
sg63
g4068
sg56
(lp4075
g49
(g70
g51
NtRp4076
(dp4077
g54
(dp4078
sg63
g4072
sg56
(lp4079
g49
(g50
g51
NtRp4080
(dp4081
g54
(dp4082
g62
I1
ssg63
g4076
sg56
(lp4083
g3938
(S's\x08\x00\x00\x00My Sites'
tRp4084
asbasbasbag49
(g65
g51
NtRp4085
(dp4086
g54
(dp4087
sg63
g4068
sg56
(lp4088
g49
(g70
g51
NtRp4089
(dp4090
g54
(dp4091
sg63
g4085
sg56
(lp4092
g49
(g50
g51
NtRp4093
(dp4094
g54
(dp4095
g62
I1
ssg63
g4089
sg56
(lp4096
I00
asbasbasbag49
(g65
g51
NtRp4097
(dp4098
g54
(dp4099
sg63
g4068
sg56
(lp4100
g49
(g70
g51
NtRp4101
(dp4102
g54
(dp4103
sg63
g4097
sg56
(lp4104
g49
(g50
g51
NtRp4105
(dp4106
g54
(dp4107
g62
I1
ssg63
g4101
sg56
(lp4108
S'/admin/default/site'
p4109
asbasbasbasbasbasbasbag49
(g65
g51
NtRp4110
(dp4111
g54
(dp4112
sg63
g4052
sg56
(lp4113
g49
(g70
g51
NtRp4114
(dp4115
g54
(dp4116
sg63
g4110
sg56
(lp4117
g49
(g50
g51
NtRp4118
(dp4119
g54
(dp4120
g62
I2
ssg63
g4114
sg56
(lp4121
g49
(g58
g51
NtRp4122
(dp4123
g54
(dp4124
g62
I1
ssg63
Nsg56
(lp4125
g49
(g65
g51
NtRp4126
(dp4127
g54
(dp4128
sg63
g4122
sg56
(lp4129
g49
(g70
g51
NtRp4130
(dp4131
g54
(dp4132
sg63
g4126
sg56
(lp4133
g49
(g50
g51
NtRp4134
(dp4135
g54
(dp4136
g62
I1
ssg63
g4130
sg56
(lp4137
g3938
(S's\x08\x00\x00\x00This App'
tRp4138
asbasbasbag49
(g65
g51
NtRp4139
(dp4140
g54
(dp4141
sg63
g4122
sg56
(lp4142
g49
(g70
g51
NtRp4143
(dp4144
g54
(dp4145
sg63
g4139
sg56
(lp4146
g49
(g50
g51
NtRp4147
(dp4148
g54
(dp4149
g62
I1
ssg63
g4143
sg56
(lp4150
I00
asbasbasbag49
(g65
g51
NtRp4151
(dp4152
g54
(dp4153
sg63
g4122
sg56
(lp4154
g49
(g70
g51
NtRp4155
(dp4156
g54
(dp4157
sg63
g4151
sg56
(lp4158
g49
(g50
g51
NtRp4159
(dp4160
g54
(dp4161
g62
I1
ssg63
g4155
sg56
(lp4162
S'/admin/default/design/IguassuPass'
p4163
asbasbasbag49
(g65
g51
NtRp4164
(dp4165
g54
(dp4166
sg63
g4122
sg56
(lp4167
g49
(g70
g51
NtRp4168
(dp4169
g54
(dp4170
sg63
g4164
sg56
(lp4171
g49
(g50
g51
NtRp4172
(dp4173
g54
(dp4174
g62
I1
ssg63
g4168
sg56
(lp4175
(lp4176
(g3938
(S't\n\x00\x00\x00Controller'
tRp4177
I00
S'/admin/default/edit/IguassuPass/controllers/default.py'
tp4178
a(g3938
(S't\x04\x00\x00\x00View'
tRp4179
I00
S'/admin/default/edit/IguassuPass/views/default/atracoes.html'
tp4180
a(g3938
(S't\x06\x00\x00\x00Layout'
tRp4181
I00
S'/admin/default/edit/IguassuPass/views/layout.html'
tp4182
a(g3938
(S't\n\x00\x00\x00Stylesheet'
tRp4183
I00
S'/admin/default/edit/IguassuPass/static/css/web2py.css'
tp4184
a(g3938
(S's\x08\x00\x00\x00DB Model'
tRp4185
I00
S'/admin/default/edit/IguassuPass/models/db.py'
tp4186
a(g3938
(S's\n\x00\x00\x00Menu Model'
tRp4187
I00
S'/admin/default/edit/IguassuPass/models/menu.py'
tp4188
a(g3938
(S't\x08\x00\x00\x00Database'
tRp4189
I00
S'/IguassuPass/appadmin/index'
tp4190
a(g3938
(S't\x06\x00\x00\x00Errors'
tRp4191
I00
S'/admin/default/errors/IguassuPass'
tp4192
a(g3938
(S't\x05\x00\x00\x00About'
tRp4193
I00
S'/admin/default/about/IguassuPass'
tp4194
aasbasbasbasbasbasbasbag49
(g65
g51
NtRp4195
(dp4196
g54
(dp4197
sg63
g4052
sg56
(lp4198
g49
(g70
g51
NtRp4199
(dp4200
g54
(dp4201
sg63
g4195
sg56
(lp4202
g49
(g50
g51
NtRp4203
(dp4204
g54
(dp4205
g62
I2
ssg63
g4199
sg56
(lp4206
g49
(g58
g51
NtRp4207
(dp4208
g54
(dp4209
g62
I1
ssg63
Nsg56
(lp4210
g49
(g65
g51
NtRp4211
(dp4212
g54
(dp4213
sg63
g4207
sg56
(lp4214
g49
(g70
g51
NtRp4215
(dp4216
g54
(dp4217
sg63
g4211
sg56
(lp4218
g49
(g50
g51
NtRp4219
(dp4220
g54
(dp4221
g62
I1
ssg63
g4215
sg56
(lp4222
S'web2py.com'
p4223
asbasbasbag49
(g65
g51
NtRp4224
(dp4225
g54
(dp4226
sg63
g4207
sg56
(lp4227
g49
(g70
g51
NtRp4228
(dp4229
g54
(dp4230
sg63
g4224
sg56
(lp4231
g49
(g50
g51
NtRp4232
(dp4233
g54
(dp4234
g62
I1
ssg63
g4228
sg56
(lp4235
I00
asbasbasbag49
(g65
g51
NtRp4236
(dp4237
g54
(dp4238
sg63
g4207
sg56
(lp4239
g49
(g70
g51
NtRp4240
(dp4241
g54
(dp4242
sg63
g4236
sg56
(lp4243
g49
(g50
g51
NtRp4244
(dp4245
g54
(dp4246
g62
I1
ssg63
g4240
sg56
(lp4247
S'http://www.web2py.com'
p4248
asbasbasbag49
(g65
g51
NtRp4249
(dp4250
g54
(dp4251
sg63
g4207
sg56
(lp4252
g49
(g70
g51
NtRp4253
(dp4254
g54
(dp4255
sg63
g4249
sg56
(lp4256
g49
(g50
g51
NtRp4257
(dp4258
g54
(dp4259
g62
I1
ssg63
g4253
sg56
(lp4260
(lp4261
(g3938
(S't\x08\x00\x00\x00Download'
tRp4262
I00
S'http://www.web2py.com/examples/default/download'
p4263
tp4264
a(g3938
(S't\x07\x00\x00\x00Support'
tRp4265
I00
S'http://www.web2py.com/examples/default/support'
p4266
tp4267
a(g3938
(S't\x04\x00\x00\x00Demo'
tRp4268
I00
S'http://web2py.com/demo_admin'
p4269
tp4270
a(g3938
(S's\x0e\x00\x00\x00Quick Examples'
tRp4271
I00
S'http://web2py.com/examples/default/examples'
p4272
tp4273
a(g3938
(S't\x03\x00\x00\x00FAQ'
tRp4274
I00
S'http://web2py.com/AlterEgo'
p4275
tp4276
a(g3938
(S't\x06\x00\x00\x00Videos'
tRp4277
I00
S'http://www.web2py.com/examples/default/videos/'
p4278
tp4279
a(g3938
(S's\x11\x00\x00\x00Free Applications'
tRp4280
I00
S'http://web2py.com/appliances'
p4281
tp4282
a(g3938
(S't\x07\x00\x00\x00Plugins'
tRp4283
I00
S'http://web2py.com/plugins'
p4284
tp4285
a(g3938
(S't\x07\x00\x00\x00Layouts'
tRp4286
I00
S'http://web2py.com/layouts'
p4287
tp4288
a(g3938
(S't\x07\x00\x00\x00Recipes'
tRp4289
I00
S'http://web2pyslices.com/'
p4290
tp4291
a(g3938
(S't\x08\x00\x00\x00Semantic'
tRp4292
I00
S'http://web2py.com/semantic'
p4293
tp4294
aasbasbasbasbasbasbasbag49
(g65
g51
NtRp4295
(dp4296
g54
(dp4297
sg63
g4052
sg56
(lp4298
g49
(g70
g51
NtRp4299
(dp4300
g54
(dp4301
sg63
g4295
sg56
(lp4302
g49
(g50
g51
NtRp4303
(dp4304
g54
(dp4305
g62
I2
ssg63
g4299
sg56
(lp4306
g49
(g58
g51
NtRp4307
(dp4308
g54
(dp4309
g62
I1
ssg63
Nsg56
(lp4310
g49
(g65
g51
NtRp4311
(dp4312
g54
(dp4313
sg63
g4307
sg56
(lp4314
g49
(g70
g51
NtRp4315
(dp4316
g54
(dp4317
sg63
g4311
sg56
(lp4318
g49
(g50
g51
NtRp4319
(dp4320
g54
(dp4321
g62
I1
ssg63
g4315
sg56
(lp4322
g3938
(S't\r\x00\x00\x00Documentation'
tRp4323
asbasbasbag49
(g65
g51
NtRp4324
(dp4325
g54
(dp4326
sg63
g4307
sg56
(lp4327
g49
(g70
g51
NtRp4328
(dp4329
g54
(dp4330
sg63
g4324
sg56
(lp4331
g49
(g50
g51
NtRp4332
(dp4333
g54
(dp4334
g62
I1
ssg63
g4328
sg56
(lp4335
I00
asbasbasbag49
(g65
g51
NtRp4336
(dp4337
g54
(dp4338
sg63
g4307
sg56
(lp4339
g49
(g70
g51
NtRp4340
(dp4341
g54
(dp4342
sg63
g4336
sg56
(lp4343
g49
(g50
g51
NtRp4344
(dp4345
g54
(dp4346
g62
I1
ssg63
g4340
sg56
(lp4347
S'http://www.web2py.com/book'
p4348
asbasbasbag49
(g65
g51
NtRp4349
(dp4350
g54
(dp4351
sg63
g4307
sg56
(lp4352
g49
(g70
g51
NtRp4353
(dp4354
g54
(dp4355
sg63
g4349
sg56
(lp4356
g49
(g50
g51
NtRp4357
(dp4358
g54
(dp4359
g62
I1
ssg63
g4353
sg56
(lp4360
(lp4361
(g3938
(S't\x07\x00\x00\x00Preface'
tRp4362
I00
S'http://www.web2py.com/book/default/chapter/00'
p4363
tp4364
a(g3938
(S't\x0c\x00\x00\x00Introduction'
tRp4365
I00
S'http://www.web2py.com/book/default/chapter/01'
p4366
tp4367
a(g3938
(S't\x06\x00\x00\x00Python'
tRp4368
I00
S'http://www.web2py.com/book/default/chapter/02'
p4369
tp4370
a(g3938
(S't\x08\x00\x00\x00Overview'
tRp4371
I00
S'http://www.web2py.com/book/default/chapter/03'
p4372
tp4373
a(g3938
(S's\x08\x00\x00\x00The Core'
tRp4374
I00
S'http://www.web2py.com/book/default/chapter/04'
p4375
tp4376
a(g3938
(S's\t\x00\x00\x00The Views'
tRp4377
I00
S'http://www.web2py.com/book/default/chapter/05'
p4378
tp4379
a(g3938
(S't\x08\x00\x00\x00Database'
tRp4380
I00
S'http://www.web2py.com/book/default/chapter/06'
p4381
tp4382
a(g3938
(S's\x14\x00\x00\x00Forms and Validators'
tRp4383
I00
S'http://www.web2py.com/book/default/chapter/07'
p4384
tp4385
a(g3938
(S's\r\x00\x00\x00Email and SMS'
tRp4386
I00
S'http://www.web2py.com/book/default/chapter/08'
p4387
tp4388
a(g3938
(S's\x0e\x00\x00\x00Access Control'
tRp4389
I00
S'http://www.web2py.com/book/default/chapter/09'
p4390
tp4391
a(g3938
(S't\x08\x00\x00\x00Services'
tRp4392
I00
S'http://www.web2py.com/book/default/chapter/10'
p4393
tp4394
a(g3938
(S's\x0c\x00\x00\x00Ajax Recipes'
tRp4395
I00
S'http://www.web2py.com/book/default/chapter/11'
p4396
tp4397
a(g3938
(S's\x16\x00\x00\x00Components and Plugins'
tRp4398
I00
S'http://www.web2py.com/book/default/chapter/12'
p4399
tp4400
a(g3938
(S's\x12\x00\x00\x00Deployment Recipes'
tRp4401
I00
S'http://www.web2py.com/book/default/chapter/13'
p4402
tp4403
a(g3938
(S's\r\x00\x00\x00Other Recipes'
tRp4404
I00
S'http://www.web2py.com/book/default/chapter/14'
p4405
tp4406
a(g3938
(S's\r\x00\x00\x00Buy this book'
tRp4407
I00
S'http://stores.lulu.com/web2py'
p4408
tp4409
aasbasbasbasbasbasbasbag49
(g65
g51
NtRp4410
(dp4411
g54
(dp4412
sg63
g4052
sg56
(lp4413
g49
(g70
g51
NtRp4414
(dp4415
g54
(dp4416
sg63
g4410
sg56
(lp4417
g49
(g50
g51
NtRp4418
(dp4419
g54
(dp4420
g62
I2
ssg63
g4414
sg56
(lp4421
g49
(g58
g51
NtRp4422
(dp4423
g54
(dp4424
g62
I1
ssg63
Nsg56
(lp4425
g49
(g65
g51
NtRp4426
(dp4427
g54
(dp4428
sg63
g4422
sg56
(lp4429
g49
(g70
g51
NtRp4430
(dp4431
g54
(dp4432
sg63
g4426
sg56
(lp4433
g49
(g50
g51
NtRp4434
(dp4435
g54
(dp4436
g62
I1
ssg63
g4430
sg56
(lp4437
g3938
(S't\t\x00\x00\x00Community'
tRp4438
asbasbasbag49
(g65
g51
NtRp4439
(dp4440
g54
(dp4441
sg63
g4422
sg56
(lp4442
g49
(g70
g51
NtRp4443
(dp4444
g54
(dp4445
sg63
g4439
sg56
(lp4446
g49
(g50
g51
NtRp4447
(dp4448
g54
(dp4449
g62
I1
ssg63
g4443
sg56
(lp4450
I00
asbasbasbag49
(g65
g51
NtRp4451
(dp4452
g54
(dp4453
sg63
g4422
sg56
(lp4454
g49
(g70
g51
NtRp4455
(dp4456
g54
(dp4457
sg63
g4451
sg56
(lp4458
g49
(g50
g51
NtRp4459
(dp4460
g54
(dp4461
g62
I1
ssg63
g4455
sg56
(lp4462
Nasbasbasbag49
(g65
g51
NtRp4463
(dp4464
g54
(dp4465
sg63
g4422
sg56
(lp4466
g49
(g70
g51
NtRp4467
(dp4468
g54
(dp4469
sg63
g4463
sg56
(lp4470
g49
(g50
g51
NtRp4471
(dp4472
g54
(dp4473
g62
I1
ssg63
g4467
sg56
(lp4474
(lp4475
(g3938
(S't\x06\x00\x00\x00Groups'
tRp4476
I00
S'http://www.web2py.com/examples/default/usergroups'
p4477
tp4478
a(g3938
(S't\x07\x00\x00\x00Twitter'
tRp4479
I00
S'http://twitter.com/web2py'
p4480
tp4481
a(g3938
(S's\t\x00\x00\x00Live Chat'
tRp4482
I00
S'http://webchat.freenode.net/?channels=web2py'
p4483
tp4484
aasbasbasbasbasbasbasbag49
(g65
g51
NtRp4485
(dp4486
g54
(dp4487
sg63
g4052
sg56
(lp4488
g49
(g70
g51
NtRp4489
(dp4490
g54
(dp4491
sg63
g4485
sg56
(lp4492
g49
(g50
g51
NtRp4493
(dp4494
g54
(dp4495
g62
I2
ssg63
g4489
sg56
(lp4496
g49
(g58
g51
NtRp4497
(dp4498
g54
(dp4499
g62
I1
ssg63
Nsg56
(lp4500
g49
(g65
g51
NtRp4501
(dp4502
g54
(dp4503
sg63
g4497
sg56
(lp4504
g49
(g70
g51
NtRp4505
(dp4506
g54
(dp4507
sg63
g4501
sg56
(lp4508
g49
(g50
g51
NtRp4509
(dp4510
g54
(dp4511
g62
I1
ssg63
g4505
sg56
(lp4512
g3938
(S't\x07\x00\x00\x00Plugins'
tRp4513
asbasbasbag49
(g65
g51
NtRp4514
(dp4515
g54
(dp4516
sg63
g4497
sg56
(lp4517
g49
(g70
g51
NtRp4518
(dp4519
g54
(dp4520
sg63
g4514
sg56
(lp4521
g49
(g50
g51
NtRp4522
(dp4523
g54
(dp4524
g62
I1
ssg63
g4518
sg56
(lp4525
I00
asbasbasbag49
(g65
g51
NtRp4526
(dp4527
g54
(dp4528
sg63
g4497
sg56
(lp4529
g49
(g70
g51
NtRp4530
(dp4531
g54
(dp4532
sg63
g4526
sg56
(lp4533
g49
(g50
g51
NtRp4534
(dp4535
g54
(dp4536
g62
I1
ssg63
g4530
sg56
(lp4537
Nasbasbasbag49
(g65
g51
NtRp4538
(dp4539
g54
(dp4540
sg63
g4497
sg56
(lp4541
g49
(g70
g51
NtRp4542
(dp4543
g54
(dp4544
sg63
g4538
sg56
(lp4545
g49
(g50
g51
NtRp4546
(dp4547
g54
(dp4548
g62
I1
ssg63
g4542
sg56
(lp4549
(lp4550
(S'plugin_wiki'
p4551
I00
S'http://web2py.com/examples/default/download'
p4552
tp4553
a(g3938
(S's\r\x00\x00\x00Other Plugins'
tRp4554
I00
g4284
tp4555
a(g3938
(S's\x0e\x00\x00\x00Layout Plugins'
tRp4556
I00
g4287
tp4557
aasbasbasbasbasbasbasbasbasbasbasbasbasbasbasbasbasbasbasbag49
(g65
g51
NtRp4558
(dp4559
g54
(dp4560
sg63
g3402
sg56
(lp4561
g49
(g70
g51
NtRp4562
(dp4563
g54
(dp4564
g74
g75
ssg63
g4558
sg56
(lp4565
S'meta'
p4566
asbag49
(g70
g51
NtRp4567
(dp4568
g54
(dp4569
g81
g82
ssg63
g4558
sg56
(lp4570
S':'
asbag49
(g70
g51
NtRp4571
(dp4572
g54
(dp4573
sg63
g4558
sg56
(lp4574
g49
(g50
g51
NtRp4575
(dp4576
g54
(dp4577
g62
I5
ssg63
g4571
sg56
(lp4578
g49
(g58
g51
NtRp4579
(dp4580
g54
(dp4581
g62
I4
ssg63
Nsg56
(lp4582
g49
(g65
g51
NtRp4583
(dp4584
g54
(dp4585
sg63
g4579
sg56
(lp4586
g49
(g70
g51
NtRp4587
(dp4588
g54
(dp4589
g74
g75
ssg63
g4583
sg56
(lp4590
S'author'
p4591
asbag49
(g70
g51
NtRp4592
(dp4593
g54
(dp4594
g81
g82
ssg63
g4583
sg56
(lp4595
S':'
asbag49
(g70
g51
NtRp4596
(dp4597
g54
(dp4598
sg63
g4583
sg56
(lp4599
g49
(g50
g51
NtRp4600
(dp4601
g54
(dp4602
g62
I4
ssg63
g4596
sg56
(lp4603
S'Your Name <you@example.com>'
p4604
asbasbasbag49
(g65
g51
NtRp4605
(dp4606
g54
(dp4607
sg63
g4579
sg56
(lp4608
g49
(g70
g51
NtRp4609
(dp4610
g54
(dp4611
g74
g75
ssg63
g4605
sg56
(lp4612
S'copyright'
p4613
asbag49
(g70
g51
NtRp4614
(dp4615
g54
(dp4616
g81
g82
ssg63
g4605
sg56
(lp4617
S':'
asbag49
(g70
g51
NtRp4618
(dp4619
g54
(dp4620
sg63
g4605
sg56
(lp4621
g49
(g50
g51
NtRp4622
(dp4623
g54
(dp4624
g62
I4
ssg63
g4618
sg56
(lp4625
S'Copyright 2011'
p4626
asbasbasbag49
(g65
g51
NtRp4627
(dp4628
g54
(dp4629
sg63
g4579
sg56
(lp4630
g49
(g70
g51
NtRp4631
(dp4632
g54
(dp4633
g74
g75
ssg63
g4627
sg56
(lp4634
S'description'
p4635
asbag49
(g70
g51
NtRp4636
(dp4637
g54
(dp4638
g81
g82
ssg63
g4627
sg56
(lp4639
S':'
asbag49
(g70
g51
NtRp4640
(dp4641
g54
(dp4642
sg63
g4627
sg56
(lp4643
g49
(g50
g51
NtRp4644
(dp4645
g54
(dp4646
g62
I4
ssg63
g4640
sg56
(lp4647
S'a cool new app'
p4648
asbasbasbag49
(g65
g51
NtRp4649
(dp4650
g54
(dp4651
sg63
g4579
sg56
(lp4652
g49
(g70
g51
NtRp4653
(dp4654
g54
(dp4655
g74
g75
ssg63
g4649
sg56
(lp4656
S'generator'
p4657
asbag49
(g70
g51
NtRp4658
(dp4659
g54
(dp4660
g81
g82
ssg63
g4649
sg56
(lp4661
S':'
asbag49
(g70
g51
NtRp4662
(dp4663
g54
(dp4664
sg63
g4649
sg56
(lp4665
g49
(g50
g51
NtRp4666
(dp4667
g54
(dp4668
g62
I4
ssg63
g4662
sg56
(lp4669
S'Web2py Web Framework'
p4670
asbasbasbag49
(g65
g51
NtRp4671
(dp4672
g54
(dp4673
sg63
g4579
sg56
(lp4674
g49
(g70
g51
NtRp4675
(dp4676
g54
(dp4677
g74
g75
ssg63
g4671
sg56
(lp4678
S'keywords'
p4679
asbag49
(g70
g51
NtRp4680
(dp4681
g54
(dp4682
g81
g82
ssg63
g4671
sg56
(lp4683
S':'
asbag49
(g70
g51
NtRp4684
(dp4685
g54
(dp4686
sg63
g4671
sg56
(lp4687
g49
(g50
g51
NtRp4688
(dp4689
g54
(dp4690
g62
I4
ssg63
g4684
sg56
(lp4691
S'web2py, python, framework'
p4692
asbasbasbasbasbasbasbag49
(g65
g51
NtRp4693
(dp4694
g54
(dp4695
sg63
g3402
sg56
(lp4696
g49
(g70
g51
NtRp4697
(dp4698
g54
(dp4699
g74
g75
ssg63
g4693
sg56
(lp4700
S'postprocessing'
p4701
asbag49
(g70
g51
NtRp4702
(dp4703
g54
(dp4704
g81
g82
ssg63
g4693
sg56
(lp4705
S':'
asbag49
(g70
g51
NtRp4706
(dp4707
g54
(dp4708
sg63
g4693
sg56
(lp4709
g49
(g50
g51
NtRp4710
(dp4711
g54
(dp4712
g62
I5
ssg63
g4706
sg56
(lp4713
g49
(g58
g51
NtRp4714
(dp4715
g54
(dp4716
g62
I4
ssg63
Nsg56
(lp4717
sbasbasbasbag49
(g65
g51
NtRp4718
(dp4719
g54
(dp4720
sg63
g3402
sg56
(lp4721
g49
(g70
g51
NtRp4722
(dp4723
g54
(dp4724
g74
g75
ssg63
g4718
sg56
(lp4725
S'session_file'
p4726
asbag49
(g70
g51
NtRp4727
(dp4728
g54
(dp4729
g81
g82
ssg63
g4718
sg56
(lp4730
S':'
asbag49
(g70
g51
NtRp4731
(dp4732
g54
(dp4733
sg63
g4718
sg56
(lp4734
g49
(g50
g51
NtRp4735
(dp4736
g54
(dp4737
g62
I5
ssg63
g4731
sg56
(lp4738
S"<open file 'C:\\Users\\ceasbpi\\Dropbox\\web2py\\applications\\IguassuPass\\sessions\\127.0.0.1-0ebf5fce-933e-4652-8d87-32a636575dba', mode 'rb+' at 0x070B9E78>"
p4739
asbasbasbag49
(g65
g51
NtRp4740
(dp4741
g54
(dp4742
sg63
g3402
sg56
(lp4743
g49
(g70
g51
NtRp4744
(dp4745
g54
(dp4746
g74
g75
ssg63
g4740
sg56
(lp4747
S'session_filename'
p4748
asbag49
(g70
g51
NtRp4749
(dp4750
g54
(dp4751
g81
g82
ssg63
g4740
sg56
(lp4752
S':'
asbag49
(g70
g51
NtRp4753
(dp4754
g54
(dp4755
sg63
g4740
sg56
(lp4756
g49
(g50
g51
NtRp4757
(dp4758
g54
(dp4759
g62
I5
ssg63
g4753
sg56
(lp4760
S'C:\\Users\\ceasbpi\\Dropbox\\web2py\\applications\\IguassuPass\\sessions\\127.0.0.1-0ebf5fce-933e-4652-8d87-32a636575dba'
p4761
asbasbasbag49
(g65
g51
NtRp4762
(dp4763
g54
(dp4764
sg63
g3402
sg56
(lp4765
g49
(g70
g51
NtRp4766
(dp4767
g54
(dp4768
g74
g75
ssg63
g4762
sg56
(lp4769
S'session_id'
p4770
asbag49
(g70
g51
NtRp4771
(dp4772
g54
(dp4773
g81
g82
ssg63
g4762
sg56
(lp4774
S':'
asbag49
(g70
g51
NtRp4775
(dp4776
g54
(dp4777
sg63
g4762
sg56
(lp4778
g49
(g50
g51
NtRp4779
(dp4780
g54
(dp4781
g62
I5
ssg63
g4775
sg56
(lp4782
S'127.0.0.1-0ebf5fce-933e-4652-8d87-32a636575dba'
p4783
asbasbasbag49
(g65
g51
NtRp4784
(dp4785
g54
(dp4786
sg63
g3402
sg56
(lp4787
g49
(g70
g51
NtRp4788
(dp4789
g54
(dp4790
g74
g75
ssg63
g4784
sg56
(lp4791
S'session_id_name'
p4792
asbag49
(g70
g51
NtRp4793
(dp4794
g54
(dp4795
g81
g82
ssg63
g4784
sg56
(lp4796
S':'
asbag49
(g70
g51
NtRp4797
(dp4798
g54
(dp4799
sg63
g4784
sg56
(lp4800
g49
(g50
g51
NtRp4801
(dp4802
g54
(dp4803
g62
I5
ssg63
g4797
sg56
(lp4804
g3459
asbasbasbag49
(g65
g51
NtRp4805
(dp4806
g54
(dp4807
sg63
g3402
sg56
(lp4808
g49
(g70
g51
NtRp4809
(dp4810
g54
(dp4811
g74
g75
ssg63
g4805
sg56
(lp4812
S'session_locked'
p4813
asbag49
(g70
g51
NtRp4814
(dp4815
g54
(dp4816
g81
g82
ssg63
g4805
sg56
(lp4817
S':'
asbag49
(g70
g51
NtRp4818
(dp4819
g54
(dp4820
sg63
g4805
sg56
(lp4821
g49
(g50
g51
NtRp4822
(dp4823
g54
(dp4824
g62
I5
ssg63
g4818
sg56
(lp4825
g1609
asbasbasbag49
(g65
g51
NtRp4826
(dp4827
g54
(dp4828
sg63
g3402
sg56
(lp4829
g49
(g70
g51
NtRp4830
(dp4831
g54
(dp4832
g74
g75
ssg63
g4826
sg56
(lp4833
S'session_new'
p4834
asbag49
(g70
g51
NtRp4835
(dp4836
g54
(dp4837
g81
g82
ssg63
g4826
sg56
(lp4838
S':'
asbag49
(g70
g51
NtRp4839
(dp4840
g54
(dp4841
sg63
g4826
sg56
(lp4842
g49
(g50
g51
NtRp4843
(dp4844
g54
(dp4845
g62
I5
ssg63
g4839
sg56
(lp4846
g92
asbasbasbag49
(g65
g51
NtRp4847
(dp4848
g54
(dp4849
sg63
g3402
sg56
(lp4850
g49
(g70
g51
NtRp4851
(dp4852
g54
(dp4853
g74
g75
ssg63
g4847
sg56
(lp4854
S'status'
p4855
asbag49
(g70
g51
NtRp4856
(dp4857
g54
(dp4858
g81
g82
ssg63
g4847
sg56
(lp4859
S':'
asbag49
(g70
g51
NtRp4860
(dp4861
g54
(dp4862
sg63
g4847
sg56
(lp4863
g49
(g50
g51
NtRp4864
(dp4865
g54
(dp4866
g62
I5
ssg63
g4860
sg56
(lp4867
S'200'
p4868
asbasbasbag49
(g65
g51
NtRp4869
(dp4870
g54
(dp4871
sg63
g3402
sg56
(lp4872
g49
(g70
g51
NtRp4873
(dp4874
g54
(dp4875
g74
g75
ssg63
g4869
sg56
(lp4876
S'subtitle'
p4877
asbag49
(g70
g51
NtRp4878
(dp4879
g54
(dp4880
g81
g82
ssg63
g4869
sg56
(lp4881
S':'
asbag49
(g70
g51
NtRp4882
(dp4883
g54
(dp4884
sg63
g4869
sg56
(lp4885
g49
(g50
g51
NtRp4886
(dp4887
g54
(dp4888
g62
I5
ssg63
g4882
sg56
(lp4889
g3938
(S's\r\x00\x00\x00customize me!'
tRp4890
asbasbasbag49
(g65
g51
NtRp4891
(dp4892
g54
(dp4893
sg63
g3402
sg56
(lp4894
g49
(g70
g51
NtRp4895
(dp4896
g54
(dp4897
g74
g75
ssg63
g4891
sg56
(lp4898
S'title'
p4899
asbag49
(g70
g51
NtRp4900
(dp4901
g54
(dp4902
g81
g82
ssg63
g4891
sg56
(lp4903
S':'
asbag49
(g70
g51
NtRp4904
(dp4905
g54
(dp4906
sg63
g4891
sg56
(lp4907
g49
(g50
g51
NtRp4908
(dp4909
g54
(dp4910
g62
I5
ssg63
g4904
sg56
(lp4911
S'Iguassupass'
p4912
asbasbasbag49
(g65
g51
NtRp4913
(dp4914
g54
(dp4915
sg63
g3402
sg56
(lp4916
g49
(g70
g51
NtRp4917
(dp4918
g54
(dp4919
g74
g75
ssg63
g4913
sg56
(lp4920
g2273
asbag49
(g70
g51
NtRp4921
(dp4922
g54
(dp4923
g81
g82
ssg63
g4913
sg56
(lp4924
S':'
asbag49
(g70
g51
NtRp4925
(dp4926
g54
(dp4927
sg63
g4913
sg56
(lp4928
g49
(g50
g51
NtRp4929
(dp4930
g54
(dp4931
g62
I5
ssg63
g4925
sg56
(lp4932
g2286
asbasbasbag49
(g65
g51
NtRp4933
(dp4934
g54
(dp4935
sg63
g3402
sg56
(lp4936
g49
(g70
g51
NtRp4937
(dp4938
g54
(dp4939
g74
g75
ssg63
g4933
sg56
(lp4940
S'view'
p4941
asbag49
(g70
g51
NtRp4942
(dp4943
g54
(dp4944
g81
g82
ssg63
g4933
sg56
(lp4945
S':'
asbag49
(g70
g51
NtRp4946
(dp4947
g54
(dp4948
sg63
g4933
sg56
(lp4949
g49
(g50
g51
NtRp4950
(dp4951
g54
(dp4952
g62
I5
ssg63
g4946
sg56
(lp4953
S'default/atracoes.html'
p4954
asbasbasbasbasbsS'locals'
p4955
(dp4956
S'self'
p4957
S'<gluon.dal.SQLiteAdapter object at 0x076E3BD0>'
p4958
sS'r'
S'None'
p4959
sS'obj'
p4960
S'<gluon.dal.Rows object at 0x076A0DF0>'
p4961
sS'fieldtype'
p4962
S"'reference atracao'"
p4963
sssS'traceback'
p4964
S'Traceback (most recent call last):\n  File "gluon/restricted.py", line 205, in restricted\n  File "C:\\Users\\ceasbpi\\Dropbox\\web2py\\applications\\IguassuPass\\controllers/default.py", line 107, in <module>\n  File "gluon/globals.py", line 173, in <lambda>\n  File "C:\\Users\\ceasbpi\\Dropbox\\web2py\\applications\\IguassuPass\\controllers/default.py", line 81, in atracoes\n  File "gluon/dal.py", line 7578, in select\n  File "gluon/dal.py", line 1307, in select\n  File "gluon/dal.py", line 1756, in _select\n  File "gluon/dal.py", line 1200, in _select\n  File "gluon/dal.py", line 1046, in expand\n  File "gluon/dal.py", line 987, in EQ\n  File "gluon/dal.py", line 1054, in expand\n  File "gluon/dal.py", line 1433, in represent\nTypeError: int() argument must be a string or a number, not \'Rows\'\n'
p4965
s.